   1              		.syntax unified
   2              		.cpu cortex-m4
   3              		.eabi_attribute 27, 3
   4              		.eabi_attribute 28, 1
   5              		.fpu fpv4-sp-d16
   6              		.eabi_attribute 20, 1
   7              		.eabi_attribute 21, 1
   8              		.eabi_attribute 23, 3
   9              		.eabi_attribute 24, 1
  10              		.eabi_attribute 25, 1
  11              		.eabi_attribute 26, 1
  12              		.eabi_attribute 30, 2
  13              		.eabi_attribute 34, 1
  14              		.eabi_attribute 18, 4
  15              		.thumb
  16              		.file	"stm32f4xx_flash.c"
  17              		.text
  18              	.Ltext0:
  19              		.cfi_sections	.debug_frame
  20              		.section	.text.FLASH_SetLatency,"ax",%progbits
  21              		.align	2
  22              		.global	FLASH_SetLatency
  23              		.thumb
  24              		.thumb_func
  26              	FLASH_SetLatency:
  27              	.LFB123:
  28              		.file 1 "Libraries/STM32F4xx_StdPeriph_Driver/src/stm32f4xx_flash.c"
   1:Libraries/STM32F4xx_StdPeriph_Driver/src/stm32f4xx_flash.c **** /**
   2:Libraries/STM32F4xx_StdPeriph_Driver/src/stm32f4xx_flash.c ****   ******************************************************************************
   3:Libraries/STM32F4xx_StdPeriph_Driver/src/stm32f4xx_flash.c ****   * @file    stm32f4xx_flash.c
   4:Libraries/STM32F4xx_StdPeriph_Driver/src/stm32f4xx_flash.c ****   * @author  MCD Application Team
   5:Libraries/STM32F4xx_StdPeriph_Driver/src/stm32f4xx_flash.c ****   * @version V1.5.0
   6:Libraries/STM32F4xx_StdPeriph_Driver/src/stm32f4xx_flash.c ****   * @date    06-March-2015
   7:Libraries/STM32F4xx_StdPeriph_Driver/src/stm32f4xx_flash.c ****   * @brief   This file provides firmware functions to manage the following 
   8:Libraries/STM32F4xx_StdPeriph_Driver/src/stm32f4xx_flash.c ****   *          functionalities of the FLASH peripheral:
   9:Libraries/STM32F4xx_StdPeriph_Driver/src/stm32f4xx_flash.c ****   *            + FLASH Interface configuration
  10:Libraries/STM32F4xx_StdPeriph_Driver/src/stm32f4xx_flash.c ****   *            + FLASH Memory Programming
  11:Libraries/STM32F4xx_StdPeriph_Driver/src/stm32f4xx_flash.c ****   *            + Option Bytes Programming
  12:Libraries/STM32F4xx_StdPeriph_Driver/src/stm32f4xx_flash.c ****   *            + Interrupts and flags management
  13:Libraries/STM32F4xx_StdPeriph_Driver/src/stm32f4xx_flash.c ****   *  
  14:Libraries/STM32F4xx_StdPeriph_Driver/src/stm32f4xx_flash.c ****  @verbatim    
  15:Libraries/STM32F4xx_StdPeriph_Driver/src/stm32f4xx_flash.c ****  ===============================================================================
  16:Libraries/STM32F4xx_StdPeriph_Driver/src/stm32f4xx_flash.c ****                         ##### How to use this driver #####
  17:Libraries/STM32F4xx_StdPeriph_Driver/src/stm32f4xx_flash.c ****  ===============================================================================
  18:Libraries/STM32F4xx_StdPeriph_Driver/src/stm32f4xx_flash.c ****     [..]                             
  19:Libraries/STM32F4xx_StdPeriph_Driver/src/stm32f4xx_flash.c ****       This driver provides functions to configure and program the FLASH memory 
  20:Libraries/STM32F4xx_StdPeriph_Driver/src/stm32f4xx_flash.c ****       of all STM32F4xx devices. These functions are split in 4 groups:
  21:Libraries/STM32F4xx_StdPeriph_Driver/src/stm32f4xx_flash.c ****    
  22:Libraries/STM32F4xx_StdPeriph_Driver/src/stm32f4xx_flash.c ****       (#) FLASH Interface configuration functions: this group includes the
  23:Libraries/STM32F4xx_StdPeriph_Driver/src/stm32f4xx_flash.c ****           management of the following features:
  24:Libraries/STM32F4xx_StdPeriph_Driver/src/stm32f4xx_flash.c ****         (++) Set the latency
  25:Libraries/STM32F4xx_StdPeriph_Driver/src/stm32f4xx_flash.c ****         (++) Enable/Disable the prefetch buffer
  26:Libraries/STM32F4xx_StdPeriph_Driver/src/stm32f4xx_flash.c ****         (++) Enable/Disable the Instruction cache and the Data cache
  27:Libraries/STM32F4xx_StdPeriph_Driver/src/stm32f4xx_flash.c ****         (++) Reset the Instruction cache and the Data cache
  28:Libraries/STM32F4xx_StdPeriph_Driver/src/stm32f4xx_flash.c ****     
  29:Libraries/STM32F4xx_StdPeriph_Driver/src/stm32f4xx_flash.c ****       (#) FLASH Memory Programming functions: this group includes all needed
  30:Libraries/STM32F4xx_StdPeriph_Driver/src/stm32f4xx_flash.c ****           functions to erase and program the main memory:
  31:Libraries/STM32F4xx_StdPeriph_Driver/src/stm32f4xx_flash.c ****         (++) Lock and Unlock the FLASH interface
  32:Libraries/STM32F4xx_StdPeriph_Driver/src/stm32f4xx_flash.c ****         (++) Erase function: Erase sector, erase all sectors
  33:Libraries/STM32F4xx_StdPeriph_Driver/src/stm32f4xx_flash.c ****         (++) Program functions: byte, half word, word and double word
  34:Libraries/STM32F4xx_StdPeriph_Driver/src/stm32f4xx_flash.c ****     
  35:Libraries/STM32F4xx_StdPeriph_Driver/src/stm32f4xx_flash.c ****       (#) Option Bytes Programming functions: this group includes all needed
  36:Libraries/STM32F4xx_StdPeriph_Driver/src/stm32f4xx_flash.c ****           functions to manage the Option Bytes:
  37:Libraries/STM32F4xx_StdPeriph_Driver/src/stm32f4xx_flash.c ****         (++) Set/Reset the write protection
  38:Libraries/STM32F4xx_StdPeriph_Driver/src/stm32f4xx_flash.c ****         (++) Set the Read protection Level
  39:Libraries/STM32F4xx_StdPeriph_Driver/src/stm32f4xx_flash.c ****         (++) Set the BOR level
  40:Libraries/STM32F4xx_StdPeriph_Driver/src/stm32f4xx_flash.c ****         (++) Program the user Option Bytes
  41:Libraries/STM32F4xx_StdPeriph_Driver/src/stm32f4xx_flash.c ****         (++) Launch the Option Bytes loader
  42:Libraries/STM32F4xx_StdPeriph_Driver/src/stm32f4xx_flash.c ****     
  43:Libraries/STM32F4xx_StdPeriph_Driver/src/stm32f4xx_flash.c ****       (#) Interrupts and flags management functions: this group 
  44:Libraries/STM32F4xx_StdPeriph_Driver/src/stm32f4xx_flash.c ****           includes all needed functions to:
  45:Libraries/STM32F4xx_StdPeriph_Driver/src/stm32f4xx_flash.c ****         (++) Enable/Disable the FLASH interrupt sources
  46:Libraries/STM32F4xx_StdPeriph_Driver/src/stm32f4xx_flash.c ****         (++) Get flags status
  47:Libraries/STM32F4xx_StdPeriph_Driver/src/stm32f4xx_flash.c ****         (++) Clear flags
  48:Libraries/STM32F4xx_StdPeriph_Driver/src/stm32f4xx_flash.c ****         (++) Get FLASH operation status
  49:Libraries/STM32F4xx_StdPeriph_Driver/src/stm32f4xx_flash.c ****         (++) Wait for last FLASH operation   
  50:Libraries/STM32F4xx_StdPeriph_Driver/src/stm32f4xx_flash.c ****  @endverbatim
  51:Libraries/STM32F4xx_StdPeriph_Driver/src/stm32f4xx_flash.c ****   ******************************************************************************
  52:Libraries/STM32F4xx_StdPeriph_Driver/src/stm32f4xx_flash.c ****   * @attention
  53:Libraries/STM32F4xx_StdPeriph_Driver/src/stm32f4xx_flash.c ****   *
  54:Libraries/STM32F4xx_StdPeriph_Driver/src/stm32f4xx_flash.c ****   * <h2><center>&copy; COPYRIGHT 2015 STMicroelectronics</center></h2>
  55:Libraries/STM32F4xx_StdPeriph_Driver/src/stm32f4xx_flash.c ****   *
  56:Libraries/STM32F4xx_StdPeriph_Driver/src/stm32f4xx_flash.c ****   * Licensed under MCD-ST Liberty SW License Agreement V2, (the "License");
  57:Libraries/STM32F4xx_StdPeriph_Driver/src/stm32f4xx_flash.c ****   * You may not use this file except in compliance with the License.
  58:Libraries/STM32F4xx_StdPeriph_Driver/src/stm32f4xx_flash.c ****   * You may obtain a copy of the License at:
  59:Libraries/STM32F4xx_StdPeriph_Driver/src/stm32f4xx_flash.c ****   *
  60:Libraries/STM32F4xx_StdPeriph_Driver/src/stm32f4xx_flash.c ****   *        http://www.st.com/software_license_agreement_liberty_v2
  61:Libraries/STM32F4xx_StdPeriph_Driver/src/stm32f4xx_flash.c ****   *
  62:Libraries/STM32F4xx_StdPeriph_Driver/src/stm32f4xx_flash.c ****   * Unless required by applicable law or agreed to in writing, software 
  63:Libraries/STM32F4xx_StdPeriph_Driver/src/stm32f4xx_flash.c ****   * distributed under the License is distributed on an "AS IS" BASIS, 
  64:Libraries/STM32F4xx_StdPeriph_Driver/src/stm32f4xx_flash.c ****   * WITHOUT WARRANTIES OR CONDITIONS OF ANY KIND, either express or implied.
  65:Libraries/STM32F4xx_StdPeriph_Driver/src/stm32f4xx_flash.c ****   * See the License for the specific language governing permissions and
  66:Libraries/STM32F4xx_StdPeriph_Driver/src/stm32f4xx_flash.c ****   * limitations under the License.
  67:Libraries/STM32F4xx_StdPeriph_Driver/src/stm32f4xx_flash.c ****   *
  68:Libraries/STM32F4xx_StdPeriph_Driver/src/stm32f4xx_flash.c ****   ******************************************************************************
  69:Libraries/STM32F4xx_StdPeriph_Driver/src/stm32f4xx_flash.c ****   */
  70:Libraries/STM32F4xx_StdPeriph_Driver/src/stm32f4xx_flash.c **** 
  71:Libraries/STM32F4xx_StdPeriph_Driver/src/stm32f4xx_flash.c **** /* Includes ------------------------------------------------------------------*/
  72:Libraries/STM32F4xx_StdPeriph_Driver/src/stm32f4xx_flash.c **** #include "stm32f4xx_flash.h"
  73:Libraries/STM32F4xx_StdPeriph_Driver/src/stm32f4xx_flash.c **** 
  74:Libraries/STM32F4xx_StdPeriph_Driver/src/stm32f4xx_flash.c **** /** @addtogroup STM32F4xx_StdPeriph_Driver
  75:Libraries/STM32F4xx_StdPeriph_Driver/src/stm32f4xx_flash.c ****   * @{
  76:Libraries/STM32F4xx_StdPeriph_Driver/src/stm32f4xx_flash.c ****   */
  77:Libraries/STM32F4xx_StdPeriph_Driver/src/stm32f4xx_flash.c **** 
  78:Libraries/STM32F4xx_StdPeriph_Driver/src/stm32f4xx_flash.c **** /** @defgroup FLASH 
  79:Libraries/STM32F4xx_StdPeriph_Driver/src/stm32f4xx_flash.c ****   * @brief FLASH driver modules
  80:Libraries/STM32F4xx_StdPeriph_Driver/src/stm32f4xx_flash.c ****   * @{
  81:Libraries/STM32F4xx_StdPeriph_Driver/src/stm32f4xx_flash.c ****   */ 
  82:Libraries/STM32F4xx_StdPeriph_Driver/src/stm32f4xx_flash.c **** 
  83:Libraries/STM32F4xx_StdPeriph_Driver/src/stm32f4xx_flash.c **** /* Private typedef -----------------------------------------------------------*/
  84:Libraries/STM32F4xx_StdPeriph_Driver/src/stm32f4xx_flash.c **** /* Private define ------------------------------------------------------------*/ 
  85:Libraries/STM32F4xx_StdPeriph_Driver/src/stm32f4xx_flash.c **** #define SECTOR_MASK               ((uint32_t)0xFFFFFF07)
  86:Libraries/STM32F4xx_StdPeriph_Driver/src/stm32f4xx_flash.c **** 
  87:Libraries/STM32F4xx_StdPeriph_Driver/src/stm32f4xx_flash.c **** /* Private macro -------------------------------------------------------------*/
  88:Libraries/STM32F4xx_StdPeriph_Driver/src/stm32f4xx_flash.c **** /* Private variables ---------------------------------------------------------*/
  89:Libraries/STM32F4xx_StdPeriph_Driver/src/stm32f4xx_flash.c **** /* Private function prototypes -----------------------------------------------*/
  90:Libraries/STM32F4xx_StdPeriph_Driver/src/stm32f4xx_flash.c **** /* Private functions ---------------------------------------------------------*/
  91:Libraries/STM32F4xx_StdPeriph_Driver/src/stm32f4xx_flash.c **** 
  92:Libraries/STM32F4xx_StdPeriph_Driver/src/stm32f4xx_flash.c **** /** @defgroup FLASH_Private_Functions
  93:Libraries/STM32F4xx_StdPeriph_Driver/src/stm32f4xx_flash.c ****   * @{
  94:Libraries/STM32F4xx_StdPeriph_Driver/src/stm32f4xx_flash.c ****   */ 
  95:Libraries/STM32F4xx_StdPeriph_Driver/src/stm32f4xx_flash.c **** 
  96:Libraries/STM32F4xx_StdPeriph_Driver/src/stm32f4xx_flash.c **** /** @defgroup FLASH_Group1 FLASH Interface configuration functions
  97:Libraries/STM32F4xx_StdPeriph_Driver/src/stm32f4xx_flash.c ****   *  @brief   FLASH Interface configuration functions 
  98:Libraries/STM32F4xx_StdPeriph_Driver/src/stm32f4xx_flash.c ****  *
  99:Libraries/STM32F4xx_StdPeriph_Driver/src/stm32f4xx_flash.c **** 
 100:Libraries/STM32F4xx_StdPeriph_Driver/src/stm32f4xx_flash.c **** @verbatim   
 101:Libraries/STM32F4xx_StdPeriph_Driver/src/stm32f4xx_flash.c ****  ===============================================================================
 102:Libraries/STM32F4xx_StdPeriph_Driver/src/stm32f4xx_flash.c ****               ##### FLASH Interface configuration functions #####
 103:Libraries/STM32F4xx_StdPeriph_Driver/src/stm32f4xx_flash.c ****  ===============================================================================
 104:Libraries/STM32F4xx_StdPeriph_Driver/src/stm32f4xx_flash.c ****     [..]
 105:Libraries/STM32F4xx_StdPeriph_Driver/src/stm32f4xx_flash.c ****       This group includes the following functions:
 106:Libraries/STM32F4xx_StdPeriph_Driver/src/stm32f4xx_flash.c ****       (+) void FLASH_SetLatency(uint32_t FLASH_Latency)
 107:Libraries/STM32F4xx_StdPeriph_Driver/src/stm32f4xx_flash.c ****           To correctly read data from FLASH memory, the number of wait states (LATENCY) 
 108:Libraries/STM32F4xx_StdPeriph_Driver/src/stm32f4xx_flash.c ****           must be correctly programmed according to the frequency of the CPU clock 
 109:Libraries/STM32F4xx_StdPeriph_Driver/src/stm32f4xx_flash.c ****           (HCLK) and the supply voltage of the device.
 110:Libraries/STM32F4xx_StdPeriph_Driver/src/stm32f4xx_flash.c ****     [..]      
 111:Libraries/STM32F4xx_StdPeriph_Driver/src/stm32f4xx_flash.c ****       For STM32F405xx/07xx and STM32F415xx/17xx devices
 112:Libraries/STM32F4xx_StdPeriph_Driver/src/stm32f4xx_flash.c ****  +-------------------------------------------------------------------------------------+
 113:Libraries/STM32F4xx_StdPeriph_Driver/src/stm32f4xx_flash.c ****  | Latency       |                HCLK clock frequency (MHz)                           |
 114:Libraries/STM32F4xx_StdPeriph_Driver/src/stm32f4xx_flash.c ****  |               |---------------------------------------------------------------------|
 115:Libraries/STM32F4xx_StdPeriph_Driver/src/stm32f4xx_flash.c ****  |               | voltage range  | voltage range  | voltage range   | voltage range   |
 116:Libraries/STM32F4xx_StdPeriph_Driver/src/stm32f4xx_flash.c ****  |               | 2.7 V - 3.6 V  | 2.4 V - 2.7 V  | 2.1 V - 2.4 V   | 1.8 V - 2.1 V   |
 117:Libraries/STM32F4xx_StdPeriph_Driver/src/stm32f4xx_flash.c ****  |---------------|----------------|----------------|-----------------|-----------------|
 118:Libraries/STM32F4xx_StdPeriph_Driver/src/stm32f4xx_flash.c ****  |0WS(1CPU cycle)|0 < HCLK <= 30  |0 < HCLK <= 24  |0 < HCLK <= 22   |0 < HCLK <= 20   |
 119:Libraries/STM32F4xx_StdPeriph_Driver/src/stm32f4xx_flash.c ****  |---------------|----------------|----------------|-----------------|-----------------|
 120:Libraries/STM32F4xx_StdPeriph_Driver/src/stm32f4xx_flash.c ****  |1WS(2CPU cycle)|30 < HCLK <= 60 |24 < HCLK <= 48 |22 < HCLK <= 44  |20 < HCLK <= 40  |
 121:Libraries/STM32F4xx_StdPeriph_Driver/src/stm32f4xx_flash.c ****  |---------------|----------------|----------------|-----------------|-----------------|
 122:Libraries/STM32F4xx_StdPeriph_Driver/src/stm32f4xx_flash.c ****  |2WS(3CPU cycle)|60 < HCLK <= 90 |48 < HCLK <= 72 |44 < HCLK <= 66  |40 < HCLK <= 60  |
 123:Libraries/STM32F4xx_StdPeriph_Driver/src/stm32f4xx_flash.c ****  |---------------|----------------|----------------|-----------------|-----------------|
 124:Libraries/STM32F4xx_StdPeriph_Driver/src/stm32f4xx_flash.c ****  |3WS(4CPU cycle)|90 < HCLK <= 120|72 < HCLK <= 96 |66 < HCLK <= 88  |60 < HCLK <= 80  |
 125:Libraries/STM32F4xx_StdPeriph_Driver/src/stm32f4xx_flash.c ****  |---------------|----------------|----------------|-----------------|-----------------|
 126:Libraries/STM32F4xx_StdPeriph_Driver/src/stm32f4xx_flash.c ****  |4WS(5CPU cycle)|120< HCLK <= 150|96 < HCLK <= 120|88 < HCLK <= 110 |80 < HCLK <= 100 |
 127:Libraries/STM32F4xx_StdPeriph_Driver/src/stm32f4xx_flash.c ****  |---------------|----------------|----------------|-----------------|-----------------|
 128:Libraries/STM32F4xx_StdPeriph_Driver/src/stm32f4xx_flash.c ****  |5WS(6CPU cycle)|150< HCLK <= 168|120< HCLK <= 144|110 < HCLK <= 132|100 < HCLK <= 120|
 129:Libraries/STM32F4xx_StdPeriph_Driver/src/stm32f4xx_flash.c ****  |---------------|----------------|----------------|-----------------|-----------------|
 130:Libraries/STM32F4xx_StdPeriph_Driver/src/stm32f4xx_flash.c ****  |6WS(7CPU cycle)|      NA        |144< HCLK <= 168|132 < HCLK <= 154|120 < HCLK <= 140|
 131:Libraries/STM32F4xx_StdPeriph_Driver/src/stm32f4xx_flash.c ****  |---------------|----------------|----------------|-----------------|-----------------|
 132:Libraries/STM32F4xx_StdPeriph_Driver/src/stm32f4xx_flash.c ****  |7WS(8CPU cycle)|      NA        |      NA        |154 < HCLK <= 168|140 < HCLK <= 160|
 133:Libraries/STM32F4xx_StdPeriph_Driver/src/stm32f4xx_flash.c ****  +---------------|----------------|----------------|-----------------|-----------------+
 134:Libraries/STM32F4xx_StdPeriph_Driver/src/stm32f4xx_flash.c **** 
 135:Libraries/STM32F4xx_StdPeriph_Driver/src/stm32f4xx_flash.c ****     [..]      
 136:Libraries/STM32F4xx_StdPeriph_Driver/src/stm32f4xx_flash.c ****       For STM32F42xxx/43xxx devices
 137:Libraries/STM32F4xx_StdPeriph_Driver/src/stm32f4xx_flash.c ****  +-------------------------------------------------------------------------------------+
 138:Libraries/STM32F4xx_StdPeriph_Driver/src/stm32f4xx_flash.c ****  | Latency       |                HCLK clock frequency (MHz)                           |
 139:Libraries/STM32F4xx_StdPeriph_Driver/src/stm32f4xx_flash.c ****  |               |---------------------------------------------------------------------|
 140:Libraries/STM32F4xx_StdPeriph_Driver/src/stm32f4xx_flash.c ****  |               | voltage range  | voltage range  | voltage range   | voltage range   |
 141:Libraries/STM32F4xx_StdPeriph_Driver/src/stm32f4xx_flash.c ****  |               | 2.7 V - 3.6 V  | 2.4 V - 2.7 V  | 2.1 V - 2.4 V   | 1.8 V - 2.1 V   |
 142:Libraries/STM32F4xx_StdPeriph_Driver/src/stm32f4xx_flash.c ****  |---------------|----------------|----------------|-----------------|-----------------|
 143:Libraries/STM32F4xx_StdPeriph_Driver/src/stm32f4xx_flash.c ****  |0WS(1CPU cycle)|0 < HCLK <= 30  |0 < HCLK <= 24  |0 < HCLK <= 22   |0 < HCLK <= 20   |
 144:Libraries/STM32F4xx_StdPeriph_Driver/src/stm32f4xx_flash.c ****  |---------------|----------------|----------------|-----------------|-----------------|
 145:Libraries/STM32F4xx_StdPeriph_Driver/src/stm32f4xx_flash.c ****  |1WS(2CPU cycle)|30 < HCLK <= 60 |24 < HCLK <= 48 |22 < HCLK <= 44  |20 < HCLK <= 40  |
 146:Libraries/STM32F4xx_StdPeriph_Driver/src/stm32f4xx_flash.c ****  |---------------|----------------|----------------|-----------------|-----------------|
 147:Libraries/STM32F4xx_StdPeriph_Driver/src/stm32f4xx_flash.c ****  |2WS(3CPU cycle)|60 < HCLK <= 90 |48 < HCLK <= 72 |44 < HCLK <= 66  |40 < HCLK <= 60  |
 148:Libraries/STM32F4xx_StdPeriph_Driver/src/stm32f4xx_flash.c ****  |---------------|----------------|----------------|-----------------|-----------------|
 149:Libraries/STM32F4xx_StdPeriph_Driver/src/stm32f4xx_flash.c ****  |3WS(4CPU cycle)|90 < HCLK <= 120|72 < HCLK <= 96 |66 < HCLK <= 88  |60 < HCLK <= 80  |
 150:Libraries/STM32F4xx_StdPeriph_Driver/src/stm32f4xx_flash.c ****  |---------------|----------------|----------------|-----------------|-----------------|
 151:Libraries/STM32F4xx_StdPeriph_Driver/src/stm32f4xx_flash.c ****  |4WS(5CPU cycle)|120< HCLK <= 150|96 < HCLK <= 120|88 < HCLK <= 110 |80 < HCLK <= 100 |
 152:Libraries/STM32F4xx_StdPeriph_Driver/src/stm32f4xx_flash.c ****  |---------------|----------------|----------------|-----------------|-----------------|
 153:Libraries/STM32F4xx_StdPeriph_Driver/src/stm32f4xx_flash.c ****  |5WS(6CPU cycle)|120< HCLK <= 180|120< HCLK <= 144|110 < HCLK <= 132|100 < HCLK <= 120|
 154:Libraries/STM32F4xx_StdPeriph_Driver/src/stm32f4xx_flash.c ****  |---------------|----------------|----------------|-----------------|-----------------|
 155:Libraries/STM32F4xx_StdPeriph_Driver/src/stm32f4xx_flash.c ****  |6WS(7CPU cycle)|      NA        |144< HCLK <= 168|132 < HCLK <= 154|120 < HCLK <= 140|
 156:Libraries/STM32F4xx_StdPeriph_Driver/src/stm32f4xx_flash.c ****  |---------------|----------------|----------------|-----------------|-----------------|
 157:Libraries/STM32F4xx_StdPeriph_Driver/src/stm32f4xx_flash.c ****  |7WS(8CPU cycle)|      NA        |168< HCLK <= 180|154 < HCLK <= 176|140 < HCLK <= 160|
 158:Libraries/STM32F4xx_StdPeriph_Driver/src/stm32f4xx_flash.c ****  |---------------|----------------|----------------|-----------------|-----------------|
 159:Libraries/STM32F4xx_StdPeriph_Driver/src/stm32f4xx_flash.c ****  |8WS(9CPU cycle)|      NA        |      NA        |176 < HCLK <= 180|160 < HCLK <= 168|
 160:Libraries/STM32F4xx_StdPeriph_Driver/src/stm32f4xx_flash.c ****  +-------------------------------------------------------------------------------------+
 161:Libraries/STM32F4xx_StdPeriph_Driver/src/stm32f4xx_flash.c ****    
 162:Libraries/STM32F4xx_StdPeriph_Driver/src/stm32f4xx_flash.c ****     [..]
 163:Libraries/STM32F4xx_StdPeriph_Driver/src/stm32f4xx_flash.c ****     For STM32F401x devices
 164:Libraries/STM32F4xx_StdPeriph_Driver/src/stm32f4xx_flash.c ****  +-------------------------------------------------------------------------------------+
 165:Libraries/STM32F4xx_StdPeriph_Driver/src/stm32f4xx_flash.c ****  | Latency       |                HCLK clock frequency (MHz)                           |
 166:Libraries/STM32F4xx_StdPeriph_Driver/src/stm32f4xx_flash.c ****  |               |---------------------------------------------------------------------|
 167:Libraries/STM32F4xx_StdPeriph_Driver/src/stm32f4xx_flash.c ****  |               | voltage range  | voltage range  | voltage range   | voltage range   |
 168:Libraries/STM32F4xx_StdPeriph_Driver/src/stm32f4xx_flash.c ****  |               | 2.7 V - 3.6 V  | 2.4 V - 2.7 V  | 2.1 V - 2.4 V   | 1.8 V - 2.1 V   |
 169:Libraries/STM32F4xx_StdPeriph_Driver/src/stm32f4xx_flash.c ****  |---------------|----------------|----------------|-----------------|-----------------|
 170:Libraries/STM32F4xx_StdPeriph_Driver/src/stm32f4xx_flash.c ****  |0WS(1CPU cycle)|0 < HCLK <= 30  |0 < HCLK <= 24  |0 < HCLK <= 22   |0 < HCLK <= 20   |
 171:Libraries/STM32F4xx_StdPeriph_Driver/src/stm32f4xx_flash.c ****  |---------------|----------------|----------------|-----------------|-----------------|
 172:Libraries/STM32F4xx_StdPeriph_Driver/src/stm32f4xx_flash.c ****  |1WS(2CPU cycle)|30 < HCLK <= 60 |24 < HCLK <= 48 |22 < HCLK <= 44  |20 < HCLK <= 40  |
 173:Libraries/STM32F4xx_StdPeriph_Driver/src/stm32f4xx_flash.c ****  |---------------|----------------|----------------|-----------------|-----------------|
 174:Libraries/STM32F4xx_StdPeriph_Driver/src/stm32f4xx_flash.c ****  |2WS(3CPU cycle)|60 < HCLK <= 84 |48 < HCLK <= 72 |44 < HCLK <= 66  |40 < HCLK <= 60  |
 175:Libraries/STM32F4xx_StdPeriph_Driver/src/stm32f4xx_flash.c ****  |---------------|----------------|----------------|-----------------|-----------------|
 176:Libraries/STM32F4xx_StdPeriph_Driver/src/stm32f4xx_flash.c ****  |3WS(4CPU cycle)|      NA        |72 < HCLK <= 84 |66 < HCLK <= 84  |60 < HCLK <= 80  |
 177:Libraries/STM32F4xx_StdPeriph_Driver/src/stm32f4xx_flash.c ****  |---------------|----------------|----------------|-----------------|-----------------|
 178:Libraries/STM32F4xx_StdPeriph_Driver/src/stm32f4xx_flash.c ****  |4WS(5CPU cycle)|      NA        |      NA        |      NA         |80 < HCLK <= 84  |
 179:Libraries/STM32F4xx_StdPeriph_Driver/src/stm32f4xx_flash.c ****  +-------------------------------------------------------------------------------------+
 180:Libraries/STM32F4xx_StdPeriph_Driver/src/stm32f4xx_flash.c **** 
 181:Libraries/STM32F4xx_StdPeriph_Driver/src/stm32f4xx_flash.c ****     [..]
 182:Libraries/STM32F4xx_StdPeriph_Driver/src/stm32f4xx_flash.c ****     For STM32F411xE devices
 183:Libraries/STM32F4xx_StdPeriph_Driver/src/stm32f4xx_flash.c ****  +-------------------------------------------------------------------------------------+
 184:Libraries/STM32F4xx_StdPeriph_Driver/src/stm32f4xx_flash.c ****  | Latency       |                HCLK clock frequency (MHz)                           |
 185:Libraries/STM32F4xx_StdPeriph_Driver/src/stm32f4xx_flash.c ****  |               |---------------------------------------------------------------------|
 186:Libraries/STM32F4xx_StdPeriph_Driver/src/stm32f4xx_flash.c ****  |               | voltage range  | voltage range  | voltage range   | voltage range   |
 187:Libraries/STM32F4xx_StdPeriph_Driver/src/stm32f4xx_flash.c ****  |               | 2.7 V - 3.6 V  | 2.4 V - 2.7 V  | 2.1 V - 2.4 V   | 1.8 V - 2.1 V   |
 188:Libraries/STM32F4xx_StdPeriph_Driver/src/stm32f4xx_flash.c ****  |---------------|----------------|----------------|-----------------|-----------------|
 189:Libraries/STM32F4xx_StdPeriph_Driver/src/stm32f4xx_flash.c ****  |0WS(1CPU cycle)|0 < HCLK <= 30  |0 < HCLK <= 24  |0 < HCLK <= 18   |0 < HCLK <= 16   |
 190:Libraries/STM32F4xx_StdPeriph_Driver/src/stm32f4xx_flash.c ****  |---------------|----------------|----------------|-----------------|-----------------|
 191:Libraries/STM32F4xx_StdPeriph_Driver/src/stm32f4xx_flash.c ****  |1WS(2CPU cycle)|30 < HCLK <= 64 |24 < HCLK <= 48 |18 < HCLK <= 36  |16 < HCLK <= 32  |
 192:Libraries/STM32F4xx_StdPeriph_Driver/src/stm32f4xx_flash.c ****  |---------------|----------------|----------------|-----------------|-----------------|
 193:Libraries/STM32F4xx_StdPeriph_Driver/src/stm32f4xx_flash.c ****  |2WS(3CPU cycle)|64 < HCLK <= 90 |48 < HCLK <= 72 |36 < HCLK <= 54  |32 < HCLK <= 48  |
 194:Libraries/STM32F4xx_StdPeriph_Driver/src/stm32f4xx_flash.c ****  |---------------|----------------|----------------|-----------------|-----------------|
 195:Libraries/STM32F4xx_StdPeriph_Driver/src/stm32f4xx_flash.c ****  |3WS(4CPU cycle)|90 < HCLK <= 100|72 < HCLK <= 96 |54 < HCLK <= 72  |48 < HCLK <= 64  |
 196:Libraries/STM32F4xx_StdPeriph_Driver/src/stm32f4xx_flash.c ****  |---------------|----------------|----------------|-----------------|-----------------|
 197:Libraries/STM32F4xx_StdPeriph_Driver/src/stm32f4xx_flash.c ****  |4WS(5CPU cycle)|      NA        |96 < HCLK <= 100|72 < HCLK <= 90  |64 < HCLK <= 80  |
 198:Libraries/STM32F4xx_StdPeriph_Driver/src/stm32f4xx_flash.c ****  |---------------|----------------|----------------|-----------------|-----------------|
 199:Libraries/STM32F4xx_StdPeriph_Driver/src/stm32f4xx_flash.c ****  |5WS(6CPU cycle)|      NA        |       NA       |90 < HCLK <= 100 |80 < HCLK <= 96  |
 200:Libraries/STM32F4xx_StdPeriph_Driver/src/stm32f4xx_flash.c ****  |---------------|----------------|----------------|-----------------|-----------------|
 201:Libraries/STM32F4xx_StdPeriph_Driver/src/stm32f4xx_flash.c ****  |6WS(7CPU cycle)|      NA        |       NA       |        NA       |96 < HCLK <= 100 |
 202:Libraries/STM32F4xx_StdPeriph_Driver/src/stm32f4xx_flash.c ****  +-------------------------------------------------------------------------------------+
 203:Libraries/STM32F4xx_StdPeriph_Driver/src/stm32f4xx_flash.c ****  
 204:Libraries/STM32F4xx_StdPeriph_Driver/src/stm32f4xx_flash.c ****  [..]
 205:Libraries/STM32F4xx_StdPeriph_Driver/src/stm32f4xx_flash.c ****  +-------------------------------------------------------------------------------------------------
 206:Libraries/STM32F4xx_StdPeriph_Driver/src/stm32f4xx_flash.c ****  |               | voltage range  | voltage range  | voltage range   | voltage range   | voltage ra
 207:Libraries/STM32F4xx_StdPeriph_Driver/src/stm32f4xx_flash.c ****  |               | 2.7 V - 3.6 V  | 2.4 V - 2.7 V  | 2.1 V - 2.4 V   | 1.8 V - 2.1 V   | with Exter
 208:Libraries/STM32F4xx_StdPeriph_Driver/src/stm32f4xx_flash.c ****  |---------------|----------------|----------------|-----------------|-----------------|-----------
 209:Libraries/STM32F4xx_StdPeriph_Driver/src/stm32f4xx_flash.c ****  |Max Parallelism|      x32       |               x16                |       x8        |          x
 210:Libraries/STM32F4xx_StdPeriph_Driver/src/stm32f4xx_flash.c ****  |---------------|----------------|----------------|-----------------|-----------------|-----------
 211:Libraries/STM32F4xx_StdPeriph_Driver/src/stm32f4xx_flash.c ****  |PSIZE[1:0]     |      10        |               01                 |       00        |           
 212:Libraries/STM32F4xx_StdPeriph_Driver/src/stm32f4xx_flash.c ****  +-------------------------------------------------------------------------------------------------
 213:Libraries/STM32F4xx_StdPeriph_Driver/src/stm32f4xx_flash.c **** 
 214:Libraries/STM32F4xx_StdPeriph_Driver/src/stm32f4xx_flash.c ****       -@- On STM32F405xx/407xx and STM32F415xx/417xx devices: 
 215:Libraries/STM32F4xx_StdPeriph_Driver/src/stm32f4xx_flash.c ****            (++) when VOS = '0' Scale 2 mode, the maximum value of fHCLK = 144MHz. 
 216:Libraries/STM32F4xx_StdPeriph_Driver/src/stm32f4xx_flash.c ****            (++) when VOS = '1' Scale 1 mode, the maximum value of fHCLK = 168MHz. 
 217:Libraries/STM32F4xx_StdPeriph_Driver/src/stm32f4xx_flash.c ****           [..] 
 218:Libraries/STM32F4xx_StdPeriph_Driver/src/stm32f4xx_flash.c ****           On STM32F42xxx/43xxx devices:
 219:Libraries/STM32F4xx_StdPeriph_Driver/src/stm32f4xx_flash.c ****            (++) when VOS[1:0] = '0x01' Scale 3 mode, the maximum value of fHCLK is 120MHz.
 220:Libraries/STM32F4xx_StdPeriph_Driver/src/stm32f4xx_flash.c ****            (++) when VOS[1:0] = '0x10' Scale 2 mode, the maximum value of fHCLK is 144MHz if OverDr
 221:Libraries/STM32F4xx_StdPeriph_Driver/src/stm32f4xx_flash.c ****            (++) when VOS[1:0] = '0x11' Scale 1 mode, the maximum value of fHCLK is 168MHz if OverDr
 222:Libraries/STM32F4xx_StdPeriph_Driver/src/stm32f4xx_flash.c ****           [..]
 223:Libraries/STM32F4xx_StdPeriph_Driver/src/stm32f4xx_flash.c ****           On STM32F401x devices:
 224:Libraries/STM32F4xx_StdPeriph_Driver/src/stm32f4xx_flash.c ****            (++) when VOS[1:0] = '0x01' Scale 3 mode, the maximum value of fHCLK is 60MHz.
 225:Libraries/STM32F4xx_StdPeriph_Driver/src/stm32f4xx_flash.c ****            (++) when VOS[1:0] = '0x10' Scale 2 mode, the maximum value of fHCLK is 84MHz.
 226:Libraries/STM32F4xx_StdPeriph_Driver/src/stm32f4xx_flash.c ****           [..]  
 227:Libraries/STM32F4xx_StdPeriph_Driver/src/stm32f4xx_flash.c ****           On STM32F411xE devices:
 228:Libraries/STM32F4xx_StdPeriph_Driver/src/stm32f4xx_flash.c ****            (++) when VOS[1:0] = '0x01' Scale 3 mode, the maximum value of fHCLK is 64MHz.
 229:Libraries/STM32F4xx_StdPeriph_Driver/src/stm32f4xx_flash.c ****            (++) when VOS[1:0] = '0x10' Scale 2 mode, the maximum value of fHCLK is 84MHz.
 230:Libraries/STM32F4xx_StdPeriph_Driver/src/stm32f4xx_flash.c ****            (++) when VOS[1:0] = '0x11' Scale 1 mode, the maximum value of fHCLK is 100MHz.
 231:Libraries/STM32F4xx_StdPeriph_Driver/src/stm32f4xx_flash.c **** 
 232:Libraries/STM32F4xx_StdPeriph_Driver/src/stm32f4xx_flash.c ****         For more details please refer product DataSheet 
 233:Libraries/STM32F4xx_StdPeriph_Driver/src/stm32f4xx_flash.c ****            You can use PWR_MainRegulatorModeConfig() function to control VOS bits.
 234:Libraries/STM32F4xx_StdPeriph_Driver/src/stm32f4xx_flash.c **** 
 235:Libraries/STM32F4xx_StdPeriph_Driver/src/stm32f4xx_flash.c ****       (+) void FLASH_PrefetchBufferCmd(FunctionalState NewState)
 236:Libraries/STM32F4xx_StdPeriph_Driver/src/stm32f4xx_flash.c ****       (+) void FLASH_InstructionCacheCmd(FunctionalState NewState)
 237:Libraries/STM32F4xx_StdPeriph_Driver/src/stm32f4xx_flash.c ****       (+) void FLASH_DataCacheCmd(FunctionalState NewState)
 238:Libraries/STM32F4xx_StdPeriph_Driver/src/stm32f4xx_flash.c ****       (+) void FLASH_InstructionCacheReset(void)
 239:Libraries/STM32F4xx_StdPeriph_Driver/src/stm32f4xx_flash.c ****       (+) void FLASH_DataCacheReset(void)
 240:Libraries/STM32F4xx_StdPeriph_Driver/src/stm32f4xx_flash.c ****       
 241:Libraries/STM32F4xx_StdPeriph_Driver/src/stm32f4xx_flash.c ****     [..]   
 242:Libraries/STM32F4xx_StdPeriph_Driver/src/stm32f4xx_flash.c ****       The unlock sequence is not needed for these functions.
 243:Libraries/STM32F4xx_StdPeriph_Driver/src/stm32f4xx_flash.c ****  
 244:Libraries/STM32F4xx_StdPeriph_Driver/src/stm32f4xx_flash.c **** @endverbatim
 245:Libraries/STM32F4xx_StdPeriph_Driver/src/stm32f4xx_flash.c ****   * @{
 246:Libraries/STM32F4xx_StdPeriph_Driver/src/stm32f4xx_flash.c ****   */
 247:Libraries/STM32F4xx_StdPeriph_Driver/src/stm32f4xx_flash.c ****  
 248:Libraries/STM32F4xx_StdPeriph_Driver/src/stm32f4xx_flash.c **** /**
 249:Libraries/STM32F4xx_StdPeriph_Driver/src/stm32f4xx_flash.c ****   * @brief  Sets the code latency value.  
 250:Libraries/STM32F4xx_StdPeriph_Driver/src/stm32f4xx_flash.c ****   * @param  FLASH_Latency: specifies the FLASH Latency value.
 251:Libraries/STM32F4xx_StdPeriph_Driver/src/stm32f4xx_flash.c ****   *          This parameter can be one of the following values:
 252:Libraries/STM32F4xx_StdPeriph_Driver/src/stm32f4xx_flash.c ****   *            @arg FLASH_Latency_0: FLASH Zero Latency cycle
 253:Libraries/STM32F4xx_StdPeriph_Driver/src/stm32f4xx_flash.c ****   *            @arg FLASH_Latency_1: FLASH One Latency cycle
 254:Libraries/STM32F4xx_StdPeriph_Driver/src/stm32f4xx_flash.c ****   *            @arg FLASH_Latency_2: FLASH Two Latency cycles
 255:Libraries/STM32F4xx_StdPeriph_Driver/src/stm32f4xx_flash.c ****   *            @arg FLASH_Latency_3: FLASH Three Latency cycles
 256:Libraries/STM32F4xx_StdPeriph_Driver/src/stm32f4xx_flash.c ****   *            @arg FLASH_Latency_4: FLASH Four Latency cycles 
 257:Libraries/STM32F4xx_StdPeriph_Driver/src/stm32f4xx_flash.c ****   *            @arg FLASH_Latency_5: FLASH Five Latency cycles 
 258:Libraries/STM32F4xx_StdPeriph_Driver/src/stm32f4xx_flash.c ****   *            @arg FLASH_Latency_6: FLASH Six Latency cycles
 259:Libraries/STM32F4xx_StdPeriph_Driver/src/stm32f4xx_flash.c ****   *            @arg FLASH_Latency_7: FLASH Seven Latency cycles 
 260:Libraries/STM32F4xx_StdPeriph_Driver/src/stm32f4xx_flash.c ****   *            @arg FLASH_Latency_8: FLASH Eight Latency cycles
 261:Libraries/STM32F4xx_StdPeriph_Driver/src/stm32f4xx_flash.c ****   *            @arg FLASH_Latency_9: FLASH Nine Latency cycles
 262:Libraries/STM32F4xx_StdPeriph_Driver/src/stm32f4xx_flash.c ****   *            @arg FLASH_Latency_10: FLASH Teen Latency cycles 
 263:Libraries/STM32F4xx_StdPeriph_Driver/src/stm32f4xx_flash.c ****   *            @arg FLASH_Latency_11: FLASH Eleven Latency cycles 
 264:Libraries/STM32F4xx_StdPeriph_Driver/src/stm32f4xx_flash.c ****   *            @arg FLASH_Latency_12: FLASH Twelve Latency cycles
 265:Libraries/STM32F4xx_StdPeriph_Driver/src/stm32f4xx_flash.c ****   *            @arg FLASH_Latency_13: FLASH Thirteen Latency cycles
 266:Libraries/STM32F4xx_StdPeriph_Driver/src/stm32f4xx_flash.c ****   *            @arg FLASH_Latency_14: FLASH Fourteen Latency cycles
 267:Libraries/STM32F4xx_StdPeriph_Driver/src/stm32f4xx_flash.c ****   *            @arg FLASH_Latency_15: FLASH Fifteen Latency cycles 
 268:Libraries/STM32F4xx_StdPeriph_Driver/src/stm32f4xx_flash.c ****   *              
 269:Libraries/STM32F4xx_StdPeriph_Driver/src/stm32f4xx_flash.c ****   * @note For STM32F405xx/407xx, STM32F415xx/417xx and STM32F401xx/411xE devices this parameter
 270:Libraries/STM32F4xx_StdPeriph_Driver/src/stm32f4xx_flash.c ****   *       can be a value between FLASH_Latency_0 and FLASH_Latency_7.
 271:Libraries/STM32F4xx_StdPeriph_Driver/src/stm32f4xx_flash.c ****   *
 272:Libraries/STM32F4xx_StdPeriph_Driver/src/stm32f4xx_flash.c ****   * @note For STM32F42xxx/43xxx devices this parameter can be a value between 
 273:Libraries/STM32F4xx_StdPeriph_Driver/src/stm32f4xx_flash.c ****   *       FLASH_Latency_0 and FLASH_Latency_15. 
 274:Libraries/STM32F4xx_StdPeriph_Driver/src/stm32f4xx_flash.c ****   *         
 275:Libraries/STM32F4xx_StdPeriph_Driver/src/stm32f4xx_flash.c ****   * @retval None
 276:Libraries/STM32F4xx_StdPeriph_Driver/src/stm32f4xx_flash.c ****   */
 277:Libraries/STM32F4xx_StdPeriph_Driver/src/stm32f4xx_flash.c **** void FLASH_SetLatency(uint32_t FLASH_Latency)
 278:Libraries/STM32F4xx_StdPeriph_Driver/src/stm32f4xx_flash.c **** {
  29              		.loc 1 278 0
  30              		.cfi_startproc
  31              		@ args = 0, pretend = 0, frame = 0
  32              		@ frame_needed = 0, uses_anonymous_args = 0
  33              	.LVL0:
 279:Libraries/STM32F4xx_StdPeriph_Driver/src/stm32f4xx_flash.c ****   /* Check the parameters */
 280:Libraries/STM32F4xx_StdPeriph_Driver/src/stm32f4xx_flash.c ****   assert_param(IS_FLASH_LATENCY(FLASH_Latency));
  34              		.loc 1 280 0
  35 0000 0F28     		cmp	r0, #15
 278:Libraries/STM32F4xx_StdPeriph_Driver/src/stm32f4xx_flash.c ****   /* Check the parameters */
  36              		.loc 1 278 0
  37 0002 10B5     		push	{r4, lr}
  38              	.LCFI0:
  39              		.cfi_def_cfa_offset 8
  40              		.cfi_offset 4, -8
  41              		.cfi_offset 14, -4
 278:Libraries/STM32F4xx_StdPeriph_Driver/src/stm32f4xx_flash.c ****   /* Check the parameters */
  42              		.loc 1 278 0
  43 0004 0446     		mov	r4, r0
  44              		.loc 1 280 0
  45 0006 07D9     		bls	.L2
  46              		.loc 1 280 0 is_stmt 0 discriminator 1
  47 0008 40F20000 		movw	r0, #:lower16:.LC0
  48              	.LVL1:
  49 000c C0F20000 		movt	r0, #:upper16:.LC0
  50 0010 4FF48C71 		mov	r1, #280
  51 0014 FFF7FEFF 		bl	assert_failed
  52              	.LVL2:
  53              	.L2:
 281:Libraries/STM32F4xx_StdPeriph_Driver/src/stm32f4xx_flash.c ****   
 282:Libraries/STM32F4xx_StdPeriph_Driver/src/stm32f4xx_flash.c ****   /* Perform Byte access to FLASH_ACR[8:0] to set the Latency value */
 283:Libraries/STM32F4xx_StdPeriph_Driver/src/stm32f4xx_flash.c ****   *(__IO uint8_t *)ACR_BYTE0_ADDRESS = (uint8_t)FLASH_Latency;
  54              		.loc 1 283 0 is_stmt 1
  55 0018 4FF47053 		mov	r3, #15360
  56 001c C4F20203 		movt	r3, 16386
  57 0020 E4B2     		uxtb	r4, r4
  58              	.LVL3:
  59 0022 1C70     		strb	r4, [r3]
  60 0024 10BD     		pop	{r4, pc}
  61              		.cfi_endproc
  62              	.LFE123:
  64 0026 00BF     		.section	.text.FLASH_PrefetchBufferCmd,"ax",%progbits
  65              		.align	2
  66              		.global	FLASH_PrefetchBufferCmd
  67              		.thumb
  68              		.thumb_func
  70              	FLASH_PrefetchBufferCmd:
  71              	.LFB124:
 284:Libraries/STM32F4xx_StdPeriph_Driver/src/stm32f4xx_flash.c **** }
 285:Libraries/STM32F4xx_StdPeriph_Driver/src/stm32f4xx_flash.c **** 
 286:Libraries/STM32F4xx_StdPeriph_Driver/src/stm32f4xx_flash.c **** /**
 287:Libraries/STM32F4xx_StdPeriph_Driver/src/stm32f4xx_flash.c ****   * @brief  Enables or disables the Prefetch Buffer.
 288:Libraries/STM32F4xx_StdPeriph_Driver/src/stm32f4xx_flash.c ****   * @param  NewState: new state of the Prefetch Buffer.
 289:Libraries/STM32F4xx_StdPeriph_Driver/src/stm32f4xx_flash.c ****   *          This parameter  can be: ENABLE or DISABLE.
 290:Libraries/STM32F4xx_StdPeriph_Driver/src/stm32f4xx_flash.c ****   * @retval None
 291:Libraries/STM32F4xx_StdPeriph_Driver/src/stm32f4xx_flash.c ****   */
 292:Libraries/STM32F4xx_StdPeriph_Driver/src/stm32f4xx_flash.c **** void FLASH_PrefetchBufferCmd(FunctionalState NewState)
 293:Libraries/STM32F4xx_StdPeriph_Driver/src/stm32f4xx_flash.c **** {
  72              		.loc 1 293 0
  73              		.cfi_startproc
  74              		@ args = 0, pretend = 0, frame = 0
  75              		@ frame_needed = 0, uses_anonymous_args = 0
  76              	.LVL4:
 294:Libraries/STM32F4xx_StdPeriph_Driver/src/stm32f4xx_flash.c ****   /* Check the parameters */
 295:Libraries/STM32F4xx_StdPeriph_Driver/src/stm32f4xx_flash.c ****   assert_param(IS_FUNCTIONAL_STATE(NewState));
  77              		.loc 1 295 0
  78 0000 0128     		cmp	r0, #1
 293:Libraries/STM32F4xx_StdPeriph_Driver/src/stm32f4xx_flash.c ****   /* Check the parameters */
  79              		.loc 1 293 0
  80 0002 08B5     		push	{r3, lr}
  81              	.LCFI1:
  82              		.cfi_def_cfa_offset 8
  83              		.cfi_offset 3, -8
  84              		.cfi_offset 14, -4
  85              		.loc 1 295 0
  86 0004 10D9     		bls	.L5
  87              		.loc 1 295 0 is_stmt 0 discriminator 1
  88 0006 40F20000 		movw	r0, #:lower16:.LC0
  89              	.LVL5:
  90 000a C0F20000 		movt	r0, #:upper16:.LC0
  91 000e 40F22711 		movw	r1, #295
  92 0012 FFF7FEFF 		bl	assert_failed
  93              	.LVL6:
  94              	.L6:
 296:Libraries/STM32F4xx_StdPeriph_Driver/src/stm32f4xx_flash.c ****   
 297:Libraries/STM32F4xx_StdPeriph_Driver/src/stm32f4xx_flash.c ****   /* Enable or disable the Prefetch Buffer */
 298:Libraries/STM32F4xx_StdPeriph_Driver/src/stm32f4xx_flash.c ****   if(NewState != DISABLE)
 299:Libraries/STM32F4xx_StdPeriph_Driver/src/stm32f4xx_flash.c ****   {
 300:Libraries/STM32F4xx_StdPeriph_Driver/src/stm32f4xx_flash.c ****     FLASH->ACR |= FLASH_ACR_PRFTEN;
  95              		.loc 1 300 0 is_stmt 1
  96 0016 4FF47053 		mov	r3, #15360
  97 001a C4F20203 		movt	r3, 16386
  98 001e 1A68     		ldr	r2, [r3]
  99 0020 42F48072 		orr	r2, r2, #256
 100 0024 1A60     		str	r2, [r3]
 101 0026 08BD     		pop	{r3, pc}
 102              	.LVL7:
 103              	.L5:
 298:Libraries/STM32F4xx_StdPeriph_Driver/src/stm32f4xx_flash.c ****   {
 104              		.loc 1 298 0
 105 0028 0028     		cmp	r0, #0
 106 002a F4D1     		bne	.L6
 301:Libraries/STM32F4xx_StdPeriph_Driver/src/stm32f4xx_flash.c ****   }
 302:Libraries/STM32F4xx_StdPeriph_Driver/src/stm32f4xx_flash.c ****   else
 303:Libraries/STM32F4xx_StdPeriph_Driver/src/stm32f4xx_flash.c ****   {
 304:Libraries/STM32F4xx_StdPeriph_Driver/src/stm32f4xx_flash.c ****     FLASH->ACR &= (~FLASH_ACR_PRFTEN);
 107              		.loc 1 304 0
 108 002c 4FF47053 		mov	r3, #15360
 109 0030 C4F20203 		movt	r3, 16386
 110 0034 1A68     		ldr	r2, [r3]
 111 0036 22F48072 		bic	r2, r2, #256
 112 003a 1A60     		str	r2, [r3]
 113 003c 08BD     		pop	{r3, pc}
 114              		.cfi_endproc
 115              	.LFE124:
 117 003e 00BF     		.section	.text.FLASH_InstructionCacheCmd,"ax",%progbits
 118              		.align	2
 119              		.global	FLASH_InstructionCacheCmd
 120              		.thumb
 121              		.thumb_func
 123              	FLASH_InstructionCacheCmd:
 124              	.LFB125:
 305:Libraries/STM32F4xx_StdPeriph_Driver/src/stm32f4xx_flash.c ****   }
 306:Libraries/STM32F4xx_StdPeriph_Driver/src/stm32f4xx_flash.c **** }
 307:Libraries/STM32F4xx_StdPeriph_Driver/src/stm32f4xx_flash.c **** 
 308:Libraries/STM32F4xx_StdPeriph_Driver/src/stm32f4xx_flash.c **** /**
 309:Libraries/STM32F4xx_StdPeriph_Driver/src/stm32f4xx_flash.c ****   * @brief  Enables or disables the Instruction Cache feature.
 310:Libraries/STM32F4xx_StdPeriph_Driver/src/stm32f4xx_flash.c ****   * @param  NewState: new state of the Instruction Cache.
 311:Libraries/STM32F4xx_StdPeriph_Driver/src/stm32f4xx_flash.c ****   *          This parameter  can be: ENABLE or DISABLE.
 312:Libraries/STM32F4xx_StdPeriph_Driver/src/stm32f4xx_flash.c ****   * @retval None
 313:Libraries/STM32F4xx_StdPeriph_Driver/src/stm32f4xx_flash.c ****   */
 314:Libraries/STM32F4xx_StdPeriph_Driver/src/stm32f4xx_flash.c **** void FLASH_InstructionCacheCmd(FunctionalState NewState)
 315:Libraries/STM32F4xx_StdPeriph_Driver/src/stm32f4xx_flash.c **** {
 125              		.loc 1 315 0
 126              		.cfi_startproc
 127              		@ args = 0, pretend = 0, frame = 0
 128              		@ frame_needed = 0, uses_anonymous_args = 0
 129              	.LVL8:
 316:Libraries/STM32F4xx_StdPeriph_Driver/src/stm32f4xx_flash.c ****   /* Check the parameters */
 317:Libraries/STM32F4xx_StdPeriph_Driver/src/stm32f4xx_flash.c ****   assert_param(IS_FUNCTIONAL_STATE(NewState));
 130              		.loc 1 317 0
 131 0000 0128     		cmp	r0, #1
 315:Libraries/STM32F4xx_StdPeriph_Driver/src/stm32f4xx_flash.c ****   /* Check the parameters */
 132              		.loc 1 315 0
 133 0002 08B5     		push	{r3, lr}
 134              	.LCFI2:
 135              		.cfi_def_cfa_offset 8
 136              		.cfi_offset 3, -8
 137              		.cfi_offset 14, -4
 138              		.loc 1 317 0
 139 0004 10D9     		bls	.L10
 140              		.loc 1 317 0 is_stmt 0 discriminator 1
 141 0006 40F20000 		movw	r0, #:lower16:.LC0
 142              	.LVL9:
 143 000a C0F20000 		movt	r0, #:upper16:.LC0
 144 000e 40F23D11 		movw	r1, #317
 145 0012 FFF7FEFF 		bl	assert_failed
 146              	.LVL10:
 147              	.L11:
 318:Libraries/STM32F4xx_StdPeriph_Driver/src/stm32f4xx_flash.c ****   
 319:Libraries/STM32F4xx_StdPeriph_Driver/src/stm32f4xx_flash.c ****   if(NewState != DISABLE)
 320:Libraries/STM32F4xx_StdPeriph_Driver/src/stm32f4xx_flash.c ****   {
 321:Libraries/STM32F4xx_StdPeriph_Driver/src/stm32f4xx_flash.c ****     FLASH->ACR |= FLASH_ACR_ICEN;
 148              		.loc 1 321 0 is_stmt 1
 149 0016 4FF47053 		mov	r3, #15360
 150 001a C4F20203 		movt	r3, 16386
 151 001e 1A68     		ldr	r2, [r3]
 152 0020 42F40072 		orr	r2, r2, #512
 153 0024 1A60     		str	r2, [r3]
 154 0026 08BD     		pop	{r3, pc}
 155              	.LVL11:
 156              	.L10:
 319:Libraries/STM32F4xx_StdPeriph_Driver/src/stm32f4xx_flash.c ****   {
 157              		.loc 1 319 0
 158 0028 0028     		cmp	r0, #0
 159 002a F4D1     		bne	.L11
 322:Libraries/STM32F4xx_StdPeriph_Driver/src/stm32f4xx_flash.c ****   }
 323:Libraries/STM32F4xx_StdPeriph_Driver/src/stm32f4xx_flash.c ****   else
 324:Libraries/STM32F4xx_StdPeriph_Driver/src/stm32f4xx_flash.c ****   {
 325:Libraries/STM32F4xx_StdPeriph_Driver/src/stm32f4xx_flash.c ****     FLASH->ACR &= (~FLASH_ACR_ICEN);
 160              		.loc 1 325 0
 161 002c 4FF47053 		mov	r3, #15360
 162 0030 C4F20203 		movt	r3, 16386
 163 0034 1A68     		ldr	r2, [r3]
 164 0036 22F40072 		bic	r2, r2, #512
 165 003a 1A60     		str	r2, [r3]
 166 003c 08BD     		pop	{r3, pc}
 167              		.cfi_endproc
 168              	.LFE125:
 170 003e 00BF     		.section	.text.FLASH_DataCacheCmd,"ax",%progbits
 171              		.align	2
 172              		.global	FLASH_DataCacheCmd
 173              		.thumb
 174              		.thumb_func
 176              	FLASH_DataCacheCmd:
 177              	.LFB126:
 326:Libraries/STM32F4xx_StdPeriph_Driver/src/stm32f4xx_flash.c ****   }
 327:Libraries/STM32F4xx_StdPeriph_Driver/src/stm32f4xx_flash.c **** }
 328:Libraries/STM32F4xx_StdPeriph_Driver/src/stm32f4xx_flash.c **** 
 329:Libraries/STM32F4xx_StdPeriph_Driver/src/stm32f4xx_flash.c **** /**
 330:Libraries/STM32F4xx_StdPeriph_Driver/src/stm32f4xx_flash.c ****   * @brief  Enables or disables the Data Cache feature.
 331:Libraries/STM32F4xx_StdPeriph_Driver/src/stm32f4xx_flash.c ****   * @param  NewState: new state of the Data Cache.
 332:Libraries/STM32F4xx_StdPeriph_Driver/src/stm32f4xx_flash.c ****   *          This parameter  can be: ENABLE or DISABLE.
 333:Libraries/STM32F4xx_StdPeriph_Driver/src/stm32f4xx_flash.c ****   * @retval None
 334:Libraries/STM32F4xx_StdPeriph_Driver/src/stm32f4xx_flash.c ****   */
 335:Libraries/STM32F4xx_StdPeriph_Driver/src/stm32f4xx_flash.c **** void FLASH_DataCacheCmd(FunctionalState NewState)
 336:Libraries/STM32F4xx_StdPeriph_Driver/src/stm32f4xx_flash.c **** {
 178              		.loc 1 336 0
 179              		.cfi_startproc
 180              		@ args = 0, pretend = 0, frame = 0
 181              		@ frame_needed = 0, uses_anonymous_args = 0
 182              	.LVL12:
 337:Libraries/STM32F4xx_StdPeriph_Driver/src/stm32f4xx_flash.c ****   /* Check the parameters */
 338:Libraries/STM32F4xx_StdPeriph_Driver/src/stm32f4xx_flash.c ****   assert_param(IS_FUNCTIONAL_STATE(NewState));
 183              		.loc 1 338 0
 184 0000 0128     		cmp	r0, #1
 336:Libraries/STM32F4xx_StdPeriph_Driver/src/stm32f4xx_flash.c ****   /* Check the parameters */
 185              		.loc 1 336 0
 186 0002 08B5     		push	{r3, lr}
 187              	.LCFI3:
 188              		.cfi_def_cfa_offset 8
 189              		.cfi_offset 3, -8
 190              		.cfi_offset 14, -4
 191              		.loc 1 338 0
 192 0004 10D9     		bls	.L15
 193              		.loc 1 338 0 is_stmt 0 discriminator 1
 194 0006 40F20000 		movw	r0, #:lower16:.LC0
 195              	.LVL13:
 196 000a C0F20000 		movt	r0, #:upper16:.LC0
 197 000e 4FF4A971 		mov	r1, #338
 198 0012 FFF7FEFF 		bl	assert_failed
 199              	.LVL14:
 200              	.L16:
 339:Libraries/STM32F4xx_StdPeriph_Driver/src/stm32f4xx_flash.c ****   
 340:Libraries/STM32F4xx_StdPeriph_Driver/src/stm32f4xx_flash.c ****   if(NewState != DISABLE)
 341:Libraries/STM32F4xx_StdPeriph_Driver/src/stm32f4xx_flash.c ****   {
 342:Libraries/STM32F4xx_StdPeriph_Driver/src/stm32f4xx_flash.c ****     FLASH->ACR |= FLASH_ACR_DCEN;
 201              		.loc 1 342 0 is_stmt 1
 202 0016 4FF47053 		mov	r3, #15360
 203 001a C4F20203 		movt	r3, 16386
 204 001e 1A68     		ldr	r2, [r3]
 205 0020 42F48062 		orr	r2, r2, #1024
 206 0024 1A60     		str	r2, [r3]
 207 0026 08BD     		pop	{r3, pc}
 208              	.LVL15:
 209              	.L15:
 340:Libraries/STM32F4xx_StdPeriph_Driver/src/stm32f4xx_flash.c ****   {
 210              		.loc 1 340 0
 211 0028 0028     		cmp	r0, #0
 212 002a F4D1     		bne	.L16
 343:Libraries/STM32F4xx_StdPeriph_Driver/src/stm32f4xx_flash.c ****   }
 344:Libraries/STM32F4xx_StdPeriph_Driver/src/stm32f4xx_flash.c ****   else
 345:Libraries/STM32F4xx_StdPeriph_Driver/src/stm32f4xx_flash.c ****   {
 346:Libraries/STM32F4xx_StdPeriph_Driver/src/stm32f4xx_flash.c ****     FLASH->ACR &= (~FLASH_ACR_DCEN);
 213              		.loc 1 346 0
 214 002c 4FF47053 		mov	r3, #15360
 215 0030 C4F20203 		movt	r3, 16386
 216 0034 1A68     		ldr	r2, [r3]
 217 0036 22F48062 		bic	r2, r2, #1024
 218 003a 1A60     		str	r2, [r3]
 219 003c 08BD     		pop	{r3, pc}
 220              		.cfi_endproc
 221              	.LFE126:
 223 003e 00BF     		.section	.text.FLASH_InstructionCacheReset,"ax",%progbits
 224              		.align	2
 225              		.global	FLASH_InstructionCacheReset
 226              		.thumb
 227              		.thumb_func
 229              	FLASH_InstructionCacheReset:
 230              	.LFB127:
 347:Libraries/STM32F4xx_StdPeriph_Driver/src/stm32f4xx_flash.c ****   }
 348:Libraries/STM32F4xx_StdPeriph_Driver/src/stm32f4xx_flash.c **** }
 349:Libraries/STM32F4xx_StdPeriph_Driver/src/stm32f4xx_flash.c **** 
 350:Libraries/STM32F4xx_StdPeriph_Driver/src/stm32f4xx_flash.c **** /**
 351:Libraries/STM32F4xx_StdPeriph_Driver/src/stm32f4xx_flash.c ****   * @brief  Resets the Instruction Cache.
 352:Libraries/STM32F4xx_StdPeriph_Driver/src/stm32f4xx_flash.c ****   * @note   This function must be used only when the Instruction Cache is disabled.  
 353:Libraries/STM32F4xx_StdPeriph_Driver/src/stm32f4xx_flash.c ****   * @param  None
 354:Libraries/STM32F4xx_StdPeriph_Driver/src/stm32f4xx_flash.c ****   * @retval None
 355:Libraries/STM32F4xx_StdPeriph_Driver/src/stm32f4xx_flash.c ****   */
 356:Libraries/STM32F4xx_StdPeriph_Driver/src/stm32f4xx_flash.c **** void FLASH_InstructionCacheReset(void)
 357:Libraries/STM32F4xx_StdPeriph_Driver/src/stm32f4xx_flash.c **** {
 231              		.loc 1 357 0
 232              		.cfi_startproc
 233              		@ args = 0, pretend = 0, frame = 0
 234              		@ frame_needed = 0, uses_anonymous_args = 0
 235              		@ link register save eliminated.
 358:Libraries/STM32F4xx_StdPeriph_Driver/src/stm32f4xx_flash.c ****   FLASH->ACR |= FLASH_ACR_ICRST;
 236              		.loc 1 358 0
 237 0000 4FF47053 		mov	r3, #15360
 238 0004 C4F20203 		movt	r3, 16386
 239 0008 1A68     		ldr	r2, [r3]
 240 000a 42F40062 		orr	r2, r2, #2048
 241 000e 1A60     		str	r2, [r3]
 242 0010 7047     		bx	lr
 243              		.cfi_endproc
 244              	.LFE127:
 246 0012 00BF     		.section	.text.FLASH_DataCacheReset,"ax",%progbits
 247              		.align	2
 248              		.global	FLASH_DataCacheReset
 249              		.thumb
 250              		.thumb_func
 252              	FLASH_DataCacheReset:
 253              	.LFB128:
 359:Libraries/STM32F4xx_StdPeriph_Driver/src/stm32f4xx_flash.c **** }
 360:Libraries/STM32F4xx_StdPeriph_Driver/src/stm32f4xx_flash.c **** 
 361:Libraries/STM32F4xx_StdPeriph_Driver/src/stm32f4xx_flash.c **** /**
 362:Libraries/STM32F4xx_StdPeriph_Driver/src/stm32f4xx_flash.c ****   * @brief  Resets the Data Cache.
 363:Libraries/STM32F4xx_StdPeriph_Driver/src/stm32f4xx_flash.c ****   * @note   This function must be used only when the Data Cache is disabled.  
 364:Libraries/STM32F4xx_StdPeriph_Driver/src/stm32f4xx_flash.c ****   * @param  None
 365:Libraries/STM32F4xx_StdPeriph_Driver/src/stm32f4xx_flash.c ****   * @retval None
 366:Libraries/STM32F4xx_StdPeriph_Driver/src/stm32f4xx_flash.c ****   */
 367:Libraries/STM32F4xx_StdPeriph_Driver/src/stm32f4xx_flash.c **** void FLASH_DataCacheReset(void)
 368:Libraries/STM32F4xx_StdPeriph_Driver/src/stm32f4xx_flash.c **** {
 254              		.loc 1 368 0
 255              		.cfi_startproc
 256              		@ args = 0, pretend = 0, frame = 0
 257              		@ frame_needed = 0, uses_anonymous_args = 0
 258              		@ link register save eliminated.
 369:Libraries/STM32F4xx_StdPeriph_Driver/src/stm32f4xx_flash.c ****   FLASH->ACR |= FLASH_ACR_DCRST;
 259              		.loc 1 369 0
 260 0000 4FF47053 		mov	r3, #15360
 261 0004 C4F20203 		movt	r3, 16386
 262 0008 1A68     		ldr	r2, [r3]
 263 000a 42F48052 		orr	r2, r2, #4096
 264 000e 1A60     		str	r2, [r3]
 265 0010 7047     		bx	lr
 266              		.cfi_endproc
 267              	.LFE128:
 269 0012 00BF     		.section	.text.FLASH_Unlock,"ax",%progbits
 270              		.align	2
 271              		.global	FLASH_Unlock
 272              		.thumb
 273              		.thumb_func
 275              	FLASH_Unlock:
 276              	.LFB129:
 370:Libraries/STM32F4xx_StdPeriph_Driver/src/stm32f4xx_flash.c **** }
 371:Libraries/STM32F4xx_StdPeriph_Driver/src/stm32f4xx_flash.c **** 
 372:Libraries/STM32F4xx_StdPeriph_Driver/src/stm32f4xx_flash.c **** /**
 373:Libraries/STM32F4xx_StdPeriph_Driver/src/stm32f4xx_flash.c ****   * @}
 374:Libraries/STM32F4xx_StdPeriph_Driver/src/stm32f4xx_flash.c ****   */
 375:Libraries/STM32F4xx_StdPeriph_Driver/src/stm32f4xx_flash.c **** 
 376:Libraries/STM32F4xx_StdPeriph_Driver/src/stm32f4xx_flash.c **** /** @defgroup FLASH_Group2 FLASH Memory Programming functions
 377:Libraries/STM32F4xx_StdPeriph_Driver/src/stm32f4xx_flash.c ****  *  @brief   FLASH Memory Programming functions
 378:Libraries/STM32F4xx_StdPeriph_Driver/src/stm32f4xx_flash.c ****  *
 379:Libraries/STM32F4xx_StdPeriph_Driver/src/stm32f4xx_flash.c **** @verbatim   
 380:Libraries/STM32F4xx_StdPeriph_Driver/src/stm32f4xx_flash.c ****  ===============================================================================
 381:Libraries/STM32F4xx_StdPeriph_Driver/src/stm32f4xx_flash.c ****                 ##### FLASH Memory Programming functions #####
 382:Libraries/STM32F4xx_StdPeriph_Driver/src/stm32f4xx_flash.c ****  ===============================================================================   
 383:Libraries/STM32F4xx_StdPeriph_Driver/src/stm32f4xx_flash.c ****     [..]
 384:Libraries/STM32F4xx_StdPeriph_Driver/src/stm32f4xx_flash.c ****       This group includes the following functions:
 385:Libraries/STM32F4xx_StdPeriph_Driver/src/stm32f4xx_flash.c ****       (+) void FLASH_Unlock(void)
 386:Libraries/STM32F4xx_StdPeriph_Driver/src/stm32f4xx_flash.c ****       (+) void FLASH_Lock(void)
 387:Libraries/STM32F4xx_StdPeriph_Driver/src/stm32f4xx_flash.c ****       (+) FLASH_Status FLASH_EraseSector(uint32_t FLASH_Sector, uint8_t VoltageRange)
 388:Libraries/STM32F4xx_StdPeriph_Driver/src/stm32f4xx_flash.c ****       (+) FLASH_Status FLASH_EraseAllSectors(uint8_t VoltageRange)       
 389:Libraries/STM32F4xx_StdPeriph_Driver/src/stm32f4xx_flash.c ****       (+) FLASH_Status FLASH_ProgramDoubleWord(uint32_t Address, uint64_t Data)
 390:Libraries/STM32F4xx_StdPeriph_Driver/src/stm32f4xx_flash.c ****       (+) FLASH_Status FLASH_ProgramWord(uint32_t Address, uint32_t Data)
 391:Libraries/STM32F4xx_StdPeriph_Driver/src/stm32f4xx_flash.c ****       (+) FLASH_Status FLASH_ProgramHalfWord(uint32_t Address, uint16_t Data)
 392:Libraries/STM32F4xx_StdPeriph_Driver/src/stm32f4xx_flash.c ****       (+) FLASH_Status FLASH_ProgramByte(uint32_t Address, uint8_t Data)
 393:Libraries/STM32F4xx_StdPeriph_Driver/src/stm32f4xx_flash.c ****           The following functions can be used only for STM32F42xxx/43xxx devices. 
 394:Libraries/STM32F4xx_StdPeriph_Driver/src/stm32f4xx_flash.c ****       (+) FLASH_Status FLASH_EraseAllBank1Sectors(uint8_t VoltageRange)
 395:Libraries/STM32F4xx_StdPeriph_Driver/src/stm32f4xx_flash.c ****       (+) FLASH_Status FLASH_EraseAllBank2Sectors(uint8_t VoltageRange)    
 396:Libraries/STM32F4xx_StdPeriph_Driver/src/stm32f4xx_flash.c ****     [..]   
 397:Libraries/STM32F4xx_StdPeriph_Driver/src/stm32f4xx_flash.c ****       Any operation of erase or program should follow these steps:
 398:Libraries/STM32F4xx_StdPeriph_Driver/src/stm32f4xx_flash.c ****       (#) Call the FLASH_Unlock() function to enable the FLASH control register access
 399:Libraries/STM32F4xx_StdPeriph_Driver/src/stm32f4xx_flash.c **** 
 400:Libraries/STM32F4xx_StdPeriph_Driver/src/stm32f4xx_flash.c ****       (#) Call the desired function to erase sector(s) or program data
 401:Libraries/STM32F4xx_StdPeriph_Driver/src/stm32f4xx_flash.c **** 
 402:Libraries/STM32F4xx_StdPeriph_Driver/src/stm32f4xx_flash.c ****       (#) Call the FLASH_Lock() function to disable the FLASH control register access
 403:Libraries/STM32F4xx_StdPeriph_Driver/src/stm32f4xx_flash.c ****           (recommended to protect the FLASH memory against possible unwanted operation)
 404:Libraries/STM32F4xx_StdPeriph_Driver/src/stm32f4xx_flash.c ****     
 405:Libraries/STM32F4xx_StdPeriph_Driver/src/stm32f4xx_flash.c **** @endverbatim
 406:Libraries/STM32F4xx_StdPeriph_Driver/src/stm32f4xx_flash.c ****   * @{
 407:Libraries/STM32F4xx_StdPeriph_Driver/src/stm32f4xx_flash.c ****   */
 408:Libraries/STM32F4xx_StdPeriph_Driver/src/stm32f4xx_flash.c **** 
 409:Libraries/STM32F4xx_StdPeriph_Driver/src/stm32f4xx_flash.c **** /**
 410:Libraries/STM32F4xx_StdPeriph_Driver/src/stm32f4xx_flash.c ****   * @brief  Unlocks the FLASH control register access
 411:Libraries/STM32F4xx_StdPeriph_Driver/src/stm32f4xx_flash.c ****   * @param  None
 412:Libraries/STM32F4xx_StdPeriph_Driver/src/stm32f4xx_flash.c ****   * @retval None
 413:Libraries/STM32F4xx_StdPeriph_Driver/src/stm32f4xx_flash.c ****   */
 414:Libraries/STM32F4xx_StdPeriph_Driver/src/stm32f4xx_flash.c **** void FLASH_Unlock(void)
 415:Libraries/STM32F4xx_StdPeriph_Driver/src/stm32f4xx_flash.c **** {
 277              		.loc 1 415 0
 278              		.cfi_startproc
 279              		@ args = 0, pretend = 0, frame = 0
 280              		@ frame_needed = 0, uses_anonymous_args = 0
 281              		@ link register save eliminated.
 416:Libraries/STM32F4xx_StdPeriph_Driver/src/stm32f4xx_flash.c ****   if((FLASH->CR & FLASH_CR_LOCK) != RESET)
 282              		.loc 1 416 0
 283 0000 4FF47053 		mov	r3, #15360
 284 0004 C4F20203 		movt	r3, 16386
 285 0008 1A69     		ldr	r2, [r3, #16]
 286 000a 002A     		cmp	r2, #0
 287 000c 09DA     		bge	.L21
 417:Libraries/STM32F4xx_StdPeriph_Driver/src/stm32f4xx_flash.c ****   {
 418:Libraries/STM32F4xx_StdPeriph_Driver/src/stm32f4xx_flash.c ****     /* Authorize the FLASH Registers access */
 419:Libraries/STM32F4xx_StdPeriph_Driver/src/stm32f4xx_flash.c ****     FLASH->KEYR = FLASH_KEY1;
 288              		.loc 1 419 0
 289 000e 40F22311 		movw	r1, #291
 420:Libraries/STM32F4xx_StdPeriph_Driver/src/stm32f4xx_flash.c ****     FLASH->KEYR = FLASH_KEY2;
 290              		.loc 1 420 0
 291 0012 48F6AB12 		movw	r2, #35243
 419:Libraries/STM32F4xx_StdPeriph_Driver/src/stm32f4xx_flash.c ****     FLASH->KEYR = FLASH_KEY2;
 292              		.loc 1 419 0
 293 0016 C4F26751 		movt	r1, 17767
 294              		.loc 1 420 0
 295 001a CCF6EF52 		movt	r2, 52719
 419:Libraries/STM32F4xx_StdPeriph_Driver/src/stm32f4xx_flash.c ****     FLASH->KEYR = FLASH_KEY2;
 296              		.loc 1 419 0
 297 001e 5960     		str	r1, [r3, #4]
 298              		.loc 1 420 0
 299 0020 5A60     		str	r2, [r3, #4]
 300              	.L21:
 301 0022 7047     		bx	lr
 302              		.cfi_endproc
 303              	.LFE129:
 305              		.section	.text.FLASH_Lock,"ax",%progbits
 306              		.align	2
 307              		.global	FLASH_Lock
 308              		.thumb
 309              		.thumb_func
 311              	FLASH_Lock:
 312              	.LFB130:
 421:Libraries/STM32F4xx_StdPeriph_Driver/src/stm32f4xx_flash.c ****   }  
 422:Libraries/STM32F4xx_StdPeriph_Driver/src/stm32f4xx_flash.c **** }
 423:Libraries/STM32F4xx_StdPeriph_Driver/src/stm32f4xx_flash.c **** 
 424:Libraries/STM32F4xx_StdPeriph_Driver/src/stm32f4xx_flash.c **** /**
 425:Libraries/STM32F4xx_StdPeriph_Driver/src/stm32f4xx_flash.c ****   * @brief  Locks the FLASH control register access
 426:Libraries/STM32F4xx_StdPeriph_Driver/src/stm32f4xx_flash.c ****   * @param  None
 427:Libraries/STM32F4xx_StdPeriph_Driver/src/stm32f4xx_flash.c ****   * @retval None
 428:Libraries/STM32F4xx_StdPeriph_Driver/src/stm32f4xx_flash.c ****   */
 429:Libraries/STM32F4xx_StdPeriph_Driver/src/stm32f4xx_flash.c **** void FLASH_Lock(void)
 430:Libraries/STM32F4xx_StdPeriph_Driver/src/stm32f4xx_flash.c **** {
 313              		.loc 1 430 0
 314              		.cfi_startproc
 315              		@ args = 0, pretend = 0, frame = 0
 316              		@ frame_needed = 0, uses_anonymous_args = 0
 317              		@ link register save eliminated.
 431:Libraries/STM32F4xx_StdPeriph_Driver/src/stm32f4xx_flash.c ****   /* Set the LOCK Bit to lock the FLASH Registers access */
 432:Libraries/STM32F4xx_StdPeriph_Driver/src/stm32f4xx_flash.c ****   FLASH->CR |= FLASH_CR_LOCK;
 318              		.loc 1 432 0
 319 0000 4FF47053 		mov	r3, #15360
 320 0004 C4F20203 		movt	r3, 16386
 321 0008 1A69     		ldr	r2, [r3, #16]
 322 000a 42F00042 		orr	r2, r2, #-2147483648
 323 000e 1A61     		str	r2, [r3, #16]
 324 0010 7047     		bx	lr
 325              		.cfi_endproc
 326              	.LFE130:
 328 0012 00BF     		.section	.text.FLASH_OB_Unlock,"ax",%progbits
 329              		.align	2
 330              		.global	FLASH_OB_Unlock
 331              		.thumb
 332              		.thumb_func
 334              	FLASH_OB_Unlock:
 335              	.LFB139:
 433:Libraries/STM32F4xx_StdPeriph_Driver/src/stm32f4xx_flash.c **** }
 434:Libraries/STM32F4xx_StdPeriph_Driver/src/stm32f4xx_flash.c **** 
 435:Libraries/STM32F4xx_StdPeriph_Driver/src/stm32f4xx_flash.c **** /**
 436:Libraries/STM32F4xx_StdPeriph_Driver/src/stm32f4xx_flash.c ****   * @brief  Erases a specified FLASH Sector.
 437:Libraries/STM32F4xx_StdPeriph_Driver/src/stm32f4xx_flash.c ****   *
 438:Libraries/STM32F4xx_StdPeriph_Driver/src/stm32f4xx_flash.c ****   * @note   If an erase and a program operations are requested simultaneously,    
 439:Libraries/STM32F4xx_StdPeriph_Driver/src/stm32f4xx_flash.c ****   *         the erase operation is performed before the program one.
 440:Libraries/STM32F4xx_StdPeriph_Driver/src/stm32f4xx_flash.c ****   *
 441:Libraries/STM32F4xx_StdPeriph_Driver/src/stm32f4xx_flash.c ****   * @param  FLASH_Sector: The Sector number to be erased.
 442:Libraries/STM32F4xx_StdPeriph_Driver/src/stm32f4xx_flash.c ****   *
 443:Libraries/STM32F4xx_StdPeriph_Driver/src/stm32f4xx_flash.c ****   *  @note  For STM32F405xx/407xx and STM32F415xx/417xx devices this parameter can 
 444:Libraries/STM32F4xx_StdPeriph_Driver/src/stm32f4xx_flash.c ****   *         be a value between FLASH_Sector_0 and FLASH_Sector_11.
 445:Libraries/STM32F4xx_StdPeriph_Driver/src/stm32f4xx_flash.c ****   *
 446:Libraries/STM32F4xx_StdPeriph_Driver/src/stm32f4xx_flash.c ****   *         For STM32F42xxx/43xxx devices this parameter can be a value between 
 447:Libraries/STM32F4xx_StdPeriph_Driver/src/stm32f4xx_flash.c ****   *         FLASH_Sector_0 and FLASH_Sector_23.
 448:Libraries/STM32F4xx_StdPeriph_Driver/src/stm32f4xx_flash.c ****   *
 449:Libraries/STM32F4xx_StdPeriph_Driver/src/stm32f4xx_flash.c ****   *         For STM32F401xx devices this parameter can be a value between 
 450:Libraries/STM32F4xx_StdPeriph_Driver/src/stm32f4xx_flash.c ****   *         FLASH_Sector_0 and FLASH_Sector_5.
 451:Libraries/STM32F4xx_StdPeriph_Driver/src/stm32f4xx_flash.c ****   *
 452:Libraries/STM32F4xx_StdPeriph_Driver/src/stm32f4xx_flash.c ****   *         For STM32F411xE devices this parameter can be a value between 
 453:Libraries/STM32F4xx_StdPeriph_Driver/src/stm32f4xx_flash.c ****   *         FLASH_Sector_0 and FLASH_Sector_7.
 454:Libraries/STM32F4xx_StdPeriph_Driver/src/stm32f4xx_flash.c ****   *
 455:Libraries/STM32F4xx_StdPeriph_Driver/src/stm32f4xx_flash.c ****   * @param  VoltageRange: The device voltage range which defines the erase parallelism.  
 456:Libraries/STM32F4xx_StdPeriph_Driver/src/stm32f4xx_flash.c ****   *          This parameter can be one of the following values:
 457:Libraries/STM32F4xx_StdPeriph_Driver/src/stm32f4xx_flash.c ****   *            @arg VoltageRange_1: when the device voltage range is 1.8V to 2.1V, 
 458:Libraries/STM32F4xx_StdPeriph_Driver/src/stm32f4xx_flash.c ****   *                                  the operation will be done by byte (8-bit) 
 459:Libraries/STM32F4xx_StdPeriph_Driver/src/stm32f4xx_flash.c ****   *            @arg VoltageRange_2: when the device voltage range is 2.1V to 2.7V,
 460:Libraries/STM32F4xx_StdPeriph_Driver/src/stm32f4xx_flash.c ****   *                                  the operation will be done by half word (16-bit)
 461:Libraries/STM32F4xx_StdPeriph_Driver/src/stm32f4xx_flash.c ****   *            @arg VoltageRange_3: when the device voltage range is 2.7V to 3.6V,
 462:Libraries/STM32F4xx_StdPeriph_Driver/src/stm32f4xx_flash.c ****   *                                  the operation will be done by word (32-bit)
 463:Libraries/STM32F4xx_StdPeriph_Driver/src/stm32f4xx_flash.c ****   *            @arg VoltageRange_4: when the device voltage range is 2.7V to 3.6V + External Vpp, 
 464:Libraries/STM32F4xx_StdPeriph_Driver/src/stm32f4xx_flash.c ****   *                                  the operation will be done by double word (64-bit)
 465:Libraries/STM32F4xx_StdPeriph_Driver/src/stm32f4xx_flash.c ****   *       
 466:Libraries/STM32F4xx_StdPeriph_Driver/src/stm32f4xx_flash.c ****   * @retval FLASH Status: The returned value can be: FLASH_BUSY, FLASH_ERROR_PROGRAM,
 467:Libraries/STM32F4xx_StdPeriph_Driver/src/stm32f4xx_flash.c ****   *                       FLASH_ERROR_WRP, FLASH_ERROR_OPERATION or FLASH_COMPLETE.
 468:Libraries/STM32F4xx_StdPeriph_Driver/src/stm32f4xx_flash.c ****   */
 469:Libraries/STM32F4xx_StdPeriph_Driver/src/stm32f4xx_flash.c **** FLASH_Status FLASH_EraseSector(uint32_t FLASH_Sector, uint8_t VoltageRange)
 470:Libraries/STM32F4xx_StdPeriph_Driver/src/stm32f4xx_flash.c **** {
 471:Libraries/STM32F4xx_StdPeriph_Driver/src/stm32f4xx_flash.c ****   uint32_t tmp_psize = 0x0;
 472:Libraries/STM32F4xx_StdPeriph_Driver/src/stm32f4xx_flash.c ****   FLASH_Status status = FLASH_COMPLETE;
 473:Libraries/STM32F4xx_StdPeriph_Driver/src/stm32f4xx_flash.c **** 
 474:Libraries/STM32F4xx_StdPeriph_Driver/src/stm32f4xx_flash.c ****   /* Check the parameters */
 475:Libraries/STM32F4xx_StdPeriph_Driver/src/stm32f4xx_flash.c ****   assert_param(IS_FLASH_SECTOR(FLASH_Sector));
 476:Libraries/STM32F4xx_StdPeriph_Driver/src/stm32f4xx_flash.c ****   assert_param(IS_VOLTAGERANGE(VoltageRange));
 477:Libraries/STM32F4xx_StdPeriph_Driver/src/stm32f4xx_flash.c ****   
 478:Libraries/STM32F4xx_StdPeriph_Driver/src/stm32f4xx_flash.c ****   if(VoltageRange == VoltageRange_1)
 479:Libraries/STM32F4xx_StdPeriph_Driver/src/stm32f4xx_flash.c ****   {
 480:Libraries/STM32F4xx_StdPeriph_Driver/src/stm32f4xx_flash.c ****      tmp_psize = FLASH_PSIZE_BYTE;
 481:Libraries/STM32F4xx_StdPeriph_Driver/src/stm32f4xx_flash.c ****   }
 482:Libraries/STM32F4xx_StdPeriph_Driver/src/stm32f4xx_flash.c ****   else if(VoltageRange == VoltageRange_2)
 483:Libraries/STM32F4xx_StdPeriph_Driver/src/stm32f4xx_flash.c ****   {
 484:Libraries/STM32F4xx_StdPeriph_Driver/src/stm32f4xx_flash.c ****     tmp_psize = FLASH_PSIZE_HALF_WORD;
 485:Libraries/STM32F4xx_StdPeriph_Driver/src/stm32f4xx_flash.c ****   }
 486:Libraries/STM32F4xx_StdPeriph_Driver/src/stm32f4xx_flash.c ****   else if(VoltageRange == VoltageRange_3)
 487:Libraries/STM32F4xx_StdPeriph_Driver/src/stm32f4xx_flash.c ****   {
 488:Libraries/STM32F4xx_StdPeriph_Driver/src/stm32f4xx_flash.c ****     tmp_psize = FLASH_PSIZE_WORD;
 489:Libraries/STM32F4xx_StdPeriph_Driver/src/stm32f4xx_flash.c ****   }
 490:Libraries/STM32F4xx_StdPeriph_Driver/src/stm32f4xx_flash.c ****   else
 491:Libraries/STM32F4xx_StdPeriph_Driver/src/stm32f4xx_flash.c ****   {
 492:Libraries/STM32F4xx_StdPeriph_Driver/src/stm32f4xx_flash.c ****     tmp_psize = FLASH_PSIZE_DOUBLE_WORD;
 493:Libraries/STM32F4xx_StdPeriph_Driver/src/stm32f4xx_flash.c ****   }
 494:Libraries/STM32F4xx_StdPeriph_Driver/src/stm32f4xx_flash.c ****   /* Wait for last operation to be completed */
 495:Libraries/STM32F4xx_StdPeriph_Driver/src/stm32f4xx_flash.c ****   status = FLASH_WaitForLastOperation();
 496:Libraries/STM32F4xx_StdPeriph_Driver/src/stm32f4xx_flash.c ****   
 497:Libraries/STM32F4xx_StdPeriph_Driver/src/stm32f4xx_flash.c ****   if(status == FLASH_COMPLETE)
 498:Libraries/STM32F4xx_StdPeriph_Driver/src/stm32f4xx_flash.c ****   { 
 499:Libraries/STM32F4xx_StdPeriph_Driver/src/stm32f4xx_flash.c ****     /* if the previous operation is completed, proceed to erase the sector */
 500:Libraries/STM32F4xx_StdPeriph_Driver/src/stm32f4xx_flash.c ****     FLASH->CR &= CR_PSIZE_MASK;
 501:Libraries/STM32F4xx_StdPeriph_Driver/src/stm32f4xx_flash.c ****     FLASH->CR |= tmp_psize;
 502:Libraries/STM32F4xx_StdPeriph_Driver/src/stm32f4xx_flash.c ****     FLASH->CR &= SECTOR_MASK;
 503:Libraries/STM32F4xx_StdPeriph_Driver/src/stm32f4xx_flash.c ****     FLASH->CR |= FLASH_CR_SER | FLASH_Sector;
 504:Libraries/STM32F4xx_StdPeriph_Driver/src/stm32f4xx_flash.c ****     FLASH->CR |= FLASH_CR_STRT;
 505:Libraries/STM32F4xx_StdPeriph_Driver/src/stm32f4xx_flash.c ****     
 506:Libraries/STM32F4xx_StdPeriph_Driver/src/stm32f4xx_flash.c ****     /* Wait for last operation to be completed */
 507:Libraries/STM32F4xx_StdPeriph_Driver/src/stm32f4xx_flash.c ****     status = FLASH_WaitForLastOperation();
 508:Libraries/STM32F4xx_StdPeriph_Driver/src/stm32f4xx_flash.c ****     
 509:Libraries/STM32F4xx_StdPeriph_Driver/src/stm32f4xx_flash.c ****     /* if the erase operation is completed, disable the SER Bit */
 510:Libraries/STM32F4xx_StdPeriph_Driver/src/stm32f4xx_flash.c ****     FLASH->CR &= (~FLASH_CR_SER);
 511:Libraries/STM32F4xx_StdPeriph_Driver/src/stm32f4xx_flash.c ****     FLASH->CR &= SECTOR_MASK; 
 512:Libraries/STM32F4xx_StdPeriph_Driver/src/stm32f4xx_flash.c ****   }
 513:Libraries/STM32F4xx_StdPeriph_Driver/src/stm32f4xx_flash.c ****   /* Return the Erase Status */
 514:Libraries/STM32F4xx_StdPeriph_Driver/src/stm32f4xx_flash.c ****   return status;
 515:Libraries/STM32F4xx_StdPeriph_Driver/src/stm32f4xx_flash.c **** }
 516:Libraries/STM32F4xx_StdPeriph_Driver/src/stm32f4xx_flash.c **** 
 517:Libraries/STM32F4xx_StdPeriph_Driver/src/stm32f4xx_flash.c **** /**
 518:Libraries/STM32F4xx_StdPeriph_Driver/src/stm32f4xx_flash.c ****   * @brief  Erases all FLASH Sectors.
 519:Libraries/STM32F4xx_StdPeriph_Driver/src/stm32f4xx_flash.c ****   *
 520:Libraries/STM32F4xx_StdPeriph_Driver/src/stm32f4xx_flash.c ****   * @note   If an erase and a program operations are requested simultaneously,    
 521:Libraries/STM32F4xx_StdPeriph_Driver/src/stm32f4xx_flash.c ****   *         the erase operation is performed before the program one.
 522:Libraries/STM32F4xx_StdPeriph_Driver/src/stm32f4xx_flash.c ****   *  
 523:Libraries/STM32F4xx_StdPeriph_Driver/src/stm32f4xx_flash.c ****   * @param  VoltageRange: The device voltage range which defines the erase parallelism.  
 524:Libraries/STM32F4xx_StdPeriph_Driver/src/stm32f4xx_flash.c ****   *          This parameter can be one of the following values:
 525:Libraries/STM32F4xx_StdPeriph_Driver/src/stm32f4xx_flash.c ****   *            @arg VoltageRange_1: when the device voltage range is 1.8V to 2.1V, 
 526:Libraries/STM32F4xx_StdPeriph_Driver/src/stm32f4xx_flash.c ****   *                                  the operation will be done by byte (8-bit) 
 527:Libraries/STM32F4xx_StdPeriph_Driver/src/stm32f4xx_flash.c ****   *            @arg VoltageRange_2: when the device voltage range is 2.1V to 2.7V,
 528:Libraries/STM32F4xx_StdPeriph_Driver/src/stm32f4xx_flash.c ****   *                                  the operation will be done by half word (16-bit)
 529:Libraries/STM32F4xx_StdPeriph_Driver/src/stm32f4xx_flash.c ****   *            @arg VoltageRange_3: when the device voltage range is 2.7V to 3.6V,
 530:Libraries/STM32F4xx_StdPeriph_Driver/src/stm32f4xx_flash.c ****   *                                  the operation will be done by word (32-bit)
 531:Libraries/STM32F4xx_StdPeriph_Driver/src/stm32f4xx_flash.c ****   *            @arg VoltageRange_4: when the device voltage range is 2.7V to 3.6V + External Vpp, 
 532:Libraries/STM32F4xx_StdPeriph_Driver/src/stm32f4xx_flash.c ****   *                                  the operation will be done by double word (64-bit)
 533:Libraries/STM32F4xx_StdPeriph_Driver/src/stm32f4xx_flash.c ****   *       
 534:Libraries/STM32F4xx_StdPeriph_Driver/src/stm32f4xx_flash.c ****   * @retval FLASH Status: The returned value can be: FLASH_BUSY, FLASH_ERROR_PROGRAM,
 535:Libraries/STM32F4xx_StdPeriph_Driver/src/stm32f4xx_flash.c ****   *                       FLASH_ERROR_WRP, FLASH_ERROR_OPERATION or FLASH_COMPLETE.
 536:Libraries/STM32F4xx_StdPeriph_Driver/src/stm32f4xx_flash.c ****   */
 537:Libraries/STM32F4xx_StdPeriph_Driver/src/stm32f4xx_flash.c **** FLASH_Status FLASH_EraseAllSectors(uint8_t VoltageRange)
 538:Libraries/STM32F4xx_StdPeriph_Driver/src/stm32f4xx_flash.c **** {
 539:Libraries/STM32F4xx_StdPeriph_Driver/src/stm32f4xx_flash.c ****   uint32_t tmp_psize = 0x0;
 540:Libraries/STM32F4xx_StdPeriph_Driver/src/stm32f4xx_flash.c ****   FLASH_Status status = FLASH_COMPLETE;
 541:Libraries/STM32F4xx_StdPeriph_Driver/src/stm32f4xx_flash.c ****   
 542:Libraries/STM32F4xx_StdPeriph_Driver/src/stm32f4xx_flash.c ****   /* Wait for last operation to be completed */
 543:Libraries/STM32F4xx_StdPeriph_Driver/src/stm32f4xx_flash.c ****   status = FLASH_WaitForLastOperation();
 544:Libraries/STM32F4xx_StdPeriph_Driver/src/stm32f4xx_flash.c ****   assert_param(IS_VOLTAGERANGE(VoltageRange));
 545:Libraries/STM32F4xx_StdPeriph_Driver/src/stm32f4xx_flash.c ****   
 546:Libraries/STM32F4xx_StdPeriph_Driver/src/stm32f4xx_flash.c ****   if(VoltageRange == VoltageRange_1)
 547:Libraries/STM32F4xx_StdPeriph_Driver/src/stm32f4xx_flash.c ****   {
 548:Libraries/STM32F4xx_StdPeriph_Driver/src/stm32f4xx_flash.c ****      tmp_psize = FLASH_PSIZE_BYTE;
 549:Libraries/STM32F4xx_StdPeriph_Driver/src/stm32f4xx_flash.c ****   }
 550:Libraries/STM32F4xx_StdPeriph_Driver/src/stm32f4xx_flash.c ****   else if(VoltageRange == VoltageRange_2)
 551:Libraries/STM32F4xx_StdPeriph_Driver/src/stm32f4xx_flash.c ****   {
 552:Libraries/STM32F4xx_StdPeriph_Driver/src/stm32f4xx_flash.c ****     tmp_psize = FLASH_PSIZE_HALF_WORD;
 553:Libraries/STM32F4xx_StdPeriph_Driver/src/stm32f4xx_flash.c ****   }
 554:Libraries/STM32F4xx_StdPeriph_Driver/src/stm32f4xx_flash.c ****   else if(VoltageRange == VoltageRange_3)
 555:Libraries/STM32F4xx_StdPeriph_Driver/src/stm32f4xx_flash.c ****   {
 556:Libraries/STM32F4xx_StdPeriph_Driver/src/stm32f4xx_flash.c ****     tmp_psize = FLASH_PSIZE_WORD;
 557:Libraries/STM32F4xx_StdPeriph_Driver/src/stm32f4xx_flash.c ****   }
 558:Libraries/STM32F4xx_StdPeriph_Driver/src/stm32f4xx_flash.c ****   else
 559:Libraries/STM32F4xx_StdPeriph_Driver/src/stm32f4xx_flash.c ****   {
 560:Libraries/STM32F4xx_StdPeriph_Driver/src/stm32f4xx_flash.c ****     tmp_psize = FLASH_PSIZE_DOUBLE_WORD;
 561:Libraries/STM32F4xx_StdPeriph_Driver/src/stm32f4xx_flash.c ****   }  
 562:Libraries/STM32F4xx_StdPeriph_Driver/src/stm32f4xx_flash.c ****   if(status == FLASH_COMPLETE)
 563:Libraries/STM32F4xx_StdPeriph_Driver/src/stm32f4xx_flash.c ****   {
 564:Libraries/STM32F4xx_StdPeriph_Driver/src/stm32f4xx_flash.c ****     /* if the previous operation is completed, proceed to erase all sectors */
 565:Libraries/STM32F4xx_StdPeriph_Driver/src/stm32f4xx_flash.c **** #if defined(STM32F427_437xx) || defined(STM32F429_439xx)   
 566:Libraries/STM32F4xx_StdPeriph_Driver/src/stm32f4xx_flash.c ****     FLASH->CR &= CR_PSIZE_MASK;
 567:Libraries/STM32F4xx_StdPeriph_Driver/src/stm32f4xx_flash.c ****     FLASH->CR |= tmp_psize;
 568:Libraries/STM32F4xx_StdPeriph_Driver/src/stm32f4xx_flash.c ****     FLASH->CR |= (FLASH_CR_MER1 | FLASH_CR_MER2);
 569:Libraries/STM32F4xx_StdPeriph_Driver/src/stm32f4xx_flash.c ****     FLASH->CR |= FLASH_CR_STRT;
 570:Libraries/STM32F4xx_StdPeriph_Driver/src/stm32f4xx_flash.c ****     
 571:Libraries/STM32F4xx_StdPeriph_Driver/src/stm32f4xx_flash.c ****     /* Wait for last operation to be completed */
 572:Libraries/STM32F4xx_StdPeriph_Driver/src/stm32f4xx_flash.c ****     status = FLASH_WaitForLastOperation();
 573:Libraries/STM32F4xx_StdPeriph_Driver/src/stm32f4xx_flash.c **** 
 574:Libraries/STM32F4xx_StdPeriph_Driver/src/stm32f4xx_flash.c ****     /* if the erase operation is completed, disable the MER Bit */
 575:Libraries/STM32F4xx_StdPeriph_Driver/src/stm32f4xx_flash.c ****     FLASH->CR &= ~(FLASH_CR_MER1 | FLASH_CR_MER2);
 576:Libraries/STM32F4xx_StdPeriph_Driver/src/stm32f4xx_flash.c **** #endif /* STM32F427_437xx ||  STM32F429_439xx */
 577:Libraries/STM32F4xx_StdPeriph_Driver/src/stm32f4xx_flash.c **** 
 578:Libraries/STM32F4xx_StdPeriph_Driver/src/stm32f4xx_flash.c **** #if defined(STM32F40_41xxx) || defined(STM32F401xx) || defined(STM32F411xE) || defined(STM32F446xx)
 579:Libraries/STM32F4xx_StdPeriph_Driver/src/stm32f4xx_flash.c ****     FLASH->CR &= CR_PSIZE_MASK;
 580:Libraries/STM32F4xx_StdPeriph_Driver/src/stm32f4xx_flash.c ****     FLASH->CR |= tmp_psize;
 581:Libraries/STM32F4xx_StdPeriph_Driver/src/stm32f4xx_flash.c ****     FLASH->CR |= FLASH_CR_MER;
 582:Libraries/STM32F4xx_StdPeriph_Driver/src/stm32f4xx_flash.c ****     FLASH->CR |= FLASH_CR_STRT;
 583:Libraries/STM32F4xx_StdPeriph_Driver/src/stm32f4xx_flash.c ****     
 584:Libraries/STM32F4xx_StdPeriph_Driver/src/stm32f4xx_flash.c ****     /* Wait for last operation to be completed */
 585:Libraries/STM32F4xx_StdPeriph_Driver/src/stm32f4xx_flash.c ****     status = FLASH_WaitForLastOperation();
 586:Libraries/STM32F4xx_StdPeriph_Driver/src/stm32f4xx_flash.c **** 
 587:Libraries/STM32F4xx_StdPeriph_Driver/src/stm32f4xx_flash.c ****     /* if the erase operation is completed, disable the MER Bit */
 588:Libraries/STM32F4xx_StdPeriph_Driver/src/stm32f4xx_flash.c ****     FLASH->CR &= (~FLASH_CR_MER);
 589:Libraries/STM32F4xx_StdPeriph_Driver/src/stm32f4xx_flash.c **** #endif /* STM32F40_41xxx || STM32F401xx || STM32F411xE || STM32F446xx */
 590:Libraries/STM32F4xx_StdPeriph_Driver/src/stm32f4xx_flash.c **** 
 591:Libraries/STM32F4xx_StdPeriph_Driver/src/stm32f4xx_flash.c ****   }   
 592:Libraries/STM32F4xx_StdPeriph_Driver/src/stm32f4xx_flash.c ****   /* Return the Erase Status */
 593:Libraries/STM32F4xx_StdPeriph_Driver/src/stm32f4xx_flash.c ****   return status;
 594:Libraries/STM32F4xx_StdPeriph_Driver/src/stm32f4xx_flash.c **** }
 595:Libraries/STM32F4xx_StdPeriph_Driver/src/stm32f4xx_flash.c **** 
 596:Libraries/STM32F4xx_StdPeriph_Driver/src/stm32f4xx_flash.c **** /**
 597:Libraries/STM32F4xx_StdPeriph_Driver/src/stm32f4xx_flash.c ****   * @brief  Erases all FLASH Sectors in Bank 1.
 598:Libraries/STM32F4xx_StdPeriph_Driver/src/stm32f4xx_flash.c ****   *
 599:Libraries/STM32F4xx_StdPeriph_Driver/src/stm32f4xx_flash.c ****   * @note   This function can be used only for STM32F42xxx/43xxx devices.
 600:Libraries/STM32F4xx_StdPeriph_Driver/src/stm32f4xx_flash.c ****   *      
 601:Libraries/STM32F4xx_StdPeriph_Driver/src/stm32f4xx_flash.c ****   * @note   If an erase and a program operations are requested simultaneously,    
 602:Libraries/STM32F4xx_StdPeriph_Driver/src/stm32f4xx_flash.c ****   *         the erase operation is performed before the program one. 
 603:Libraries/STM32F4xx_StdPeriph_Driver/src/stm32f4xx_flash.c ****   *  
 604:Libraries/STM32F4xx_StdPeriph_Driver/src/stm32f4xx_flash.c ****   * @param  VoltageRange: The device voltage range which defines the erase parallelism.  
 605:Libraries/STM32F4xx_StdPeriph_Driver/src/stm32f4xx_flash.c ****   *          This parameter can be one of the following values:
 606:Libraries/STM32F4xx_StdPeriph_Driver/src/stm32f4xx_flash.c ****   *            @arg VoltageRange_1: when the device voltage range is 1.8V to 2.1V, 
 607:Libraries/STM32F4xx_StdPeriph_Driver/src/stm32f4xx_flash.c ****   *                                  the operation will be done by byte (8-bit) 
 608:Libraries/STM32F4xx_StdPeriph_Driver/src/stm32f4xx_flash.c ****   *            @arg VoltageRange_2: when the device voltage range is 2.1V to 2.7V,
 609:Libraries/STM32F4xx_StdPeriph_Driver/src/stm32f4xx_flash.c ****   *                                  the operation will be done by half word (16-bit)
 610:Libraries/STM32F4xx_StdPeriph_Driver/src/stm32f4xx_flash.c ****   *            @arg VoltageRange_3: when the device voltage range is 2.7V to 3.6V,
 611:Libraries/STM32F4xx_StdPeriph_Driver/src/stm32f4xx_flash.c ****   *                                  the operation will be done by word (32-bit)
 612:Libraries/STM32F4xx_StdPeriph_Driver/src/stm32f4xx_flash.c ****   *            @arg VoltageRange_4: when the device voltage range is 2.7V to 3.6V + External Vpp, 
 613:Libraries/STM32F4xx_StdPeriph_Driver/src/stm32f4xx_flash.c ****   *                                  the operation will be done by double word (64-bit)
 614:Libraries/STM32F4xx_StdPeriph_Driver/src/stm32f4xx_flash.c ****   *       
 615:Libraries/STM32F4xx_StdPeriph_Driver/src/stm32f4xx_flash.c ****   * @retval FLASH Status: The returned value can be: FLASH_BUSY, FLASH_ERROR_PROGRAM,
 616:Libraries/STM32F4xx_StdPeriph_Driver/src/stm32f4xx_flash.c ****   *                       FLASH_ERROR_WRP, FLASH_ERROR_OPERATION or FLASH_COMPLETE.
 617:Libraries/STM32F4xx_StdPeriph_Driver/src/stm32f4xx_flash.c ****   */
 618:Libraries/STM32F4xx_StdPeriph_Driver/src/stm32f4xx_flash.c **** FLASH_Status FLASH_EraseAllBank1Sectors(uint8_t VoltageRange)
 619:Libraries/STM32F4xx_StdPeriph_Driver/src/stm32f4xx_flash.c **** {
 620:Libraries/STM32F4xx_StdPeriph_Driver/src/stm32f4xx_flash.c ****   uint32_t tmp_psize = 0x0;
 621:Libraries/STM32F4xx_StdPeriph_Driver/src/stm32f4xx_flash.c ****   FLASH_Status status = FLASH_COMPLETE;
 622:Libraries/STM32F4xx_StdPeriph_Driver/src/stm32f4xx_flash.c ****   
 623:Libraries/STM32F4xx_StdPeriph_Driver/src/stm32f4xx_flash.c ****   /* Wait for last operation to be completed */
 624:Libraries/STM32F4xx_StdPeriph_Driver/src/stm32f4xx_flash.c ****   status = FLASH_WaitForLastOperation();
 625:Libraries/STM32F4xx_StdPeriph_Driver/src/stm32f4xx_flash.c ****   assert_param(IS_VOLTAGERANGE(VoltageRange));
 626:Libraries/STM32F4xx_StdPeriph_Driver/src/stm32f4xx_flash.c ****   
 627:Libraries/STM32F4xx_StdPeriph_Driver/src/stm32f4xx_flash.c ****   if(VoltageRange == VoltageRange_1)
 628:Libraries/STM32F4xx_StdPeriph_Driver/src/stm32f4xx_flash.c ****   {
 629:Libraries/STM32F4xx_StdPeriph_Driver/src/stm32f4xx_flash.c ****      tmp_psize = FLASH_PSIZE_BYTE;
 630:Libraries/STM32F4xx_StdPeriph_Driver/src/stm32f4xx_flash.c ****   }
 631:Libraries/STM32F4xx_StdPeriph_Driver/src/stm32f4xx_flash.c ****   else if(VoltageRange == VoltageRange_2)
 632:Libraries/STM32F4xx_StdPeriph_Driver/src/stm32f4xx_flash.c ****   {
 633:Libraries/STM32F4xx_StdPeriph_Driver/src/stm32f4xx_flash.c ****     tmp_psize = FLASH_PSIZE_HALF_WORD;
 634:Libraries/STM32F4xx_StdPeriph_Driver/src/stm32f4xx_flash.c ****   }
 635:Libraries/STM32F4xx_StdPeriph_Driver/src/stm32f4xx_flash.c ****   else if(VoltageRange == VoltageRange_3)
 636:Libraries/STM32F4xx_StdPeriph_Driver/src/stm32f4xx_flash.c ****   {
 637:Libraries/STM32F4xx_StdPeriph_Driver/src/stm32f4xx_flash.c ****     tmp_psize = FLASH_PSIZE_WORD;
 638:Libraries/STM32F4xx_StdPeriph_Driver/src/stm32f4xx_flash.c ****   }
 639:Libraries/STM32F4xx_StdPeriph_Driver/src/stm32f4xx_flash.c ****   else
 640:Libraries/STM32F4xx_StdPeriph_Driver/src/stm32f4xx_flash.c ****   {
 641:Libraries/STM32F4xx_StdPeriph_Driver/src/stm32f4xx_flash.c ****     tmp_psize = FLASH_PSIZE_DOUBLE_WORD;
 642:Libraries/STM32F4xx_StdPeriph_Driver/src/stm32f4xx_flash.c ****   }  
 643:Libraries/STM32F4xx_StdPeriph_Driver/src/stm32f4xx_flash.c ****   if(status == FLASH_COMPLETE)
 644:Libraries/STM32F4xx_StdPeriph_Driver/src/stm32f4xx_flash.c ****   {
 645:Libraries/STM32F4xx_StdPeriph_Driver/src/stm32f4xx_flash.c ****     /* if the previous operation is completed, proceed to erase all sectors */
 646:Libraries/STM32F4xx_StdPeriph_Driver/src/stm32f4xx_flash.c ****      FLASH->CR &= CR_PSIZE_MASK;
 647:Libraries/STM32F4xx_StdPeriph_Driver/src/stm32f4xx_flash.c ****      FLASH->CR |= tmp_psize;
 648:Libraries/STM32F4xx_StdPeriph_Driver/src/stm32f4xx_flash.c ****      FLASH->CR |= FLASH_CR_MER1;
 649:Libraries/STM32F4xx_StdPeriph_Driver/src/stm32f4xx_flash.c ****      FLASH->CR |= FLASH_CR_STRT;
 650:Libraries/STM32F4xx_StdPeriph_Driver/src/stm32f4xx_flash.c ****     
 651:Libraries/STM32F4xx_StdPeriph_Driver/src/stm32f4xx_flash.c ****     /* Wait for last operation to be completed */
 652:Libraries/STM32F4xx_StdPeriph_Driver/src/stm32f4xx_flash.c ****     status = FLASH_WaitForLastOperation();
 653:Libraries/STM32F4xx_StdPeriph_Driver/src/stm32f4xx_flash.c **** 
 654:Libraries/STM32F4xx_StdPeriph_Driver/src/stm32f4xx_flash.c ****     /* if the erase operation is completed, disable the MER Bit */
 655:Libraries/STM32F4xx_StdPeriph_Driver/src/stm32f4xx_flash.c ****     FLASH->CR &= (~FLASH_CR_MER1);
 656:Libraries/STM32F4xx_StdPeriph_Driver/src/stm32f4xx_flash.c **** 
 657:Libraries/STM32F4xx_StdPeriph_Driver/src/stm32f4xx_flash.c ****   }   
 658:Libraries/STM32F4xx_StdPeriph_Driver/src/stm32f4xx_flash.c ****   /* Return the Erase Status */
 659:Libraries/STM32F4xx_StdPeriph_Driver/src/stm32f4xx_flash.c ****   return status;
 660:Libraries/STM32F4xx_StdPeriph_Driver/src/stm32f4xx_flash.c **** }
 661:Libraries/STM32F4xx_StdPeriph_Driver/src/stm32f4xx_flash.c **** 
 662:Libraries/STM32F4xx_StdPeriph_Driver/src/stm32f4xx_flash.c **** 
 663:Libraries/STM32F4xx_StdPeriph_Driver/src/stm32f4xx_flash.c **** /**
 664:Libraries/STM32F4xx_StdPeriph_Driver/src/stm32f4xx_flash.c ****   * @brief  Erases all FLASH Sectors in Bank 2.
 665:Libraries/STM32F4xx_StdPeriph_Driver/src/stm32f4xx_flash.c ****   *
 666:Libraries/STM32F4xx_StdPeriph_Driver/src/stm32f4xx_flash.c ****   * @note   This function can be used only for STM32F42xxx/43xxx devices.
 667:Libraries/STM32F4xx_StdPeriph_Driver/src/stm32f4xx_flash.c ****   *     
 668:Libraries/STM32F4xx_StdPeriph_Driver/src/stm32f4xx_flash.c ****   * @note   If an erase and a program operations are requested simultaneously,    
 669:Libraries/STM32F4xx_StdPeriph_Driver/src/stm32f4xx_flash.c ****   *         the erase operation is performed before the program one.
 670:Libraries/STM32F4xx_StdPeriph_Driver/src/stm32f4xx_flash.c ****   *     
 671:Libraries/STM32F4xx_StdPeriph_Driver/src/stm32f4xx_flash.c ****   * @param  VoltageRange: The device voltage range which defines the erase parallelism.  
 672:Libraries/STM32F4xx_StdPeriph_Driver/src/stm32f4xx_flash.c ****   *          This parameter can be one of the following values:
 673:Libraries/STM32F4xx_StdPeriph_Driver/src/stm32f4xx_flash.c ****   *            @arg VoltageRange_1: when the device voltage range is 1.8V to 2.1V, 
 674:Libraries/STM32F4xx_StdPeriph_Driver/src/stm32f4xx_flash.c ****   *                                  the operation will be done by byte (8-bit) 
 675:Libraries/STM32F4xx_StdPeriph_Driver/src/stm32f4xx_flash.c ****   *            @arg VoltageRange_2: when the device voltage range is 2.1V to 2.7V,
 676:Libraries/STM32F4xx_StdPeriph_Driver/src/stm32f4xx_flash.c ****   *                                  the operation will be done by half word (16-bit)
 677:Libraries/STM32F4xx_StdPeriph_Driver/src/stm32f4xx_flash.c ****   *            @arg VoltageRange_3: when the device voltage range is 2.7V to 3.6V,
 678:Libraries/STM32F4xx_StdPeriph_Driver/src/stm32f4xx_flash.c ****   *                                  the operation will be done by word (32-bit)
 679:Libraries/STM32F4xx_StdPeriph_Driver/src/stm32f4xx_flash.c ****   *            @arg VoltageRange_4: when the device voltage range is 2.7V to 3.6V + External Vpp, 
 680:Libraries/STM32F4xx_StdPeriph_Driver/src/stm32f4xx_flash.c ****   *                                  the operation will be done by double word (64-bit)
 681:Libraries/STM32F4xx_StdPeriph_Driver/src/stm32f4xx_flash.c ****   *       
 682:Libraries/STM32F4xx_StdPeriph_Driver/src/stm32f4xx_flash.c ****   * @retval FLASH Status: The returned value can be: FLASH_BUSY, FLASH_ERROR_PROGRAM,
 683:Libraries/STM32F4xx_StdPeriph_Driver/src/stm32f4xx_flash.c ****   *                       FLASH_ERROR_WRP, FLASH_ERROR_OPERATION or FLASH_COMPLETE.
 684:Libraries/STM32F4xx_StdPeriph_Driver/src/stm32f4xx_flash.c ****   */
 685:Libraries/STM32F4xx_StdPeriph_Driver/src/stm32f4xx_flash.c **** FLASH_Status FLASH_EraseAllBank2Sectors(uint8_t VoltageRange)
 686:Libraries/STM32F4xx_StdPeriph_Driver/src/stm32f4xx_flash.c **** {
 687:Libraries/STM32F4xx_StdPeriph_Driver/src/stm32f4xx_flash.c ****   uint32_t tmp_psize = 0x0;
 688:Libraries/STM32F4xx_StdPeriph_Driver/src/stm32f4xx_flash.c ****   FLASH_Status status = FLASH_COMPLETE;
 689:Libraries/STM32F4xx_StdPeriph_Driver/src/stm32f4xx_flash.c ****   
 690:Libraries/STM32F4xx_StdPeriph_Driver/src/stm32f4xx_flash.c ****   /* Wait for last operation to be completed */
 691:Libraries/STM32F4xx_StdPeriph_Driver/src/stm32f4xx_flash.c ****   status = FLASH_WaitForLastOperation();
 692:Libraries/STM32F4xx_StdPeriph_Driver/src/stm32f4xx_flash.c ****   assert_param(IS_VOLTAGERANGE(VoltageRange));
 693:Libraries/STM32F4xx_StdPeriph_Driver/src/stm32f4xx_flash.c ****   
 694:Libraries/STM32F4xx_StdPeriph_Driver/src/stm32f4xx_flash.c ****   if(VoltageRange == VoltageRange_1)
 695:Libraries/STM32F4xx_StdPeriph_Driver/src/stm32f4xx_flash.c ****   {
 696:Libraries/STM32F4xx_StdPeriph_Driver/src/stm32f4xx_flash.c ****      tmp_psize = FLASH_PSIZE_BYTE;
 697:Libraries/STM32F4xx_StdPeriph_Driver/src/stm32f4xx_flash.c ****   }
 698:Libraries/STM32F4xx_StdPeriph_Driver/src/stm32f4xx_flash.c ****   else if(VoltageRange == VoltageRange_2)
 699:Libraries/STM32F4xx_StdPeriph_Driver/src/stm32f4xx_flash.c ****   {
 700:Libraries/STM32F4xx_StdPeriph_Driver/src/stm32f4xx_flash.c ****     tmp_psize = FLASH_PSIZE_HALF_WORD;
 701:Libraries/STM32F4xx_StdPeriph_Driver/src/stm32f4xx_flash.c ****   }
 702:Libraries/STM32F4xx_StdPeriph_Driver/src/stm32f4xx_flash.c ****   else if(VoltageRange == VoltageRange_3)
 703:Libraries/STM32F4xx_StdPeriph_Driver/src/stm32f4xx_flash.c ****   {
 704:Libraries/STM32F4xx_StdPeriph_Driver/src/stm32f4xx_flash.c ****     tmp_psize = FLASH_PSIZE_WORD;
 705:Libraries/STM32F4xx_StdPeriph_Driver/src/stm32f4xx_flash.c ****   }
 706:Libraries/STM32F4xx_StdPeriph_Driver/src/stm32f4xx_flash.c ****   else
 707:Libraries/STM32F4xx_StdPeriph_Driver/src/stm32f4xx_flash.c ****   {
 708:Libraries/STM32F4xx_StdPeriph_Driver/src/stm32f4xx_flash.c ****     tmp_psize = FLASH_PSIZE_DOUBLE_WORD;
 709:Libraries/STM32F4xx_StdPeriph_Driver/src/stm32f4xx_flash.c ****   }  
 710:Libraries/STM32F4xx_StdPeriph_Driver/src/stm32f4xx_flash.c ****   if(status == FLASH_COMPLETE)
 711:Libraries/STM32F4xx_StdPeriph_Driver/src/stm32f4xx_flash.c ****   {
 712:Libraries/STM32F4xx_StdPeriph_Driver/src/stm32f4xx_flash.c ****     /* if the previous operation is completed, proceed to erase all sectors */
 713:Libraries/STM32F4xx_StdPeriph_Driver/src/stm32f4xx_flash.c ****      FLASH->CR &= CR_PSIZE_MASK;
 714:Libraries/STM32F4xx_StdPeriph_Driver/src/stm32f4xx_flash.c ****      FLASH->CR |= tmp_psize;
 715:Libraries/STM32F4xx_StdPeriph_Driver/src/stm32f4xx_flash.c ****      FLASH->CR |= FLASH_CR_MER2;
 716:Libraries/STM32F4xx_StdPeriph_Driver/src/stm32f4xx_flash.c ****      FLASH->CR |= FLASH_CR_STRT;
 717:Libraries/STM32F4xx_StdPeriph_Driver/src/stm32f4xx_flash.c ****     
 718:Libraries/STM32F4xx_StdPeriph_Driver/src/stm32f4xx_flash.c ****     /* Wait for last operation to be completed */
 719:Libraries/STM32F4xx_StdPeriph_Driver/src/stm32f4xx_flash.c ****     status = FLASH_WaitForLastOperation();
 720:Libraries/STM32F4xx_StdPeriph_Driver/src/stm32f4xx_flash.c **** 
 721:Libraries/STM32F4xx_StdPeriph_Driver/src/stm32f4xx_flash.c ****     /* if the erase operation is completed, disable the MER Bit */
 722:Libraries/STM32F4xx_StdPeriph_Driver/src/stm32f4xx_flash.c ****     FLASH->CR &= (~FLASH_CR_MER2);
 723:Libraries/STM32F4xx_StdPeriph_Driver/src/stm32f4xx_flash.c **** 
 724:Libraries/STM32F4xx_StdPeriph_Driver/src/stm32f4xx_flash.c ****   }   
 725:Libraries/STM32F4xx_StdPeriph_Driver/src/stm32f4xx_flash.c ****   /* Return the Erase Status */
 726:Libraries/STM32F4xx_StdPeriph_Driver/src/stm32f4xx_flash.c ****   return status;
 727:Libraries/STM32F4xx_StdPeriph_Driver/src/stm32f4xx_flash.c **** }
 728:Libraries/STM32F4xx_StdPeriph_Driver/src/stm32f4xx_flash.c **** 
 729:Libraries/STM32F4xx_StdPeriph_Driver/src/stm32f4xx_flash.c **** /**
 730:Libraries/STM32F4xx_StdPeriph_Driver/src/stm32f4xx_flash.c ****   * @brief  Programs a double word (64-bit) at a specified address.
 731:Libraries/STM32F4xx_StdPeriph_Driver/src/stm32f4xx_flash.c ****   * @note   This function must be used when the device voltage range is from
 732:Libraries/STM32F4xx_StdPeriph_Driver/src/stm32f4xx_flash.c ****   *         2.7V to 3.6V and an External Vpp is present.
 733:Libraries/STM32F4xx_StdPeriph_Driver/src/stm32f4xx_flash.c ****   *
 734:Libraries/STM32F4xx_StdPeriph_Driver/src/stm32f4xx_flash.c ****   * @note   If an erase and a program operations are requested simultaneously,    
 735:Libraries/STM32F4xx_StdPeriph_Driver/src/stm32f4xx_flash.c ****   *         the erase operation is performed before the program one.
 736:Libraries/STM32F4xx_StdPeriph_Driver/src/stm32f4xx_flash.c ****   *  
 737:Libraries/STM32F4xx_StdPeriph_Driver/src/stm32f4xx_flash.c ****   * @param  Address: specifies the address to be programmed.
 738:Libraries/STM32F4xx_StdPeriph_Driver/src/stm32f4xx_flash.c ****   * @param  Data: specifies the data to be programmed.
 739:Libraries/STM32F4xx_StdPeriph_Driver/src/stm32f4xx_flash.c ****   * @retval FLASH Status: The returned value can be: FLASH_BUSY, FLASH_ERROR_PROGRAM,
 740:Libraries/STM32F4xx_StdPeriph_Driver/src/stm32f4xx_flash.c ****   *                       FLASH_ERROR_WRP, FLASH_ERROR_OPERATION or FLASH_COMPLETE.
 741:Libraries/STM32F4xx_StdPeriph_Driver/src/stm32f4xx_flash.c ****   */
 742:Libraries/STM32F4xx_StdPeriph_Driver/src/stm32f4xx_flash.c **** FLASH_Status FLASH_ProgramDoubleWord(uint32_t Address, uint64_t Data)
 743:Libraries/STM32F4xx_StdPeriph_Driver/src/stm32f4xx_flash.c **** {
 744:Libraries/STM32F4xx_StdPeriph_Driver/src/stm32f4xx_flash.c ****   FLASH_Status status = FLASH_COMPLETE;
 745:Libraries/STM32F4xx_StdPeriph_Driver/src/stm32f4xx_flash.c **** 
 746:Libraries/STM32F4xx_StdPeriph_Driver/src/stm32f4xx_flash.c ****   /* Check the parameters */
 747:Libraries/STM32F4xx_StdPeriph_Driver/src/stm32f4xx_flash.c ****   assert_param(IS_FLASH_ADDRESS(Address));
 748:Libraries/STM32F4xx_StdPeriph_Driver/src/stm32f4xx_flash.c **** 
 749:Libraries/STM32F4xx_StdPeriph_Driver/src/stm32f4xx_flash.c ****   /* Wait for last operation to be completed */
 750:Libraries/STM32F4xx_StdPeriph_Driver/src/stm32f4xx_flash.c ****   status = FLASH_WaitForLastOperation();
 751:Libraries/STM32F4xx_StdPeriph_Driver/src/stm32f4xx_flash.c ****   
 752:Libraries/STM32F4xx_StdPeriph_Driver/src/stm32f4xx_flash.c ****   if(status == FLASH_COMPLETE)
 753:Libraries/STM32F4xx_StdPeriph_Driver/src/stm32f4xx_flash.c ****   {
 754:Libraries/STM32F4xx_StdPeriph_Driver/src/stm32f4xx_flash.c ****     /* if the previous operation is completed, proceed to program the new data */
 755:Libraries/STM32F4xx_StdPeriph_Driver/src/stm32f4xx_flash.c ****     FLASH->CR &= CR_PSIZE_MASK;
 756:Libraries/STM32F4xx_StdPeriph_Driver/src/stm32f4xx_flash.c ****     FLASH->CR |= FLASH_PSIZE_DOUBLE_WORD;
 757:Libraries/STM32F4xx_StdPeriph_Driver/src/stm32f4xx_flash.c ****     FLASH->CR |= FLASH_CR_PG;
 758:Libraries/STM32F4xx_StdPeriph_Driver/src/stm32f4xx_flash.c ****   
 759:Libraries/STM32F4xx_StdPeriph_Driver/src/stm32f4xx_flash.c ****     *(__IO uint64_t*)Address = Data;
 760:Libraries/STM32F4xx_StdPeriph_Driver/src/stm32f4xx_flash.c ****         
 761:Libraries/STM32F4xx_StdPeriph_Driver/src/stm32f4xx_flash.c ****     /* Wait for last operation to be completed */
 762:Libraries/STM32F4xx_StdPeriph_Driver/src/stm32f4xx_flash.c ****     status = FLASH_WaitForLastOperation();
 763:Libraries/STM32F4xx_StdPeriph_Driver/src/stm32f4xx_flash.c **** 
 764:Libraries/STM32F4xx_StdPeriph_Driver/src/stm32f4xx_flash.c ****     /* if the program operation is completed, disable the PG Bit */
 765:Libraries/STM32F4xx_StdPeriph_Driver/src/stm32f4xx_flash.c ****     FLASH->CR &= (~FLASH_CR_PG);
 766:Libraries/STM32F4xx_StdPeriph_Driver/src/stm32f4xx_flash.c ****   } 
 767:Libraries/STM32F4xx_StdPeriph_Driver/src/stm32f4xx_flash.c ****   /* Return the Program Status */
 768:Libraries/STM32F4xx_StdPeriph_Driver/src/stm32f4xx_flash.c ****   return status;
 769:Libraries/STM32F4xx_StdPeriph_Driver/src/stm32f4xx_flash.c **** }
 770:Libraries/STM32F4xx_StdPeriph_Driver/src/stm32f4xx_flash.c **** 
 771:Libraries/STM32F4xx_StdPeriph_Driver/src/stm32f4xx_flash.c **** /**
 772:Libraries/STM32F4xx_StdPeriph_Driver/src/stm32f4xx_flash.c ****   * @brief  Programs a word (32-bit) at a specified address.
 773:Libraries/STM32F4xx_StdPeriph_Driver/src/stm32f4xx_flash.c ****   *
 774:Libraries/STM32F4xx_StdPeriph_Driver/src/stm32f4xx_flash.c ****   * @note   This function must be used when the device voltage range is from 2.7V to 3.6V. 
 775:Libraries/STM32F4xx_StdPeriph_Driver/src/stm32f4xx_flash.c ****   *
 776:Libraries/STM32F4xx_StdPeriph_Driver/src/stm32f4xx_flash.c ****   * @note   If an erase and a program operations are requested simultaneously,    
 777:Libraries/STM32F4xx_StdPeriph_Driver/src/stm32f4xx_flash.c ****   *         the erase operation is performed before the program one.
 778:Libraries/STM32F4xx_StdPeriph_Driver/src/stm32f4xx_flash.c ****   *  
 779:Libraries/STM32F4xx_StdPeriph_Driver/src/stm32f4xx_flash.c ****   * @param  Address: specifies the address to be programmed.
 780:Libraries/STM32F4xx_StdPeriph_Driver/src/stm32f4xx_flash.c ****   *         This parameter can be any address in Program memory zone or in OTP zone.  
 781:Libraries/STM32F4xx_StdPeriph_Driver/src/stm32f4xx_flash.c ****   * @param  Data: specifies the data to be programmed.
 782:Libraries/STM32F4xx_StdPeriph_Driver/src/stm32f4xx_flash.c ****   * @retval FLASH Status: The returned value can be: FLASH_BUSY, FLASH_ERROR_PROGRAM,
 783:Libraries/STM32F4xx_StdPeriph_Driver/src/stm32f4xx_flash.c ****   *                       FLASH_ERROR_WRP, FLASH_ERROR_OPERATION or FLASH_COMPLETE.
 784:Libraries/STM32F4xx_StdPeriph_Driver/src/stm32f4xx_flash.c ****   */
 785:Libraries/STM32F4xx_StdPeriph_Driver/src/stm32f4xx_flash.c **** FLASH_Status FLASH_ProgramWord(uint32_t Address, uint32_t Data)
 786:Libraries/STM32F4xx_StdPeriph_Driver/src/stm32f4xx_flash.c **** {
 787:Libraries/STM32F4xx_StdPeriph_Driver/src/stm32f4xx_flash.c ****   FLASH_Status status = FLASH_COMPLETE;
 788:Libraries/STM32F4xx_StdPeriph_Driver/src/stm32f4xx_flash.c **** 
 789:Libraries/STM32F4xx_StdPeriph_Driver/src/stm32f4xx_flash.c ****   /* Check the parameters */
 790:Libraries/STM32F4xx_StdPeriph_Driver/src/stm32f4xx_flash.c ****   assert_param(IS_FLASH_ADDRESS(Address));
 791:Libraries/STM32F4xx_StdPeriph_Driver/src/stm32f4xx_flash.c **** 
 792:Libraries/STM32F4xx_StdPeriph_Driver/src/stm32f4xx_flash.c ****   /* Wait for last operation to be completed */
 793:Libraries/STM32F4xx_StdPeriph_Driver/src/stm32f4xx_flash.c ****   status = FLASH_WaitForLastOperation();
 794:Libraries/STM32F4xx_StdPeriph_Driver/src/stm32f4xx_flash.c ****   
 795:Libraries/STM32F4xx_StdPeriph_Driver/src/stm32f4xx_flash.c ****   if(status == FLASH_COMPLETE)
 796:Libraries/STM32F4xx_StdPeriph_Driver/src/stm32f4xx_flash.c ****   {
 797:Libraries/STM32F4xx_StdPeriph_Driver/src/stm32f4xx_flash.c ****     /* if the previous operation is completed, proceed to program the new data */
 798:Libraries/STM32F4xx_StdPeriph_Driver/src/stm32f4xx_flash.c ****     FLASH->CR &= CR_PSIZE_MASK;
 799:Libraries/STM32F4xx_StdPeriph_Driver/src/stm32f4xx_flash.c ****     FLASH->CR |= FLASH_PSIZE_WORD;
 800:Libraries/STM32F4xx_StdPeriph_Driver/src/stm32f4xx_flash.c ****     FLASH->CR |= FLASH_CR_PG;
 801:Libraries/STM32F4xx_StdPeriph_Driver/src/stm32f4xx_flash.c ****   
 802:Libraries/STM32F4xx_StdPeriph_Driver/src/stm32f4xx_flash.c ****     *(__IO uint32_t*)Address = Data;
 803:Libraries/STM32F4xx_StdPeriph_Driver/src/stm32f4xx_flash.c ****         
 804:Libraries/STM32F4xx_StdPeriph_Driver/src/stm32f4xx_flash.c ****     /* Wait for last operation to be completed */
 805:Libraries/STM32F4xx_StdPeriph_Driver/src/stm32f4xx_flash.c ****     status = FLASH_WaitForLastOperation();
 806:Libraries/STM32F4xx_StdPeriph_Driver/src/stm32f4xx_flash.c **** 
 807:Libraries/STM32F4xx_StdPeriph_Driver/src/stm32f4xx_flash.c ****     /* if the program operation is completed, disable the PG Bit */
 808:Libraries/STM32F4xx_StdPeriph_Driver/src/stm32f4xx_flash.c ****     FLASH->CR &= (~FLASH_CR_PG);
 809:Libraries/STM32F4xx_StdPeriph_Driver/src/stm32f4xx_flash.c ****   } 
 810:Libraries/STM32F4xx_StdPeriph_Driver/src/stm32f4xx_flash.c ****   /* Return the Program Status */
 811:Libraries/STM32F4xx_StdPeriph_Driver/src/stm32f4xx_flash.c ****   return status;
 812:Libraries/STM32F4xx_StdPeriph_Driver/src/stm32f4xx_flash.c **** }
 813:Libraries/STM32F4xx_StdPeriph_Driver/src/stm32f4xx_flash.c **** 
 814:Libraries/STM32F4xx_StdPeriph_Driver/src/stm32f4xx_flash.c **** /**
 815:Libraries/STM32F4xx_StdPeriph_Driver/src/stm32f4xx_flash.c ****   * @brief  Programs a half word (16-bit) at a specified address. 
 816:Libraries/STM32F4xx_StdPeriph_Driver/src/stm32f4xx_flash.c ****   * @note   This function must be used when the device voltage range is from 2.1V to 3.6V. 
 817:Libraries/STM32F4xx_StdPeriph_Driver/src/stm32f4xx_flash.c ****   *
 818:Libraries/STM32F4xx_StdPeriph_Driver/src/stm32f4xx_flash.c ****   * @note   If an erase and a program operations are requested simultaneously,    
 819:Libraries/STM32F4xx_StdPeriph_Driver/src/stm32f4xx_flash.c ****   *         the erase operation is performed before the program one.
 820:Libraries/STM32F4xx_StdPeriph_Driver/src/stm32f4xx_flash.c ****   * 
 821:Libraries/STM32F4xx_StdPeriph_Driver/src/stm32f4xx_flash.c ****   * @param  Address: specifies the address to be programmed.
 822:Libraries/STM32F4xx_StdPeriph_Driver/src/stm32f4xx_flash.c ****   *         This parameter can be any address in Program memory zone or in OTP zone.  
 823:Libraries/STM32F4xx_StdPeriph_Driver/src/stm32f4xx_flash.c ****   * @param  Data: specifies the data to be programmed.
 824:Libraries/STM32F4xx_StdPeriph_Driver/src/stm32f4xx_flash.c ****   * @retval FLASH Status: The returned value can be: FLASH_BUSY, FLASH_ERROR_PROGRAM,
 825:Libraries/STM32F4xx_StdPeriph_Driver/src/stm32f4xx_flash.c ****   *                       FLASH_ERROR_WRP, FLASH_ERROR_OPERATION or FLASH_COMPLETE.
 826:Libraries/STM32F4xx_StdPeriph_Driver/src/stm32f4xx_flash.c ****   */
 827:Libraries/STM32F4xx_StdPeriph_Driver/src/stm32f4xx_flash.c **** FLASH_Status FLASH_ProgramHalfWord(uint32_t Address, uint16_t Data)
 828:Libraries/STM32F4xx_StdPeriph_Driver/src/stm32f4xx_flash.c **** {
 829:Libraries/STM32F4xx_StdPeriph_Driver/src/stm32f4xx_flash.c ****   FLASH_Status status = FLASH_COMPLETE;
 830:Libraries/STM32F4xx_StdPeriph_Driver/src/stm32f4xx_flash.c **** 
 831:Libraries/STM32F4xx_StdPeriph_Driver/src/stm32f4xx_flash.c ****   /* Check the parameters */
 832:Libraries/STM32F4xx_StdPeriph_Driver/src/stm32f4xx_flash.c ****   assert_param(IS_FLASH_ADDRESS(Address));
 833:Libraries/STM32F4xx_StdPeriph_Driver/src/stm32f4xx_flash.c **** 
 834:Libraries/STM32F4xx_StdPeriph_Driver/src/stm32f4xx_flash.c ****   /* Wait for last operation to be completed */
 835:Libraries/STM32F4xx_StdPeriph_Driver/src/stm32f4xx_flash.c ****   status = FLASH_WaitForLastOperation();
 836:Libraries/STM32F4xx_StdPeriph_Driver/src/stm32f4xx_flash.c ****   
 837:Libraries/STM32F4xx_StdPeriph_Driver/src/stm32f4xx_flash.c ****   if(status == FLASH_COMPLETE)
 838:Libraries/STM32F4xx_StdPeriph_Driver/src/stm32f4xx_flash.c ****   {
 839:Libraries/STM32F4xx_StdPeriph_Driver/src/stm32f4xx_flash.c ****     /* if the previous operation is completed, proceed to program the new data */
 840:Libraries/STM32F4xx_StdPeriph_Driver/src/stm32f4xx_flash.c ****     FLASH->CR &= CR_PSIZE_MASK;
 841:Libraries/STM32F4xx_StdPeriph_Driver/src/stm32f4xx_flash.c ****     FLASH->CR |= FLASH_PSIZE_HALF_WORD;
 842:Libraries/STM32F4xx_StdPeriph_Driver/src/stm32f4xx_flash.c ****     FLASH->CR |= FLASH_CR_PG;
 843:Libraries/STM32F4xx_StdPeriph_Driver/src/stm32f4xx_flash.c ****   
 844:Libraries/STM32F4xx_StdPeriph_Driver/src/stm32f4xx_flash.c ****     *(__IO uint16_t*)Address = Data;
 845:Libraries/STM32F4xx_StdPeriph_Driver/src/stm32f4xx_flash.c ****         
 846:Libraries/STM32F4xx_StdPeriph_Driver/src/stm32f4xx_flash.c ****     /* Wait for last operation to be completed */
 847:Libraries/STM32F4xx_StdPeriph_Driver/src/stm32f4xx_flash.c ****     status = FLASH_WaitForLastOperation();
 848:Libraries/STM32F4xx_StdPeriph_Driver/src/stm32f4xx_flash.c **** 
 849:Libraries/STM32F4xx_StdPeriph_Driver/src/stm32f4xx_flash.c ****     /* if the program operation is completed, disable the PG Bit */
 850:Libraries/STM32F4xx_StdPeriph_Driver/src/stm32f4xx_flash.c ****     FLASH->CR &= (~FLASH_CR_PG);
 851:Libraries/STM32F4xx_StdPeriph_Driver/src/stm32f4xx_flash.c ****   } 
 852:Libraries/STM32F4xx_StdPeriph_Driver/src/stm32f4xx_flash.c ****   /* Return the Program Status */
 853:Libraries/STM32F4xx_StdPeriph_Driver/src/stm32f4xx_flash.c ****   return status;
 854:Libraries/STM32F4xx_StdPeriph_Driver/src/stm32f4xx_flash.c **** }
 855:Libraries/STM32F4xx_StdPeriph_Driver/src/stm32f4xx_flash.c **** 
 856:Libraries/STM32F4xx_StdPeriph_Driver/src/stm32f4xx_flash.c **** /**
 857:Libraries/STM32F4xx_StdPeriph_Driver/src/stm32f4xx_flash.c ****   * @brief  Programs a byte (8-bit) at a specified address.
 858:Libraries/STM32F4xx_StdPeriph_Driver/src/stm32f4xx_flash.c ****   * @note   This function can be used within all the device supply voltage ranges.  
 859:Libraries/STM32F4xx_StdPeriph_Driver/src/stm32f4xx_flash.c ****   *
 860:Libraries/STM32F4xx_StdPeriph_Driver/src/stm32f4xx_flash.c ****   * @note   If an erase and a program operations are requested simultaneously,    
 861:Libraries/STM32F4xx_StdPeriph_Driver/src/stm32f4xx_flash.c ****   *         the erase operation is performed before the program one.
 862:Libraries/STM32F4xx_StdPeriph_Driver/src/stm32f4xx_flash.c ****   * 
 863:Libraries/STM32F4xx_StdPeriph_Driver/src/stm32f4xx_flash.c ****   * @param  Address: specifies the address to be programmed.
 864:Libraries/STM32F4xx_StdPeriph_Driver/src/stm32f4xx_flash.c ****   *         This parameter can be any address in Program memory zone or in OTP zone.  
 865:Libraries/STM32F4xx_StdPeriph_Driver/src/stm32f4xx_flash.c ****   * @param  Data: specifies the data to be programmed.
 866:Libraries/STM32F4xx_StdPeriph_Driver/src/stm32f4xx_flash.c ****   * @retval FLASH Status: The returned value can be: FLASH_BUSY, FLASH_ERROR_PROGRAM,
 867:Libraries/STM32F4xx_StdPeriph_Driver/src/stm32f4xx_flash.c ****   *                       FLASH_ERROR_WRP, FLASH_ERROR_OPERATION or FLASH_COMPLETE.
 868:Libraries/STM32F4xx_StdPeriph_Driver/src/stm32f4xx_flash.c ****   */
 869:Libraries/STM32F4xx_StdPeriph_Driver/src/stm32f4xx_flash.c **** FLASH_Status FLASH_ProgramByte(uint32_t Address, uint8_t Data)
 870:Libraries/STM32F4xx_StdPeriph_Driver/src/stm32f4xx_flash.c **** {
 871:Libraries/STM32F4xx_StdPeriph_Driver/src/stm32f4xx_flash.c ****   FLASH_Status status = FLASH_COMPLETE;
 872:Libraries/STM32F4xx_StdPeriph_Driver/src/stm32f4xx_flash.c **** 
 873:Libraries/STM32F4xx_StdPeriph_Driver/src/stm32f4xx_flash.c ****   /* Check the parameters */
 874:Libraries/STM32F4xx_StdPeriph_Driver/src/stm32f4xx_flash.c ****   assert_param(IS_FLASH_ADDRESS(Address));
 875:Libraries/STM32F4xx_StdPeriph_Driver/src/stm32f4xx_flash.c **** 
 876:Libraries/STM32F4xx_StdPeriph_Driver/src/stm32f4xx_flash.c ****   /* Wait for last operation to be completed */
 877:Libraries/STM32F4xx_StdPeriph_Driver/src/stm32f4xx_flash.c ****   status = FLASH_WaitForLastOperation();
 878:Libraries/STM32F4xx_StdPeriph_Driver/src/stm32f4xx_flash.c ****   
 879:Libraries/STM32F4xx_StdPeriph_Driver/src/stm32f4xx_flash.c ****   if(status == FLASH_COMPLETE)
 880:Libraries/STM32F4xx_StdPeriph_Driver/src/stm32f4xx_flash.c ****   {
 881:Libraries/STM32F4xx_StdPeriph_Driver/src/stm32f4xx_flash.c ****     /* if the previous operation is completed, proceed to program the new data */
 882:Libraries/STM32F4xx_StdPeriph_Driver/src/stm32f4xx_flash.c ****     FLASH->CR &= CR_PSIZE_MASK;
 883:Libraries/STM32F4xx_StdPeriph_Driver/src/stm32f4xx_flash.c ****     FLASH->CR |= FLASH_PSIZE_BYTE;
 884:Libraries/STM32F4xx_StdPeriph_Driver/src/stm32f4xx_flash.c ****     FLASH->CR |= FLASH_CR_PG;
 885:Libraries/STM32F4xx_StdPeriph_Driver/src/stm32f4xx_flash.c ****   
 886:Libraries/STM32F4xx_StdPeriph_Driver/src/stm32f4xx_flash.c ****     *(__IO uint8_t*)Address = Data;
 887:Libraries/STM32F4xx_StdPeriph_Driver/src/stm32f4xx_flash.c ****         
 888:Libraries/STM32F4xx_StdPeriph_Driver/src/stm32f4xx_flash.c ****     /* Wait for last operation to be completed */
 889:Libraries/STM32F4xx_StdPeriph_Driver/src/stm32f4xx_flash.c ****     status = FLASH_WaitForLastOperation();
 890:Libraries/STM32F4xx_StdPeriph_Driver/src/stm32f4xx_flash.c **** 
 891:Libraries/STM32F4xx_StdPeriph_Driver/src/stm32f4xx_flash.c ****     /* if the program operation is completed, disable the PG Bit */
 892:Libraries/STM32F4xx_StdPeriph_Driver/src/stm32f4xx_flash.c ****     FLASH->CR &= (~FLASH_CR_PG);
 893:Libraries/STM32F4xx_StdPeriph_Driver/src/stm32f4xx_flash.c ****   } 
 894:Libraries/STM32F4xx_StdPeriph_Driver/src/stm32f4xx_flash.c **** 
 895:Libraries/STM32F4xx_StdPeriph_Driver/src/stm32f4xx_flash.c ****   /* Return the Program Status */
 896:Libraries/STM32F4xx_StdPeriph_Driver/src/stm32f4xx_flash.c ****   return status;
 897:Libraries/STM32F4xx_StdPeriph_Driver/src/stm32f4xx_flash.c **** }
 898:Libraries/STM32F4xx_StdPeriph_Driver/src/stm32f4xx_flash.c **** 
 899:Libraries/STM32F4xx_StdPeriph_Driver/src/stm32f4xx_flash.c **** /**
 900:Libraries/STM32F4xx_StdPeriph_Driver/src/stm32f4xx_flash.c ****   * @}
 901:Libraries/STM32F4xx_StdPeriph_Driver/src/stm32f4xx_flash.c ****   */
 902:Libraries/STM32F4xx_StdPeriph_Driver/src/stm32f4xx_flash.c **** 
 903:Libraries/STM32F4xx_StdPeriph_Driver/src/stm32f4xx_flash.c **** /** @defgroup FLASH_Group3 Option Bytes Programming functions
 904:Libraries/STM32F4xx_StdPeriph_Driver/src/stm32f4xx_flash.c ****  *  @brief   Option Bytes Programming functions 
 905:Libraries/STM32F4xx_StdPeriph_Driver/src/stm32f4xx_flash.c ****  *
 906:Libraries/STM32F4xx_StdPeriph_Driver/src/stm32f4xx_flash.c **** @verbatim   
 907:Libraries/STM32F4xx_StdPeriph_Driver/src/stm32f4xx_flash.c ****  ===============================================================================
 908:Libraries/STM32F4xx_StdPeriph_Driver/src/stm32f4xx_flash.c ****                 ##### Option Bytes Programming functions #####
 909:Libraries/STM32F4xx_StdPeriph_Driver/src/stm32f4xx_flash.c ****  ===============================================================================  
 910:Libraries/STM32F4xx_StdPeriph_Driver/src/stm32f4xx_flash.c ****     [..]
 911:Libraries/STM32F4xx_StdPeriph_Driver/src/stm32f4xx_flash.c ****       This group includes the following functions:
 912:Libraries/STM32F4xx_StdPeriph_Driver/src/stm32f4xx_flash.c ****       (+) void FLASH_OB_Unlock(void)
 913:Libraries/STM32F4xx_StdPeriph_Driver/src/stm32f4xx_flash.c ****       (+) void FLASH_OB_Lock(void)
 914:Libraries/STM32F4xx_StdPeriph_Driver/src/stm32f4xx_flash.c ****       (+) void FLASH_OB_WRPConfig(uint32_t OB_WRP, FunctionalState NewState)
 915:Libraries/STM32F4xx_StdPeriph_Driver/src/stm32f4xx_flash.c ****       (+) void FLASH_OB_WRP1Config(uint32_t OB_WRP, FunctionalState NewState)  
 916:Libraries/STM32F4xx_StdPeriph_Driver/src/stm32f4xx_flash.c ****       (+) void FLASH_OB_PCROPSelectionConfig(uint8_t OB_PCROPSelect)
 917:Libraries/STM32F4xx_StdPeriph_Driver/src/stm32f4xx_flash.c ****       (+) void FLASH_OB_PCROPConfig(uint32_t OB_PCROP, FunctionalState NewState)
 918:Libraries/STM32F4xx_StdPeriph_Driver/src/stm32f4xx_flash.c ****       (+) void FLASH_OB_PCROP1Config(uint32_t OB_PCROP, FunctionalState NewState) 
 919:Libraries/STM32F4xx_StdPeriph_Driver/src/stm32f4xx_flash.c ****       (+) void FLASH_OB_RDPConfig(uint8_t OB_RDP)
 920:Libraries/STM32F4xx_StdPeriph_Driver/src/stm32f4xx_flash.c ****       (+) void FLASH_OB_UserConfig(uint8_t OB_IWDG, uint8_t OB_STOP, uint8_t OB_STDBY)
 921:Libraries/STM32F4xx_StdPeriph_Driver/src/stm32f4xx_flash.c ****       (+) void FLASH_OB_BORConfig(uint8_t OB_BOR)
 922:Libraries/STM32F4xx_StdPeriph_Driver/src/stm32f4xx_flash.c ****       (+) FLASH_Status FLASH_ProgramOTP(uint32_t Address, uint32_t Data)
 923:Libraries/STM32F4xx_StdPeriph_Driver/src/stm32f4xx_flash.c ****       (+) FLASH_Status FLASH_OB_Launch(void)
 924:Libraries/STM32F4xx_StdPeriph_Driver/src/stm32f4xx_flash.c ****       (+) uint32_t FLASH_OB_GetUser(void)
 925:Libraries/STM32F4xx_StdPeriph_Driver/src/stm32f4xx_flash.c ****       (+) uint8_t FLASH_OB_GetWRP(void)
 926:Libraries/STM32F4xx_StdPeriph_Driver/src/stm32f4xx_flash.c ****       (+) uint8_t FLASH_OB_GetWRP1(void)
 927:Libraries/STM32F4xx_StdPeriph_Driver/src/stm32f4xx_flash.c ****       (+) uint8_t FLASH_OB_GetPCROP(void)
 928:Libraries/STM32F4xx_StdPeriph_Driver/src/stm32f4xx_flash.c ****       (+) uint8_t FLASH_OB_GetPCROP1(void)
 929:Libraries/STM32F4xx_StdPeriph_Driver/src/stm32f4xx_flash.c ****       (+) uint8_t FLASH_OB_GetRDP(void)
 930:Libraries/STM32F4xx_StdPeriph_Driver/src/stm32f4xx_flash.c ****       (+) uint8_t FLASH_OB_GetBOR(void)
 931:Libraries/STM32F4xx_StdPeriph_Driver/src/stm32f4xx_flash.c ****     [..]  
 932:Libraries/STM32F4xx_StdPeriph_Driver/src/stm32f4xx_flash.c ****       The following function can be used only for STM32F42xxx/43xxx devices. 
 933:Libraries/STM32F4xx_StdPeriph_Driver/src/stm32f4xx_flash.c ****       (+) void FLASH_OB_BootConfig(uint8_t OB_BOOT)
 934:Libraries/STM32F4xx_StdPeriph_Driver/src/stm32f4xx_flash.c ****     [..]   
 935:Libraries/STM32F4xx_StdPeriph_Driver/src/stm32f4xx_flash.c ****      Any operation of erase or program should follow these steps:
 936:Libraries/STM32F4xx_StdPeriph_Driver/src/stm32f4xx_flash.c ****       (#) Call the FLASH_OB_Unlock() function to enable the FLASH option control 
 937:Libraries/STM32F4xx_StdPeriph_Driver/src/stm32f4xx_flash.c ****           register access
 938:Libraries/STM32F4xx_StdPeriph_Driver/src/stm32f4xx_flash.c **** 
 939:Libraries/STM32F4xx_StdPeriph_Driver/src/stm32f4xx_flash.c ****       (#) Call one or several functions to program the desired Option Bytes:
 940:Libraries/STM32F4xx_StdPeriph_Driver/src/stm32f4xx_flash.c ****         (++) void FLASH_OB_WRPConfig(uint32_t OB_WRP, FunctionalState NewState) 
 941:Libraries/STM32F4xx_StdPeriph_Driver/src/stm32f4xx_flash.c ****              => to Enable/Disable the desired sector write protection
 942:Libraries/STM32F4xx_StdPeriph_Driver/src/stm32f4xx_flash.c ****         (++) void FLASH_OB_RDPConfig(uint8_t OB_RDP) => to set the desired read 
 943:Libraries/STM32F4xx_StdPeriph_Driver/src/stm32f4xx_flash.c ****              Protection Level
 944:Libraries/STM32F4xx_StdPeriph_Driver/src/stm32f4xx_flash.c ****         (++) void FLASH_OB_UserConfig(uint8_t OB_IWDG, uint8_t OB_STOP, uint8_t OB_STDBY) 
 945:Libraries/STM32F4xx_StdPeriph_Driver/src/stm32f4xx_flash.c ****              => to configure the user Option Bytes.
 946:Libraries/STM32F4xx_StdPeriph_Driver/src/stm32f4xx_flash.c ****         (++) void FLASH_OB_BORConfig(uint8_t OB_BOR) => to set the BOR Level 			 
 947:Libraries/STM32F4xx_StdPeriph_Driver/src/stm32f4xx_flash.c **** 
 948:Libraries/STM32F4xx_StdPeriph_Driver/src/stm32f4xx_flash.c ****       (#) Once all needed Option Bytes to be programmed are correctly written, 
 949:Libraries/STM32F4xx_StdPeriph_Driver/src/stm32f4xx_flash.c ****           call the FLASH_OB_Launch() function to launch the Option Bytes 
 950:Libraries/STM32F4xx_StdPeriph_Driver/src/stm32f4xx_flash.c ****           programming process.
 951:Libraries/STM32F4xx_StdPeriph_Driver/src/stm32f4xx_flash.c ****      
 952:Libraries/STM32F4xx_StdPeriph_Driver/src/stm32f4xx_flash.c ****       -@- When changing the IWDG mode from HW to SW or from SW to HW, a system 
 953:Libraries/STM32F4xx_StdPeriph_Driver/src/stm32f4xx_flash.c ****           reset is needed to make the change effective.  
 954:Libraries/STM32F4xx_StdPeriph_Driver/src/stm32f4xx_flash.c **** 
 955:Libraries/STM32F4xx_StdPeriph_Driver/src/stm32f4xx_flash.c ****       (#) Call the FLASH_OB_Lock() function to disable the FLASH option control 
 956:Libraries/STM32F4xx_StdPeriph_Driver/src/stm32f4xx_flash.c ****           register access (recommended to protect the Option Bytes against 
 957:Libraries/STM32F4xx_StdPeriph_Driver/src/stm32f4xx_flash.c ****           possible unwanted operations)
 958:Libraries/STM32F4xx_StdPeriph_Driver/src/stm32f4xx_flash.c ****     
 959:Libraries/STM32F4xx_StdPeriph_Driver/src/stm32f4xx_flash.c **** @endverbatim
 960:Libraries/STM32F4xx_StdPeriph_Driver/src/stm32f4xx_flash.c ****   * @{
 961:Libraries/STM32F4xx_StdPeriph_Driver/src/stm32f4xx_flash.c ****   */
 962:Libraries/STM32F4xx_StdPeriph_Driver/src/stm32f4xx_flash.c **** 
 963:Libraries/STM32F4xx_StdPeriph_Driver/src/stm32f4xx_flash.c **** /**
 964:Libraries/STM32F4xx_StdPeriph_Driver/src/stm32f4xx_flash.c ****   * @brief  Unlocks the FLASH Option Control Registers access.
 965:Libraries/STM32F4xx_StdPeriph_Driver/src/stm32f4xx_flash.c ****   * @param  None
 966:Libraries/STM32F4xx_StdPeriph_Driver/src/stm32f4xx_flash.c ****   * @retval None
 967:Libraries/STM32F4xx_StdPeriph_Driver/src/stm32f4xx_flash.c ****   */
 968:Libraries/STM32F4xx_StdPeriph_Driver/src/stm32f4xx_flash.c **** void FLASH_OB_Unlock(void)
 969:Libraries/STM32F4xx_StdPeriph_Driver/src/stm32f4xx_flash.c **** {
 336              		.loc 1 969 0
 337              		.cfi_startproc
 338              		@ args = 0, pretend = 0, frame = 0
 339              		@ frame_needed = 0, uses_anonymous_args = 0
 340              		@ link register save eliminated.
 970:Libraries/STM32F4xx_StdPeriph_Driver/src/stm32f4xx_flash.c ****   if((FLASH->OPTCR & FLASH_OPTCR_OPTLOCK) != RESET)
 341              		.loc 1 970 0
 342 0000 4FF47053 		mov	r3, #15360
 343 0004 C4F20203 		movt	r3, 16386
 344 0008 5A69     		ldr	r2, [r3, #20]
 345 000a D207     		lsls	r2, r2, #31
 346 000c 09D5     		bpl	.L24
 971:Libraries/STM32F4xx_StdPeriph_Driver/src/stm32f4xx_flash.c ****   {
 972:Libraries/STM32F4xx_StdPeriph_Driver/src/stm32f4xx_flash.c ****     /* Authorizes the Option Byte register programming */
 973:Libraries/STM32F4xx_StdPeriph_Driver/src/stm32f4xx_flash.c ****     FLASH->OPTKEYR = FLASH_OPT_KEY1;
 347              		.loc 1 973 0
 348 000e 42F63B21 		movw	r1, #10811
 974:Libraries/STM32F4xx_StdPeriph_Driver/src/stm32f4xx_flash.c ****     FLASH->OPTKEYR = FLASH_OPT_KEY2;
 349              		.loc 1 974 0
 350 0012 46F67F62 		movw	r2, #28287
 973:Libraries/STM32F4xx_StdPeriph_Driver/src/stm32f4xx_flash.c ****     FLASH->OPTKEYR = FLASH_OPT_KEY2;
 351              		.loc 1 973 0
 352 0016 C0F61901 		movt	r1, 2073
 353              		.loc 1 974 0
 354 001a C4F65D42 		movt	r2, 19549
 973:Libraries/STM32F4xx_StdPeriph_Driver/src/stm32f4xx_flash.c ****     FLASH->OPTKEYR = FLASH_OPT_KEY2;
 355              		.loc 1 973 0
 356 001e 9960     		str	r1, [r3, #8]
 357              		.loc 1 974 0
 358 0020 9A60     		str	r2, [r3, #8]
 359              	.L24:
 360 0022 7047     		bx	lr
 361              		.cfi_endproc
 362              	.LFE139:
 364              		.section	.text.FLASH_OB_Lock,"ax",%progbits
 365              		.align	2
 366              		.global	FLASH_OB_Lock
 367              		.thumb
 368              		.thumb_func
 370              	FLASH_OB_Lock:
 371              	.LFB140:
 975:Libraries/STM32F4xx_StdPeriph_Driver/src/stm32f4xx_flash.c ****   }  
 976:Libraries/STM32F4xx_StdPeriph_Driver/src/stm32f4xx_flash.c **** }
 977:Libraries/STM32F4xx_StdPeriph_Driver/src/stm32f4xx_flash.c **** 
 978:Libraries/STM32F4xx_StdPeriph_Driver/src/stm32f4xx_flash.c **** /**
 979:Libraries/STM32F4xx_StdPeriph_Driver/src/stm32f4xx_flash.c ****   * @brief  Locks the FLASH Option Control Registers access.
 980:Libraries/STM32F4xx_StdPeriph_Driver/src/stm32f4xx_flash.c ****   * @param  None
 981:Libraries/STM32F4xx_StdPeriph_Driver/src/stm32f4xx_flash.c ****   * @retval None
 982:Libraries/STM32F4xx_StdPeriph_Driver/src/stm32f4xx_flash.c ****   */
 983:Libraries/STM32F4xx_StdPeriph_Driver/src/stm32f4xx_flash.c **** void FLASH_OB_Lock(void)
 984:Libraries/STM32F4xx_StdPeriph_Driver/src/stm32f4xx_flash.c **** {
 372              		.loc 1 984 0
 373              		.cfi_startproc
 374              		@ args = 0, pretend = 0, frame = 0
 375              		@ frame_needed = 0, uses_anonymous_args = 0
 376              		@ link register save eliminated.
 985:Libraries/STM32F4xx_StdPeriph_Driver/src/stm32f4xx_flash.c ****   /* Set the OPTLOCK Bit to lock the FLASH Option Byte Registers access */
 986:Libraries/STM32F4xx_StdPeriph_Driver/src/stm32f4xx_flash.c ****   FLASH->OPTCR |= FLASH_OPTCR_OPTLOCK;
 377              		.loc 1 986 0
 378 0000 4FF47053 		mov	r3, #15360
 379 0004 C4F20203 		movt	r3, 16386
 380 0008 5A69     		ldr	r2, [r3, #20]
 381 000a 42F00102 		orr	r2, r2, #1
 382 000e 5A61     		str	r2, [r3, #20]
 383 0010 7047     		bx	lr
 384              		.cfi_endproc
 385              	.LFE140:
 387 0012 00BF     		.section	.text.FLASH_OB_PCROPSelectionConfig,"ax",%progbits
 388              		.align	2
 389              		.global	FLASH_OB_PCROPSelectionConfig
 390              		.thumb
 391              		.thumb_func
 393              	FLASH_OB_PCROPSelectionConfig:
 394              	.LFB143:
 987:Libraries/STM32F4xx_StdPeriph_Driver/src/stm32f4xx_flash.c **** }
 988:Libraries/STM32F4xx_StdPeriph_Driver/src/stm32f4xx_flash.c **** 
 989:Libraries/STM32F4xx_StdPeriph_Driver/src/stm32f4xx_flash.c **** /**
 990:Libraries/STM32F4xx_StdPeriph_Driver/src/stm32f4xx_flash.c ****   * @brief  Enables or disables the write protection of the desired sectors, for the first
 991:Libraries/STM32F4xx_StdPeriph_Driver/src/stm32f4xx_flash.c ****   *         1 Mb of the Flash  
 992:Libraries/STM32F4xx_StdPeriph_Driver/src/stm32f4xx_flash.c ****   *
 993:Libraries/STM32F4xx_StdPeriph_Driver/src/stm32f4xx_flash.c ****   * @note   When the memory read protection level is selected (RDP level = 1), 
 994:Libraries/STM32F4xx_StdPeriph_Driver/src/stm32f4xx_flash.c ****   *         it is not possible to program or erase the flash sector i if CortexM4  
 995:Libraries/STM32F4xx_StdPeriph_Driver/src/stm32f4xx_flash.c ****   *         debug features are connected or boot code is executed in RAM, even if nWRPi = 1 
 996:Libraries/STM32F4xx_StdPeriph_Driver/src/stm32f4xx_flash.c ****   * @note   Active value of nWRPi bits is inverted when PCROP mode is active (SPRMOD =1).   
 997:Libraries/STM32F4xx_StdPeriph_Driver/src/stm32f4xx_flash.c ****   * 
 998:Libraries/STM32F4xx_StdPeriph_Driver/src/stm32f4xx_flash.c ****   * @param  OB_WRP: specifies the sector(s) to be write protected or unprotected.
 999:Libraries/STM32F4xx_StdPeriph_Driver/src/stm32f4xx_flash.c ****   *          This parameter can be one of the following values:
1000:Libraries/STM32F4xx_StdPeriph_Driver/src/stm32f4xx_flash.c ****   *            @arg OB_WRP: A value between OB_WRP_Sector0 and OB_WRP_Sector11                     
1001:Libraries/STM32F4xx_StdPeriph_Driver/src/stm32f4xx_flash.c ****   *            @arg OB_WRP_Sector_All
1002:Libraries/STM32F4xx_StdPeriph_Driver/src/stm32f4xx_flash.c ****   * @param  Newstate: new state of the Write Protection.
1003:Libraries/STM32F4xx_StdPeriph_Driver/src/stm32f4xx_flash.c ****   *          This parameter can be: ENABLE or DISABLE.
1004:Libraries/STM32F4xx_StdPeriph_Driver/src/stm32f4xx_flash.c ****   * @retval None  
1005:Libraries/STM32F4xx_StdPeriph_Driver/src/stm32f4xx_flash.c ****   */
1006:Libraries/STM32F4xx_StdPeriph_Driver/src/stm32f4xx_flash.c **** void FLASH_OB_WRPConfig(uint32_t OB_WRP, FunctionalState NewState)
1007:Libraries/STM32F4xx_StdPeriph_Driver/src/stm32f4xx_flash.c **** { 
1008:Libraries/STM32F4xx_StdPeriph_Driver/src/stm32f4xx_flash.c ****   FLASH_Status status = FLASH_COMPLETE;
1009:Libraries/STM32F4xx_StdPeriph_Driver/src/stm32f4xx_flash.c ****   
1010:Libraries/STM32F4xx_StdPeriph_Driver/src/stm32f4xx_flash.c ****   /* Check the parameters */
1011:Libraries/STM32F4xx_StdPeriph_Driver/src/stm32f4xx_flash.c ****   assert_param(IS_OB_WRP(OB_WRP));
1012:Libraries/STM32F4xx_StdPeriph_Driver/src/stm32f4xx_flash.c ****   assert_param(IS_FUNCTIONAL_STATE(NewState));
1013:Libraries/STM32F4xx_StdPeriph_Driver/src/stm32f4xx_flash.c ****     
1014:Libraries/STM32F4xx_StdPeriph_Driver/src/stm32f4xx_flash.c ****   status = FLASH_WaitForLastOperation();
1015:Libraries/STM32F4xx_StdPeriph_Driver/src/stm32f4xx_flash.c **** 
1016:Libraries/STM32F4xx_StdPeriph_Driver/src/stm32f4xx_flash.c ****   if(status == FLASH_COMPLETE)
1017:Libraries/STM32F4xx_StdPeriph_Driver/src/stm32f4xx_flash.c ****   { 
1018:Libraries/STM32F4xx_StdPeriph_Driver/src/stm32f4xx_flash.c ****     if(NewState != DISABLE)
1019:Libraries/STM32F4xx_StdPeriph_Driver/src/stm32f4xx_flash.c ****     {
1020:Libraries/STM32F4xx_StdPeriph_Driver/src/stm32f4xx_flash.c ****       *(__IO uint16_t*)OPTCR_BYTE2_ADDRESS &= (~OB_WRP);
1021:Libraries/STM32F4xx_StdPeriph_Driver/src/stm32f4xx_flash.c ****     }
1022:Libraries/STM32F4xx_StdPeriph_Driver/src/stm32f4xx_flash.c ****     else
1023:Libraries/STM32F4xx_StdPeriph_Driver/src/stm32f4xx_flash.c ****     {
1024:Libraries/STM32F4xx_StdPeriph_Driver/src/stm32f4xx_flash.c ****       *(__IO uint16_t*)OPTCR_BYTE2_ADDRESS |= (uint16_t)OB_WRP;
1025:Libraries/STM32F4xx_StdPeriph_Driver/src/stm32f4xx_flash.c ****     }
1026:Libraries/STM32F4xx_StdPeriph_Driver/src/stm32f4xx_flash.c ****   }
1027:Libraries/STM32F4xx_StdPeriph_Driver/src/stm32f4xx_flash.c **** }
1028:Libraries/STM32F4xx_StdPeriph_Driver/src/stm32f4xx_flash.c **** 
1029:Libraries/STM32F4xx_StdPeriph_Driver/src/stm32f4xx_flash.c **** /**
1030:Libraries/STM32F4xx_StdPeriph_Driver/src/stm32f4xx_flash.c ****   * @brief  Enables or disables the write protection of the desired sectors, for the second
1031:Libraries/STM32F4xx_StdPeriph_Driver/src/stm32f4xx_flash.c ****   *         1 Mb of the Flash  
1032:Libraries/STM32F4xx_StdPeriph_Driver/src/stm32f4xx_flash.c ****   *           
1033:Libraries/STM32F4xx_StdPeriph_Driver/src/stm32f4xx_flash.c ****   * @note   This function can be used only for STM32F42xxx/43xxx devices.
1034:Libraries/STM32F4xx_StdPeriph_Driver/src/stm32f4xx_flash.c ****   *   
1035:Libraries/STM32F4xx_StdPeriph_Driver/src/stm32f4xx_flash.c ****   * @note   When the memory read out protection is selected (RDP level = 1), 
1036:Libraries/STM32F4xx_StdPeriph_Driver/src/stm32f4xx_flash.c ****   *         it is not possible to program or erase the flash sector i if CortexM4  
1037:Libraries/STM32F4xx_StdPeriph_Driver/src/stm32f4xx_flash.c ****   *         debug features are connected or boot code is executed in RAM, even if nWRPi = 1 
1038:Libraries/STM32F4xx_StdPeriph_Driver/src/stm32f4xx_flash.c ****   * @note   Active value of nWRPi bits is inverted when PCROP mode is active (SPRMOD =1).      
1039:Libraries/STM32F4xx_StdPeriph_Driver/src/stm32f4xx_flash.c ****   * 
1040:Libraries/STM32F4xx_StdPeriph_Driver/src/stm32f4xx_flash.c ****   * @param  OB_WRP: specifies the sector(s) to be write protected or unprotected.
1041:Libraries/STM32F4xx_StdPeriph_Driver/src/stm32f4xx_flash.c ****   *          This parameter can be one of the following values:
1042:Libraries/STM32F4xx_StdPeriph_Driver/src/stm32f4xx_flash.c ****   *            @arg OB_WRP: A value between OB_WRP_Sector12 and OB_WRP_Sector23
1043:Libraries/STM32F4xx_StdPeriph_Driver/src/stm32f4xx_flash.c ****   *            @arg OB_WRP_Sector_All                        
1044:Libraries/STM32F4xx_StdPeriph_Driver/src/stm32f4xx_flash.c ****   * @param  Newstate: new state of the Write Protection.
1045:Libraries/STM32F4xx_StdPeriph_Driver/src/stm32f4xx_flash.c ****   *          This parameter can be: ENABLE or DISABLE.
1046:Libraries/STM32F4xx_StdPeriph_Driver/src/stm32f4xx_flash.c ****   * @retval None  
1047:Libraries/STM32F4xx_StdPeriph_Driver/src/stm32f4xx_flash.c ****   */
1048:Libraries/STM32F4xx_StdPeriph_Driver/src/stm32f4xx_flash.c **** void FLASH_OB_WRP1Config(uint32_t OB_WRP, FunctionalState NewState)
1049:Libraries/STM32F4xx_StdPeriph_Driver/src/stm32f4xx_flash.c **** { 
1050:Libraries/STM32F4xx_StdPeriph_Driver/src/stm32f4xx_flash.c ****   FLASH_Status status = FLASH_COMPLETE;
1051:Libraries/STM32F4xx_StdPeriph_Driver/src/stm32f4xx_flash.c ****   
1052:Libraries/STM32F4xx_StdPeriph_Driver/src/stm32f4xx_flash.c ****   /* Check the parameters */
1053:Libraries/STM32F4xx_StdPeriph_Driver/src/stm32f4xx_flash.c ****   assert_param(IS_OB_WRP(OB_WRP));
1054:Libraries/STM32F4xx_StdPeriph_Driver/src/stm32f4xx_flash.c ****   assert_param(IS_FUNCTIONAL_STATE(NewState));
1055:Libraries/STM32F4xx_StdPeriph_Driver/src/stm32f4xx_flash.c ****     
1056:Libraries/STM32F4xx_StdPeriph_Driver/src/stm32f4xx_flash.c ****   status = FLASH_WaitForLastOperation();
1057:Libraries/STM32F4xx_StdPeriph_Driver/src/stm32f4xx_flash.c **** 
1058:Libraries/STM32F4xx_StdPeriph_Driver/src/stm32f4xx_flash.c ****   if(status == FLASH_COMPLETE)
1059:Libraries/STM32F4xx_StdPeriph_Driver/src/stm32f4xx_flash.c ****   { 
1060:Libraries/STM32F4xx_StdPeriph_Driver/src/stm32f4xx_flash.c ****     if(NewState != DISABLE)
1061:Libraries/STM32F4xx_StdPeriph_Driver/src/stm32f4xx_flash.c ****     {
1062:Libraries/STM32F4xx_StdPeriph_Driver/src/stm32f4xx_flash.c ****       *(__IO uint16_t*)OPTCR1_BYTE2_ADDRESS &= (~OB_WRP);
1063:Libraries/STM32F4xx_StdPeriph_Driver/src/stm32f4xx_flash.c ****     }
1064:Libraries/STM32F4xx_StdPeriph_Driver/src/stm32f4xx_flash.c ****     else
1065:Libraries/STM32F4xx_StdPeriph_Driver/src/stm32f4xx_flash.c ****     {
1066:Libraries/STM32F4xx_StdPeriph_Driver/src/stm32f4xx_flash.c ****       *(__IO uint16_t*)OPTCR1_BYTE2_ADDRESS |= (uint16_t)OB_WRP;
1067:Libraries/STM32F4xx_StdPeriph_Driver/src/stm32f4xx_flash.c ****     }
1068:Libraries/STM32F4xx_StdPeriph_Driver/src/stm32f4xx_flash.c ****   }
1069:Libraries/STM32F4xx_StdPeriph_Driver/src/stm32f4xx_flash.c **** }
1070:Libraries/STM32F4xx_StdPeriph_Driver/src/stm32f4xx_flash.c **** 
1071:Libraries/STM32F4xx_StdPeriph_Driver/src/stm32f4xx_flash.c **** /**
1072:Libraries/STM32F4xx_StdPeriph_Driver/src/stm32f4xx_flash.c ****   * @brief  Select the Protection Mode (SPRMOD). 
1073:Libraries/STM32F4xx_StdPeriph_Driver/src/stm32f4xx_flash.c ****   * 
1074:Libraries/STM32F4xx_StdPeriph_Driver/src/stm32f4xx_flash.c ****   * @note   This function can be used only for STM32F42xxx/43xxx and STM32F401xx/411xE devices.    
1075:Libraries/STM32F4xx_StdPeriph_Driver/src/stm32f4xx_flash.c ****   * 
1076:Libraries/STM32F4xx_StdPeriph_Driver/src/stm32f4xx_flash.c ****   * @note   After PCROP activation, Option Byte modification is not possible. 
1077:Libraries/STM32F4xx_StdPeriph_Driver/src/stm32f4xx_flash.c ****   *         Exception made for the global Read Out Protection modification level (level1 to level0)
1078:Libraries/STM32F4xx_StdPeriph_Driver/src/stm32f4xx_flash.c ****   * @note   Once SPRMOD bit is active unprotection of a protected sector is not possible 
1079:Libraries/STM32F4xx_StdPeriph_Driver/src/stm32f4xx_flash.c ****   *   
1080:Libraries/STM32F4xx_StdPeriph_Driver/src/stm32f4xx_flash.c ****   * @note   Read a protected sector will set RDERR Flag and write a protected sector will set WRPER
1081:Libraries/STM32F4xx_StdPeriph_Driver/src/stm32f4xx_flash.c ****   *   
1082:Libraries/STM32F4xx_StdPeriph_Driver/src/stm32f4xx_flash.c ****   * @note   Some Precautions should be taken when activating the PCROP feature :
1083:Libraries/STM32F4xx_StdPeriph_Driver/src/stm32f4xx_flash.c ****   *         The active value of nWRPi bits is inverted when PCROP mode is active, this means if SPR
1084:Libraries/STM32F4xx_StdPeriph_Driver/src/stm32f4xx_flash.c ****   *         and WRPi = 1 (default value), then the user sector i is read/write protected.
1085:Libraries/STM32F4xx_StdPeriph_Driver/src/stm32f4xx_flash.c ****   *         In order to avoid activation of PCROP Mode for undesired sectors, please follow the
1086:Libraries/STM32F4xx_StdPeriph_Driver/src/stm32f4xx_flash.c ****   *         below safety sequence :       
1087:Libraries/STM32F4xx_StdPeriph_Driver/src/stm32f4xx_flash.c ****   *         - Disable PCROP for all Sectors using FLASH_OB_PCROPConfig(OB_PCROP_Sector_All, DISABLE
1088:Libraries/STM32F4xx_StdPeriph_Driver/src/stm32f4xx_flash.c ****   *           for Bank1 or FLASH_OB_PCROP1Config(OB_PCROP_Sector_All, DISABLE) function for Bank2  
1089:Libraries/STM32F4xx_StdPeriph_Driver/src/stm32f4xx_flash.c ****   *         - Enable PCROP for the desired Sector i using FLASH_OB_PCROPConfig(Sector i, ENABLE) fu
1090:Libraries/STM32F4xx_StdPeriph_Driver/src/stm32f4xx_flash.c ****   *         - Activate the PCROP Mode FLASH_OB_PCROPSelectionConfig() function. 
1091:Libraries/STM32F4xx_StdPeriph_Driver/src/stm32f4xx_flash.c ****   * 
1092:Libraries/STM32F4xx_StdPeriph_Driver/src/stm32f4xx_flash.c ****   * @param  OB_PCROP:  Select the Protection Mode of nWPRi bits 
1093:Libraries/STM32F4xx_StdPeriph_Driver/src/stm32f4xx_flash.c ****   *          This parameter can be one of the following values:
1094:Libraries/STM32F4xx_StdPeriph_Driver/src/stm32f4xx_flash.c ****   *            @arg OB_PcROP_Disable: nWRPi control the write protection of respective user sectors
1095:Libraries/STM32F4xx_StdPeriph_Driver/src/stm32f4xx_flash.c ****   *            @arg OB_PcROP_Enable: nWRPi control the  read&write protection (PCROP) of respective
1096:Libraries/STM32F4xx_StdPeriph_Driver/src/stm32f4xx_flash.c ****   * @retval None
1097:Libraries/STM32F4xx_StdPeriph_Driver/src/stm32f4xx_flash.c ****   */
1098:Libraries/STM32F4xx_StdPeriph_Driver/src/stm32f4xx_flash.c **** void FLASH_OB_PCROPSelectionConfig(uint8_t OB_PcROP)
1099:Libraries/STM32F4xx_StdPeriph_Driver/src/stm32f4xx_flash.c **** {  
 395              		.loc 1 1099 0
 396              		.cfi_startproc
 397              		@ args = 0, pretend = 0, frame = 0
 398              		@ frame_needed = 0, uses_anonymous_args = 0
 399              	.LVL16:
1100:Libraries/STM32F4xx_StdPeriph_Driver/src/stm32f4xx_flash.c ****   uint8_t optiontmp = 0xFF;
1101:Libraries/STM32F4xx_StdPeriph_Driver/src/stm32f4xx_flash.c ****       
1102:Libraries/STM32F4xx_StdPeriph_Driver/src/stm32f4xx_flash.c ****   /* Check the parameters */
1103:Libraries/STM32F4xx_StdPeriph_Driver/src/stm32f4xx_flash.c ****   assert_param(IS_OB_PCROP_SELECT(OB_PcROP));
 400              		.loc 1 1103 0
 401 0000 4306     		lsls	r3, r0, #25
1099:Libraries/STM32F4xx_StdPeriph_Driver/src/stm32f4xx_flash.c ****   uint8_t optiontmp = 0xFF;
 402              		.loc 1 1099 0
 403 0002 10B5     		push	{r4, lr}
 404              	.LCFI4:
 405              		.cfi_def_cfa_offset 8
 406              		.cfi_offset 4, -8
 407              		.cfi_offset 14, -4
1099:Libraries/STM32F4xx_StdPeriph_Driver/src/stm32f4xx_flash.c ****   uint8_t optiontmp = 0xFF;
 408              		.loc 1 1099 0
 409 0004 0446     		mov	r4, r0
 410              		.loc 1 1103 0
 411 0006 07D0     		beq	.L31
 412              		.loc 1 1103 0 is_stmt 0 discriminator 1
 413 0008 40F20000 		movw	r0, #:lower16:.LC0
 414              	.LVL17:
 415 000c C0F20000 		movt	r0, #:upper16:.LC0
 416 0010 40F24F41 		movw	r1, #1103
 417 0014 FFF7FEFF 		bl	assert_failed
 418              	.LVL18:
 419              	.L31:
1104:Libraries/STM32F4xx_StdPeriph_Driver/src/stm32f4xx_flash.c ****   
1105:Libraries/STM32F4xx_StdPeriph_Driver/src/stm32f4xx_flash.c ****   /* Mask SPRMOD bit */
1106:Libraries/STM32F4xx_StdPeriph_Driver/src/stm32f4xx_flash.c ****   optiontmp =  (uint8_t)((*(__IO uint8_t *)OPTCR_BYTE3_ADDRESS) & (uint8_t)0x7F); 
 420              		.loc 1 1106 0 is_stmt 1
 421 0018 43F61743 		movw	r3, #15383
 422 001c C4F20203 		movt	r3, 16386
 423 0020 1A78     		ldrb	r2, [r3]	@ zero_extendqisi2
 424              	.LVL19:
 425 0022 02F07F02 		and	r2, r2, #127
 426              	.LVL20:
1107:Libraries/STM32F4xx_StdPeriph_Driver/src/stm32f4xx_flash.c ****   /* Update Option Byte */
1108:Libraries/STM32F4xx_StdPeriph_Driver/src/stm32f4xx_flash.c ****   *(__IO uint8_t *)OPTCR_BYTE3_ADDRESS = (uint8_t)(OB_PcROP | optiontmp); 
 427              		.loc 1 1108 0
 428 0026 1443     		orrs	r4, r4, r2
 429 0028 1C70     		strb	r4, [r3]
 430 002a 10BD     		pop	{r4, pc}
 431              		.cfi_endproc
 432              	.LFE143:
 434              		.section	.text.FLASH_OB_BootConfig,"ax",%progbits
 435              		.align	2
 436              		.global	FLASH_OB_BootConfig
 437              		.thumb
 438              		.thumb_func
 440              	FLASH_OB_BootConfig:
 441              	.LFB148:
1109:Libraries/STM32F4xx_StdPeriph_Driver/src/stm32f4xx_flash.c ****     
1110:Libraries/STM32F4xx_StdPeriph_Driver/src/stm32f4xx_flash.c **** }
1111:Libraries/STM32F4xx_StdPeriph_Driver/src/stm32f4xx_flash.c **** 
1112:Libraries/STM32F4xx_StdPeriph_Driver/src/stm32f4xx_flash.c **** /**
1113:Libraries/STM32F4xx_StdPeriph_Driver/src/stm32f4xx_flash.c ****   * @brief  Enables or disables the read/write protection (PCROP) of the desired 
1114:Libraries/STM32F4xx_StdPeriph_Driver/src/stm32f4xx_flash.c ****   *         sectors, for the first 1 MB of the Flash.
1115:Libraries/STM32F4xx_StdPeriph_Driver/src/stm32f4xx_flash.c ****   *           
1116:Libraries/STM32F4xx_StdPeriph_Driver/src/stm32f4xx_flash.c ****   * @note   This function can be used only for STM32F42xxx/43xxx and STM32F401xx/411xE devices. 
1117:Libraries/STM32F4xx_StdPeriph_Driver/src/stm32f4xx_flash.c ****   *   
1118:Libraries/STM32F4xx_StdPeriph_Driver/src/stm32f4xx_flash.c ****   * @param  OB_PCROP: specifies the sector(s) to be read/write protected or unprotected.
1119:Libraries/STM32F4xx_StdPeriph_Driver/src/stm32f4xx_flash.c ****   *          This parameter can be one of the following values:
1120:Libraries/STM32F4xx_StdPeriph_Driver/src/stm32f4xx_flash.c ****   *            @arg OB_PCROP: A value between OB_PCROP_Sector0 and OB_PCROP_Sector11 for 
1121:Libraries/STM32F4xx_StdPeriph_Driver/src/stm32f4xx_flash.c ****   *                           STM32F42xxx/43xxx devices and between OB_PCROP_Sector0 and 
1122:Libraries/STM32F4xx_StdPeriph_Driver/src/stm32f4xx_flash.c ****   *                           OB_PCROP_Sector5 for STM32F401xx/411xE devices.
1123:Libraries/STM32F4xx_StdPeriph_Driver/src/stm32f4xx_flash.c ****   *            @arg OB_PCROP_Sector_All
1124:Libraries/STM32F4xx_StdPeriph_Driver/src/stm32f4xx_flash.c ****   * @param  Newstate: new state of the Write Protection.
1125:Libraries/STM32F4xx_StdPeriph_Driver/src/stm32f4xx_flash.c ****   *          This parameter can be: ENABLE or DISABLE.
1126:Libraries/STM32F4xx_StdPeriph_Driver/src/stm32f4xx_flash.c ****   * @retval None  
1127:Libraries/STM32F4xx_StdPeriph_Driver/src/stm32f4xx_flash.c ****   */
1128:Libraries/STM32F4xx_StdPeriph_Driver/src/stm32f4xx_flash.c **** void FLASH_OB_PCROPConfig(uint32_t OB_PCROP, FunctionalState NewState)
1129:Libraries/STM32F4xx_StdPeriph_Driver/src/stm32f4xx_flash.c **** { 
1130:Libraries/STM32F4xx_StdPeriph_Driver/src/stm32f4xx_flash.c ****   FLASH_Status status = FLASH_COMPLETE;
1131:Libraries/STM32F4xx_StdPeriph_Driver/src/stm32f4xx_flash.c ****   
1132:Libraries/STM32F4xx_StdPeriph_Driver/src/stm32f4xx_flash.c ****   /* Check the parameters */
1133:Libraries/STM32F4xx_StdPeriph_Driver/src/stm32f4xx_flash.c ****   assert_param(IS_OB_PCROP(OB_PCROP));
1134:Libraries/STM32F4xx_StdPeriph_Driver/src/stm32f4xx_flash.c ****   assert_param(IS_FUNCTIONAL_STATE(NewState));
1135:Libraries/STM32F4xx_StdPeriph_Driver/src/stm32f4xx_flash.c ****     
1136:Libraries/STM32F4xx_StdPeriph_Driver/src/stm32f4xx_flash.c ****   status = FLASH_WaitForLastOperation();
1137:Libraries/STM32F4xx_StdPeriph_Driver/src/stm32f4xx_flash.c **** 
1138:Libraries/STM32F4xx_StdPeriph_Driver/src/stm32f4xx_flash.c ****   if(status == FLASH_COMPLETE)
1139:Libraries/STM32F4xx_StdPeriph_Driver/src/stm32f4xx_flash.c ****   { 
1140:Libraries/STM32F4xx_StdPeriph_Driver/src/stm32f4xx_flash.c ****     if(NewState != DISABLE)
1141:Libraries/STM32F4xx_StdPeriph_Driver/src/stm32f4xx_flash.c ****     {
1142:Libraries/STM32F4xx_StdPeriph_Driver/src/stm32f4xx_flash.c ****       *(__IO uint16_t*)OPTCR_BYTE2_ADDRESS |= (uint16_t)OB_PCROP;    
1143:Libraries/STM32F4xx_StdPeriph_Driver/src/stm32f4xx_flash.c ****     }
1144:Libraries/STM32F4xx_StdPeriph_Driver/src/stm32f4xx_flash.c ****     else
1145:Libraries/STM32F4xx_StdPeriph_Driver/src/stm32f4xx_flash.c ****     {
1146:Libraries/STM32F4xx_StdPeriph_Driver/src/stm32f4xx_flash.c ****       *(__IO uint16_t*)OPTCR_BYTE2_ADDRESS &= (~OB_PCROP);
1147:Libraries/STM32F4xx_StdPeriph_Driver/src/stm32f4xx_flash.c ****     }
1148:Libraries/STM32F4xx_StdPeriph_Driver/src/stm32f4xx_flash.c ****   }
1149:Libraries/STM32F4xx_StdPeriph_Driver/src/stm32f4xx_flash.c **** }
1150:Libraries/STM32F4xx_StdPeriph_Driver/src/stm32f4xx_flash.c **** 
1151:Libraries/STM32F4xx_StdPeriph_Driver/src/stm32f4xx_flash.c **** /**
1152:Libraries/STM32F4xx_StdPeriph_Driver/src/stm32f4xx_flash.c ****    * @brief Enables or disables the read/write protection (PCROP) of the desired 
1153:Libraries/STM32F4xx_StdPeriph_Driver/src/stm32f4xx_flash.c ****   *         sectors
1154:Libraries/STM32F4xx_StdPeriph_Driver/src/stm32f4xx_flash.c ****   *           
1155:Libraries/STM32F4xx_StdPeriph_Driver/src/stm32f4xx_flash.c ****   * @note   This function can be used only for STM32F42xxx/43xxx devices.
1156:Libraries/STM32F4xx_StdPeriph_Driver/src/stm32f4xx_flash.c ****   *   
1157:Libraries/STM32F4xx_StdPeriph_Driver/src/stm32f4xx_flash.c ****   * @param  OB_PCROP: specifies the sector(s) to be read/write protected or unprotected.
1158:Libraries/STM32F4xx_StdPeriph_Driver/src/stm32f4xx_flash.c ****   *          This parameter can be one of the following values:
1159:Libraries/STM32F4xx_StdPeriph_Driver/src/stm32f4xx_flash.c ****   *            @arg OB_PCROP: A value between OB_PCROP_Sector12 and OB_PCROP_Sector23 
1160:Libraries/STM32F4xx_StdPeriph_Driver/src/stm32f4xx_flash.c ****   *            @arg OB_PCROP_Sector_All
1161:Libraries/STM32F4xx_StdPeriph_Driver/src/stm32f4xx_flash.c ****   * @param  Newstate: new state of the Write Protection.
1162:Libraries/STM32F4xx_StdPeriph_Driver/src/stm32f4xx_flash.c ****   *          This parameter can be: ENABLE or DISABLE.
1163:Libraries/STM32F4xx_StdPeriph_Driver/src/stm32f4xx_flash.c ****   * @retval None  
1164:Libraries/STM32F4xx_StdPeriph_Driver/src/stm32f4xx_flash.c ****   */
1165:Libraries/STM32F4xx_StdPeriph_Driver/src/stm32f4xx_flash.c **** void FLASH_OB_PCROP1Config(uint32_t OB_PCROP, FunctionalState NewState)
1166:Libraries/STM32F4xx_StdPeriph_Driver/src/stm32f4xx_flash.c **** { 
1167:Libraries/STM32F4xx_StdPeriph_Driver/src/stm32f4xx_flash.c ****   FLASH_Status status = FLASH_COMPLETE;
1168:Libraries/STM32F4xx_StdPeriph_Driver/src/stm32f4xx_flash.c ****   
1169:Libraries/STM32F4xx_StdPeriph_Driver/src/stm32f4xx_flash.c ****   /* Check the parameters */
1170:Libraries/STM32F4xx_StdPeriph_Driver/src/stm32f4xx_flash.c ****   assert_param(IS_OB_PCROP(OB_PCROP));
1171:Libraries/STM32F4xx_StdPeriph_Driver/src/stm32f4xx_flash.c ****   assert_param(IS_FUNCTIONAL_STATE(NewState));
1172:Libraries/STM32F4xx_StdPeriph_Driver/src/stm32f4xx_flash.c ****     
1173:Libraries/STM32F4xx_StdPeriph_Driver/src/stm32f4xx_flash.c ****   status = FLASH_WaitForLastOperation();
1174:Libraries/STM32F4xx_StdPeriph_Driver/src/stm32f4xx_flash.c **** 
1175:Libraries/STM32F4xx_StdPeriph_Driver/src/stm32f4xx_flash.c ****   if(status == FLASH_COMPLETE)
1176:Libraries/STM32F4xx_StdPeriph_Driver/src/stm32f4xx_flash.c ****   { 
1177:Libraries/STM32F4xx_StdPeriph_Driver/src/stm32f4xx_flash.c ****     if(NewState != DISABLE)
1178:Libraries/STM32F4xx_StdPeriph_Driver/src/stm32f4xx_flash.c ****     {
1179:Libraries/STM32F4xx_StdPeriph_Driver/src/stm32f4xx_flash.c ****       *(__IO uint16_t*)OPTCR1_BYTE2_ADDRESS |= (uint16_t)OB_PCROP;
1180:Libraries/STM32F4xx_StdPeriph_Driver/src/stm32f4xx_flash.c ****     }
1181:Libraries/STM32F4xx_StdPeriph_Driver/src/stm32f4xx_flash.c ****     else
1182:Libraries/STM32F4xx_StdPeriph_Driver/src/stm32f4xx_flash.c ****     {
1183:Libraries/STM32F4xx_StdPeriph_Driver/src/stm32f4xx_flash.c ****       *(__IO uint16_t*)OPTCR1_BYTE2_ADDRESS &= (~OB_PCROP);
1184:Libraries/STM32F4xx_StdPeriph_Driver/src/stm32f4xx_flash.c ****     }
1185:Libraries/STM32F4xx_StdPeriph_Driver/src/stm32f4xx_flash.c ****   }
1186:Libraries/STM32F4xx_StdPeriph_Driver/src/stm32f4xx_flash.c **** }
1187:Libraries/STM32F4xx_StdPeriph_Driver/src/stm32f4xx_flash.c **** 
1188:Libraries/STM32F4xx_StdPeriph_Driver/src/stm32f4xx_flash.c **** 
1189:Libraries/STM32F4xx_StdPeriph_Driver/src/stm32f4xx_flash.c **** /**
1190:Libraries/STM32F4xx_StdPeriph_Driver/src/stm32f4xx_flash.c ****   * @brief  Sets the read protection level.
1191:Libraries/STM32F4xx_StdPeriph_Driver/src/stm32f4xx_flash.c ****   * @param  OB_RDP: specifies the read protection level.
1192:Libraries/STM32F4xx_StdPeriph_Driver/src/stm32f4xx_flash.c ****   *          This parameter can be one of the following values:
1193:Libraries/STM32F4xx_StdPeriph_Driver/src/stm32f4xx_flash.c ****   *            @arg OB_RDP_Level_0: No protection
1194:Libraries/STM32F4xx_StdPeriph_Driver/src/stm32f4xx_flash.c ****   *            @arg OB_RDP_Level_1: Read protection of the memory
1195:Libraries/STM32F4xx_StdPeriph_Driver/src/stm32f4xx_flash.c ****   *            @arg OB_RDP_Level_2: Full chip protection
1196:Libraries/STM32F4xx_StdPeriph_Driver/src/stm32f4xx_flash.c ****   *   
1197:Libraries/STM32F4xx_StdPeriph_Driver/src/stm32f4xx_flash.c ****   * /!\ Warning /!\ When enabling OB_RDP level 2 it's no more possible to go back to level 1 or 0
1198:Libraries/STM32F4xx_StdPeriph_Driver/src/stm32f4xx_flash.c ****   *    
1199:Libraries/STM32F4xx_StdPeriph_Driver/src/stm32f4xx_flash.c ****   * @retval None
1200:Libraries/STM32F4xx_StdPeriph_Driver/src/stm32f4xx_flash.c ****   */
1201:Libraries/STM32F4xx_StdPeriph_Driver/src/stm32f4xx_flash.c **** void FLASH_OB_RDPConfig(uint8_t OB_RDP)
1202:Libraries/STM32F4xx_StdPeriph_Driver/src/stm32f4xx_flash.c **** {
1203:Libraries/STM32F4xx_StdPeriph_Driver/src/stm32f4xx_flash.c ****   FLASH_Status status = FLASH_COMPLETE;
1204:Libraries/STM32F4xx_StdPeriph_Driver/src/stm32f4xx_flash.c **** 
1205:Libraries/STM32F4xx_StdPeriph_Driver/src/stm32f4xx_flash.c ****   /* Check the parameters */
1206:Libraries/STM32F4xx_StdPeriph_Driver/src/stm32f4xx_flash.c ****   assert_param(IS_OB_RDP(OB_RDP));
1207:Libraries/STM32F4xx_StdPeriph_Driver/src/stm32f4xx_flash.c **** 
1208:Libraries/STM32F4xx_StdPeriph_Driver/src/stm32f4xx_flash.c ****   status = FLASH_WaitForLastOperation();
1209:Libraries/STM32F4xx_StdPeriph_Driver/src/stm32f4xx_flash.c **** 
1210:Libraries/STM32F4xx_StdPeriph_Driver/src/stm32f4xx_flash.c ****   if(status == FLASH_COMPLETE)
1211:Libraries/STM32F4xx_StdPeriph_Driver/src/stm32f4xx_flash.c ****   {
1212:Libraries/STM32F4xx_StdPeriph_Driver/src/stm32f4xx_flash.c ****     *(__IO uint8_t*)OPTCR_BYTE1_ADDRESS = OB_RDP;
1213:Libraries/STM32F4xx_StdPeriph_Driver/src/stm32f4xx_flash.c **** 
1214:Libraries/STM32F4xx_StdPeriph_Driver/src/stm32f4xx_flash.c ****   }
1215:Libraries/STM32F4xx_StdPeriph_Driver/src/stm32f4xx_flash.c **** }
1216:Libraries/STM32F4xx_StdPeriph_Driver/src/stm32f4xx_flash.c **** 
1217:Libraries/STM32F4xx_StdPeriph_Driver/src/stm32f4xx_flash.c **** /**
1218:Libraries/STM32F4xx_StdPeriph_Driver/src/stm32f4xx_flash.c ****   * @brief  Programs the FLASH User Option Byte: IWDG_SW / RST_STOP / RST_STDBY.    
1219:Libraries/STM32F4xx_StdPeriph_Driver/src/stm32f4xx_flash.c ****   * @param  OB_IWDG: Selects the IWDG mode
1220:Libraries/STM32F4xx_StdPeriph_Driver/src/stm32f4xx_flash.c ****   *          This parameter can be one of the following values:
1221:Libraries/STM32F4xx_StdPeriph_Driver/src/stm32f4xx_flash.c ****   *            @arg OB_IWDG_SW: Software IWDG selected
1222:Libraries/STM32F4xx_StdPeriph_Driver/src/stm32f4xx_flash.c ****   *            @arg OB_IWDG_HW: Hardware IWDG selected
1223:Libraries/STM32F4xx_StdPeriph_Driver/src/stm32f4xx_flash.c ****   * @param  OB_STOP: Reset event when entering STOP mode.
1224:Libraries/STM32F4xx_StdPeriph_Driver/src/stm32f4xx_flash.c ****   *          This parameter  can be one of the following values:
1225:Libraries/STM32F4xx_StdPeriph_Driver/src/stm32f4xx_flash.c ****   *            @arg OB_STOP_NoRST: No reset generated when entering in STOP
1226:Libraries/STM32F4xx_StdPeriph_Driver/src/stm32f4xx_flash.c ****   *            @arg OB_STOP_RST: Reset generated when entering in STOP
1227:Libraries/STM32F4xx_StdPeriph_Driver/src/stm32f4xx_flash.c ****   * @param  OB_STDBY: Reset event when entering Standby mode.
1228:Libraries/STM32F4xx_StdPeriph_Driver/src/stm32f4xx_flash.c ****   *          This parameter  can be one of the following values:
1229:Libraries/STM32F4xx_StdPeriph_Driver/src/stm32f4xx_flash.c ****   *            @arg OB_STDBY_NoRST: No reset generated when entering in STANDBY
1230:Libraries/STM32F4xx_StdPeriph_Driver/src/stm32f4xx_flash.c ****   *            @arg OB_STDBY_RST: Reset generated when entering in STANDBY
1231:Libraries/STM32F4xx_StdPeriph_Driver/src/stm32f4xx_flash.c ****   * @retval None
1232:Libraries/STM32F4xx_StdPeriph_Driver/src/stm32f4xx_flash.c ****   */
1233:Libraries/STM32F4xx_StdPeriph_Driver/src/stm32f4xx_flash.c **** void FLASH_OB_UserConfig(uint8_t OB_IWDG, uint8_t OB_STOP, uint8_t OB_STDBY)
1234:Libraries/STM32F4xx_StdPeriph_Driver/src/stm32f4xx_flash.c **** {
1235:Libraries/STM32F4xx_StdPeriph_Driver/src/stm32f4xx_flash.c ****   uint8_t optiontmp = 0xFF;
1236:Libraries/STM32F4xx_StdPeriph_Driver/src/stm32f4xx_flash.c ****   FLASH_Status status = FLASH_COMPLETE; 
1237:Libraries/STM32F4xx_StdPeriph_Driver/src/stm32f4xx_flash.c **** 
1238:Libraries/STM32F4xx_StdPeriph_Driver/src/stm32f4xx_flash.c ****   /* Check the parameters */
1239:Libraries/STM32F4xx_StdPeriph_Driver/src/stm32f4xx_flash.c ****   assert_param(IS_OB_IWDG_SOURCE(OB_IWDG));
1240:Libraries/STM32F4xx_StdPeriph_Driver/src/stm32f4xx_flash.c ****   assert_param(IS_OB_STOP_SOURCE(OB_STOP));
1241:Libraries/STM32F4xx_StdPeriph_Driver/src/stm32f4xx_flash.c ****   assert_param(IS_OB_STDBY_SOURCE(OB_STDBY));
1242:Libraries/STM32F4xx_StdPeriph_Driver/src/stm32f4xx_flash.c **** 
1243:Libraries/STM32F4xx_StdPeriph_Driver/src/stm32f4xx_flash.c ****   /* Wait for last operation to be completed */
1244:Libraries/STM32F4xx_StdPeriph_Driver/src/stm32f4xx_flash.c ****   status = FLASH_WaitForLastOperation();
1245:Libraries/STM32F4xx_StdPeriph_Driver/src/stm32f4xx_flash.c ****   
1246:Libraries/STM32F4xx_StdPeriph_Driver/src/stm32f4xx_flash.c ****   if(status == FLASH_COMPLETE)
1247:Libraries/STM32F4xx_StdPeriph_Driver/src/stm32f4xx_flash.c ****   { 
1248:Libraries/STM32F4xx_StdPeriph_Driver/src/stm32f4xx_flash.c **** #if defined(STM32F427_437xx) || defined(STM32F429_439xx)
1249:Libraries/STM32F4xx_StdPeriph_Driver/src/stm32f4xx_flash.c ****     /* Mask OPTLOCK, OPTSTRT, BOR_LEV and BFB2 bits */
1250:Libraries/STM32F4xx_StdPeriph_Driver/src/stm32f4xx_flash.c ****     optiontmp =  (uint8_t)((*(__IO uint8_t *)OPTCR_BYTE0_ADDRESS) & (uint8_t)0x1F);
1251:Libraries/STM32F4xx_StdPeriph_Driver/src/stm32f4xx_flash.c **** #endif /* STM32F427_437xx ||  STM32F429_439xx */
1252:Libraries/STM32F4xx_StdPeriph_Driver/src/stm32f4xx_flash.c **** 
1253:Libraries/STM32F4xx_StdPeriph_Driver/src/stm32f4xx_flash.c **** #if defined(STM32F40_41xxx) || defined(STM32F401xx) || defined(STM32F411xE) || defined(STM32F446xx)
1254:Libraries/STM32F4xx_StdPeriph_Driver/src/stm32f4xx_flash.c ****     /* Mask OPTLOCK, OPTSTRT and BOR_LEV bits */
1255:Libraries/STM32F4xx_StdPeriph_Driver/src/stm32f4xx_flash.c ****     optiontmp =  (uint8_t)((*(__IO uint8_t *)OPTCR_BYTE0_ADDRESS) & (uint8_t)0x0F); 
1256:Libraries/STM32F4xx_StdPeriph_Driver/src/stm32f4xx_flash.c **** #endif /* STM32F40_41xxx || STM32F401xx || STM32F411xE || STM32F446xx */ 
1257:Libraries/STM32F4xx_StdPeriph_Driver/src/stm32f4xx_flash.c **** 
1258:Libraries/STM32F4xx_StdPeriph_Driver/src/stm32f4xx_flash.c ****     /* Update User Option Byte */
1259:Libraries/STM32F4xx_StdPeriph_Driver/src/stm32f4xx_flash.c ****     *(__IO uint8_t *)OPTCR_BYTE0_ADDRESS = OB_IWDG | (uint8_t)(OB_STDBY | (uint8_t)(OB_STOP | ((uin
1260:Libraries/STM32F4xx_StdPeriph_Driver/src/stm32f4xx_flash.c ****   }  
1261:Libraries/STM32F4xx_StdPeriph_Driver/src/stm32f4xx_flash.c **** }
1262:Libraries/STM32F4xx_StdPeriph_Driver/src/stm32f4xx_flash.c **** 
1263:Libraries/STM32F4xx_StdPeriph_Driver/src/stm32f4xx_flash.c **** /**
1264:Libraries/STM32F4xx_StdPeriph_Driver/src/stm32f4xx_flash.c ****   * @brief  Configure the Dual Bank Boot.
1265:Libraries/STM32F4xx_StdPeriph_Driver/src/stm32f4xx_flash.c ****   *   
1266:Libraries/STM32F4xx_StdPeriph_Driver/src/stm32f4xx_flash.c ****   * @note   This function can be used only for STM32F42xxx/43xxx devices.
1267:Libraries/STM32F4xx_StdPeriph_Driver/src/stm32f4xx_flash.c ****   *      
1268:Libraries/STM32F4xx_StdPeriph_Driver/src/stm32f4xx_flash.c ****   * @param  OB_BOOT: specifies the Dual Bank Boot Option byte.
1269:Libraries/STM32F4xx_StdPeriph_Driver/src/stm32f4xx_flash.c ****   *          This parameter can be one of the following values:
1270:Libraries/STM32F4xx_StdPeriph_Driver/src/stm32f4xx_flash.c ****   *            @arg OB_Dual_BootEnabled: Dual Bank Boot Enable
1271:Libraries/STM32F4xx_StdPeriph_Driver/src/stm32f4xx_flash.c ****   *            @arg OB_Dual_BootDisabled: Dual Bank Boot Disabled
1272:Libraries/STM32F4xx_StdPeriph_Driver/src/stm32f4xx_flash.c ****   * @retval None
1273:Libraries/STM32F4xx_StdPeriph_Driver/src/stm32f4xx_flash.c ****   */
1274:Libraries/STM32F4xx_StdPeriph_Driver/src/stm32f4xx_flash.c **** void FLASH_OB_BootConfig(uint8_t OB_BOOT)
1275:Libraries/STM32F4xx_StdPeriph_Driver/src/stm32f4xx_flash.c **** {
 442              		.loc 1 1275 0
 443              		.cfi_startproc
 444              		@ args = 0, pretend = 0, frame = 0
 445              		@ frame_needed = 0, uses_anonymous_args = 0
 446              	.LVL21:
1276:Libraries/STM32F4xx_StdPeriph_Driver/src/stm32f4xx_flash.c ****   /* Check the parameters */
1277:Libraries/STM32F4xx_StdPeriph_Driver/src/stm32f4xx_flash.c ****   assert_param(IS_OB_BOOT(OB_BOOT));
 447              		.loc 1 1277 0
 448 0000 10F0EF0F 		tst	r0, #239
1275:Libraries/STM32F4xx_StdPeriph_Driver/src/stm32f4xx_flash.c ****   /* Check the parameters */
 449              		.loc 1 1275 0
 450 0004 10B5     		push	{r4, lr}
 451              	.LCFI5:
 452              		.cfi_def_cfa_offset 8
 453              		.cfi_offset 4, -8
 454              		.cfi_offset 14, -4
1275:Libraries/STM32F4xx_StdPeriph_Driver/src/stm32f4xx_flash.c ****   /* Check the parameters */
 455              		.loc 1 1275 0
 456 0006 0446     		mov	r4, r0
 457              		.loc 1 1277 0
 458 0008 07D0     		beq	.L36
 459              		.loc 1 1277 0 is_stmt 0 discriminator 1
 460 000a 40F20000 		movw	r0, #:lower16:.LC0
 461              	.LVL22:
 462 000e C0F20000 		movt	r0, #:upper16:.LC0
 463 0012 40F2FD41 		movw	r1, #1277
 464 0016 FFF7FEFF 		bl	assert_failed
 465              	.LVL23:
 466              	.L36:
1278:Libraries/STM32F4xx_StdPeriph_Driver/src/stm32f4xx_flash.c **** 
1279:Libraries/STM32F4xx_StdPeriph_Driver/src/stm32f4xx_flash.c ****   /* Set Dual Bank Boot */
1280:Libraries/STM32F4xx_StdPeriph_Driver/src/stm32f4xx_flash.c ****   *(__IO uint8_t *)OPTCR_BYTE0_ADDRESS &= (~FLASH_OPTCR_BFB2);
 467              		.loc 1 1280 0 is_stmt 1
 468 001a 43F61443 		movw	r3, #15380
 469 001e C4F20203 		movt	r3, 16386
 470 0022 1A78     		ldrb	r2, [r3]	@ zero_extendqisi2
 471 0024 02F0EF02 		and	r2, r2, #239
 472 0028 1A70     		strb	r2, [r3]
1281:Libraries/STM32F4xx_StdPeriph_Driver/src/stm32f4xx_flash.c ****   *(__IO uint8_t *)OPTCR_BYTE0_ADDRESS |= OB_BOOT;
 473              		.loc 1 1281 0
 474 002a 1A78     		ldrb	r2, [r3]	@ zero_extendqisi2
 475 002c 1443     		orrs	r4, r4, r2
 476 002e 1C70     		strb	r4, [r3]
 477 0030 10BD     		pop	{r4, pc}
 478              		.cfi_endproc
 479              	.LFE148:
 481 0032 00BF     		.section	.text.FLASH_OB_BORConfig,"ax",%progbits
 482              		.align	2
 483              		.global	FLASH_OB_BORConfig
 484              		.thumb
 485              		.thumb_func
 487              	FLASH_OB_BORConfig:
 488              	.LFB149:
1282:Libraries/STM32F4xx_StdPeriph_Driver/src/stm32f4xx_flash.c **** 
1283:Libraries/STM32F4xx_StdPeriph_Driver/src/stm32f4xx_flash.c **** }
1284:Libraries/STM32F4xx_StdPeriph_Driver/src/stm32f4xx_flash.c **** 
1285:Libraries/STM32F4xx_StdPeriph_Driver/src/stm32f4xx_flash.c **** /**
1286:Libraries/STM32F4xx_StdPeriph_Driver/src/stm32f4xx_flash.c ****   * @brief  Sets the BOR Level. 
1287:Libraries/STM32F4xx_StdPeriph_Driver/src/stm32f4xx_flash.c ****   * @param  OB_BOR: specifies the Option Bytes BOR Reset Level.
1288:Libraries/STM32F4xx_StdPeriph_Driver/src/stm32f4xx_flash.c ****   *          This parameter can be one of the following values:
1289:Libraries/STM32F4xx_StdPeriph_Driver/src/stm32f4xx_flash.c ****   *            @arg OB_BOR_LEVEL3: Supply voltage ranges from 2.7 to 3.6 V
1290:Libraries/STM32F4xx_StdPeriph_Driver/src/stm32f4xx_flash.c ****   *            @arg OB_BOR_LEVEL2: Supply voltage ranges from 2.4 to 2.7 V
1291:Libraries/STM32F4xx_StdPeriph_Driver/src/stm32f4xx_flash.c ****   *            @arg OB_BOR_LEVEL1: Supply voltage ranges from 2.1 to 2.4 V
1292:Libraries/STM32F4xx_StdPeriph_Driver/src/stm32f4xx_flash.c ****   *            @arg OB_BOR_OFF: Supply voltage ranges from 1.62 to 2.1 V
1293:Libraries/STM32F4xx_StdPeriph_Driver/src/stm32f4xx_flash.c ****   * @retval None
1294:Libraries/STM32F4xx_StdPeriph_Driver/src/stm32f4xx_flash.c ****   */
1295:Libraries/STM32F4xx_StdPeriph_Driver/src/stm32f4xx_flash.c **** void FLASH_OB_BORConfig(uint8_t OB_BOR)
1296:Libraries/STM32F4xx_StdPeriph_Driver/src/stm32f4xx_flash.c **** {
 489              		.loc 1 1296 0
 490              		.cfi_startproc
 491              		@ args = 0, pretend = 0, frame = 0
 492              		@ frame_needed = 0, uses_anonymous_args = 0
 493              	.LVL24:
1297:Libraries/STM32F4xx_StdPeriph_Driver/src/stm32f4xx_flash.c ****   /* Check the parameters */
1298:Libraries/STM32F4xx_StdPeriph_Driver/src/stm32f4xx_flash.c ****   assert_param(IS_OB_BOR(OB_BOR));
 494              		.loc 1 1298 0
 495 0000 10F0F30F 		tst	r0, #243
1296:Libraries/STM32F4xx_StdPeriph_Driver/src/stm32f4xx_flash.c ****   /* Check the parameters */
 496              		.loc 1 1296 0
 497 0004 10B5     		push	{r4, lr}
 498              	.LCFI6:
 499              		.cfi_def_cfa_offset 8
 500              		.cfi_offset 4, -8
 501              		.cfi_offset 14, -4
1296:Libraries/STM32F4xx_StdPeriph_Driver/src/stm32f4xx_flash.c ****   /* Check the parameters */
 502              		.loc 1 1296 0
 503 0006 0446     		mov	r4, r0
 504              		.loc 1 1298 0
 505 0008 0BD1     		bne	.L45
 506              	.LVL25:
 507              	.L41:
1299:Libraries/STM32F4xx_StdPeriph_Driver/src/stm32f4xx_flash.c **** 
1300:Libraries/STM32F4xx_StdPeriph_Driver/src/stm32f4xx_flash.c ****   /* Set the BOR Level */
1301:Libraries/STM32F4xx_StdPeriph_Driver/src/stm32f4xx_flash.c ****   *(__IO uint8_t *)OPTCR_BYTE0_ADDRESS &= (~FLASH_OPTCR_BOR_LEV);
 508              		.loc 1 1301 0
 509 000a 43F61443 		movw	r3, #15380
 510 000e C4F20203 		movt	r3, 16386
 511 0012 1A78     		ldrb	r2, [r3]	@ zero_extendqisi2
 512 0014 02F0F302 		and	r2, r2, #243
 513 0018 1A70     		strb	r2, [r3]
1302:Libraries/STM32F4xx_StdPeriph_Driver/src/stm32f4xx_flash.c ****   *(__IO uint8_t *)OPTCR_BYTE0_ADDRESS |= OB_BOR;
 514              		.loc 1 1302 0
 515 001a 1A78     		ldrb	r2, [r3]	@ zero_extendqisi2
 516 001c 1443     		orrs	r4, r4, r2
 517 001e 1C70     		strb	r4, [r3]
 518 0020 10BD     		pop	{r4, pc}
 519              	.LVL26:
 520              	.L45:
1298:Libraries/STM32F4xx_StdPeriph_Driver/src/stm32f4xx_flash.c **** 
 521              		.loc 1 1298 0 discriminator 1
 522 0022 40F20000 		movw	r0, #:lower16:.LC0
 523              	.LVL27:
 524 0026 C0F20000 		movt	r0, #:upper16:.LC0
 525 002a 40F21251 		movw	r1, #1298
 526 002e FFF7FEFF 		bl	assert_failed
 527              	.LVL28:
 528 0032 EAE7     		b	.L41
 529              		.cfi_endproc
 530              	.LFE149:
 532              		.section	.text.FLASH_OB_GetUser,"ax",%progbits
 533              		.align	2
 534              		.global	FLASH_OB_GetUser
 535              		.thumb
 536              		.thumb_func
 538              	FLASH_OB_GetUser:
 539              	.LFB151:
1303:Libraries/STM32F4xx_StdPeriph_Driver/src/stm32f4xx_flash.c **** 
1304:Libraries/STM32F4xx_StdPeriph_Driver/src/stm32f4xx_flash.c **** }
1305:Libraries/STM32F4xx_StdPeriph_Driver/src/stm32f4xx_flash.c **** 
1306:Libraries/STM32F4xx_StdPeriph_Driver/src/stm32f4xx_flash.c **** /**
1307:Libraries/STM32F4xx_StdPeriph_Driver/src/stm32f4xx_flash.c ****   * @brief  Launch the option byte loading.
1308:Libraries/STM32F4xx_StdPeriph_Driver/src/stm32f4xx_flash.c ****   * @param  None
1309:Libraries/STM32F4xx_StdPeriph_Driver/src/stm32f4xx_flash.c ****   * @retval FLASH Status: The returned value can be: FLASH_BUSY, FLASH_ERROR_PROGRAM,
1310:Libraries/STM32F4xx_StdPeriph_Driver/src/stm32f4xx_flash.c ****   *                       FLASH_ERROR_WRP, FLASH_ERROR_OPERATION or FLASH_COMPLETE.
1311:Libraries/STM32F4xx_StdPeriph_Driver/src/stm32f4xx_flash.c ****   */
1312:Libraries/STM32F4xx_StdPeriph_Driver/src/stm32f4xx_flash.c **** FLASH_Status FLASH_OB_Launch(void)
1313:Libraries/STM32F4xx_StdPeriph_Driver/src/stm32f4xx_flash.c **** {
1314:Libraries/STM32F4xx_StdPeriph_Driver/src/stm32f4xx_flash.c ****   FLASH_Status status = FLASH_COMPLETE;
1315:Libraries/STM32F4xx_StdPeriph_Driver/src/stm32f4xx_flash.c **** 
1316:Libraries/STM32F4xx_StdPeriph_Driver/src/stm32f4xx_flash.c ****   /* Set the OPTSTRT bit in OPTCR register */
1317:Libraries/STM32F4xx_StdPeriph_Driver/src/stm32f4xx_flash.c ****   *(__IO uint8_t *)OPTCR_BYTE0_ADDRESS |= FLASH_OPTCR_OPTSTRT;
1318:Libraries/STM32F4xx_StdPeriph_Driver/src/stm32f4xx_flash.c **** 
1319:Libraries/STM32F4xx_StdPeriph_Driver/src/stm32f4xx_flash.c ****   /* Wait for last operation to be completed */
1320:Libraries/STM32F4xx_StdPeriph_Driver/src/stm32f4xx_flash.c ****   status = FLASH_WaitForLastOperation();
1321:Libraries/STM32F4xx_StdPeriph_Driver/src/stm32f4xx_flash.c **** 
1322:Libraries/STM32F4xx_StdPeriph_Driver/src/stm32f4xx_flash.c ****   return status;
1323:Libraries/STM32F4xx_StdPeriph_Driver/src/stm32f4xx_flash.c **** }
1324:Libraries/STM32F4xx_StdPeriph_Driver/src/stm32f4xx_flash.c **** 
1325:Libraries/STM32F4xx_StdPeriph_Driver/src/stm32f4xx_flash.c **** /**
1326:Libraries/STM32F4xx_StdPeriph_Driver/src/stm32f4xx_flash.c ****   * @brief  Returns the FLASH User Option Bytes values.
1327:Libraries/STM32F4xx_StdPeriph_Driver/src/stm32f4xx_flash.c ****   * @param  None
1328:Libraries/STM32F4xx_StdPeriph_Driver/src/stm32f4xx_flash.c ****   * @retval The FLASH User Option Bytes values: IWDG_SW(Bit0), RST_STOP(Bit1)
1329:Libraries/STM32F4xx_StdPeriph_Driver/src/stm32f4xx_flash.c ****   *         and RST_STDBY(Bit2).
1330:Libraries/STM32F4xx_StdPeriph_Driver/src/stm32f4xx_flash.c ****   */
1331:Libraries/STM32F4xx_StdPeriph_Driver/src/stm32f4xx_flash.c **** uint8_t FLASH_OB_GetUser(void)
1332:Libraries/STM32F4xx_StdPeriph_Driver/src/stm32f4xx_flash.c **** {
 540              		.loc 1 1332 0
 541              		.cfi_startproc
 542              		@ args = 0, pretend = 0, frame = 0
 543              		@ frame_needed = 0, uses_anonymous_args = 0
 544              		@ link register save eliminated.
1333:Libraries/STM32F4xx_StdPeriph_Driver/src/stm32f4xx_flash.c ****   /* Return the User Option Byte */
1334:Libraries/STM32F4xx_StdPeriph_Driver/src/stm32f4xx_flash.c ****   return (uint8_t)(FLASH->OPTCR >> 5);
 545              		.loc 1 1334 0
 546 0000 4FF47053 		mov	r3, #15360
 547 0004 C4F20203 		movt	r3, 16386
 548 0008 5869     		ldr	r0, [r3, #20]
1335:Libraries/STM32F4xx_StdPeriph_Driver/src/stm32f4xx_flash.c **** }
 549              		.loc 1 1335 0
 550 000a C0F34710 		ubfx	r0, r0, #5, #8
 551 000e 7047     		bx	lr
 552              		.cfi_endproc
 553              	.LFE151:
 555              		.section	.text.FLASH_OB_GetWRP,"ax",%progbits
 556              		.align	2
 557              		.global	FLASH_OB_GetWRP
 558              		.thumb
 559              		.thumb_func
 561              	FLASH_OB_GetWRP:
 562              	.LFB152:
1336:Libraries/STM32F4xx_StdPeriph_Driver/src/stm32f4xx_flash.c **** 
1337:Libraries/STM32F4xx_StdPeriph_Driver/src/stm32f4xx_flash.c **** /**
1338:Libraries/STM32F4xx_StdPeriph_Driver/src/stm32f4xx_flash.c ****   * @brief  Returns the FLASH Write Protection Option Bytes value.
1339:Libraries/STM32F4xx_StdPeriph_Driver/src/stm32f4xx_flash.c ****   * @param  None
1340:Libraries/STM32F4xx_StdPeriph_Driver/src/stm32f4xx_flash.c ****   * @retval The FLASH Write Protection  Option Bytes value
1341:Libraries/STM32F4xx_StdPeriph_Driver/src/stm32f4xx_flash.c ****   */
1342:Libraries/STM32F4xx_StdPeriph_Driver/src/stm32f4xx_flash.c **** uint16_t FLASH_OB_GetWRP(void)
1343:Libraries/STM32F4xx_StdPeriph_Driver/src/stm32f4xx_flash.c **** {
 563              		.loc 1 1343 0
 564              		.cfi_startproc
 565              		@ args = 0, pretend = 0, frame = 0
 566              		@ frame_needed = 0, uses_anonymous_args = 0
 567              		@ link register save eliminated.
1344:Libraries/STM32F4xx_StdPeriph_Driver/src/stm32f4xx_flash.c ****   /* Return the FLASH write protection Register value */
1345:Libraries/STM32F4xx_StdPeriph_Driver/src/stm32f4xx_flash.c ****   return (*(__IO uint16_t *)(OPTCR_BYTE2_ADDRESS));
 568              		.loc 1 1345 0
 569 0000 43F61643 		movw	r3, #15382
 570 0004 C4F20203 		movt	r3, 16386
 571 0008 1888     		ldrh	r0, [r3]
1346:Libraries/STM32F4xx_StdPeriph_Driver/src/stm32f4xx_flash.c **** }
 572              		.loc 1 1346 0
 573 000a 80B2     		uxth	r0, r0
 574 000c 7047     		bx	lr
 575              		.cfi_endproc
 576              	.LFE152:
 578 000e 00BF     		.section	.text.FLASH_OB_GetWRP1,"ax",%progbits
 579              		.align	2
 580              		.global	FLASH_OB_GetWRP1
 581              		.thumb
 582              		.thumb_func
 584              	FLASH_OB_GetWRP1:
 585              	.LFB153:
1347:Libraries/STM32F4xx_StdPeriph_Driver/src/stm32f4xx_flash.c **** 
1348:Libraries/STM32F4xx_StdPeriph_Driver/src/stm32f4xx_flash.c **** /**
1349:Libraries/STM32F4xx_StdPeriph_Driver/src/stm32f4xx_flash.c ****   * @brief  Returns the FLASH Write Protection Option Bytes value.
1350:Libraries/STM32F4xx_StdPeriph_Driver/src/stm32f4xx_flash.c ****   *   
1351:Libraries/STM32F4xx_StdPeriph_Driver/src/stm32f4xx_flash.c ****   * @note   This function can be used only for STM32F42xxx/43xxx devices.
1352:Libraries/STM32F4xx_StdPeriph_Driver/src/stm32f4xx_flash.c ****   *   
1353:Libraries/STM32F4xx_StdPeriph_Driver/src/stm32f4xx_flash.c ****   * @param  None
1354:Libraries/STM32F4xx_StdPeriph_Driver/src/stm32f4xx_flash.c ****   * @retval The FLASH Write Protection  Option Bytes value
1355:Libraries/STM32F4xx_StdPeriph_Driver/src/stm32f4xx_flash.c ****   */
1356:Libraries/STM32F4xx_StdPeriph_Driver/src/stm32f4xx_flash.c **** uint16_t FLASH_OB_GetWRP1(void)
1357:Libraries/STM32F4xx_StdPeriph_Driver/src/stm32f4xx_flash.c **** {
 586              		.loc 1 1357 0
 587              		.cfi_startproc
 588              		@ args = 0, pretend = 0, frame = 0
 589              		@ frame_needed = 0, uses_anonymous_args = 0
 590              		@ link register save eliminated.
1358:Libraries/STM32F4xx_StdPeriph_Driver/src/stm32f4xx_flash.c ****   /* Return the FLASH write protection Register value */
1359:Libraries/STM32F4xx_StdPeriph_Driver/src/stm32f4xx_flash.c ****   return (*(__IO uint16_t *)(OPTCR1_BYTE2_ADDRESS));
 591              		.loc 1 1359 0
 592 0000 43F61A43 		movw	r3, #15386
 593 0004 C4F20203 		movt	r3, 16386
 594 0008 1888     		ldrh	r0, [r3]
1360:Libraries/STM32F4xx_StdPeriph_Driver/src/stm32f4xx_flash.c **** }
 595              		.loc 1 1360 0
 596 000a 80B2     		uxth	r0, r0
 597 000c 7047     		bx	lr
 598              		.cfi_endproc
 599              	.LFE153:
 601 000e 00BF     		.section	.text.FLASH_OB_GetPCROP,"ax",%progbits
 602              		.align	2
 603              		.global	FLASH_OB_GetPCROP
 604              		.thumb
 605              		.thumb_func
 607              	FLASH_OB_GetPCROP:
 608              	.LFB154:
1361:Libraries/STM32F4xx_StdPeriph_Driver/src/stm32f4xx_flash.c **** 
1362:Libraries/STM32F4xx_StdPeriph_Driver/src/stm32f4xx_flash.c **** /**
1363:Libraries/STM32F4xx_StdPeriph_Driver/src/stm32f4xx_flash.c ****   * @brief  Returns the FLASH PC Read/Write Protection Option Bytes value.
1364:Libraries/STM32F4xx_StdPeriph_Driver/src/stm32f4xx_flash.c ****   *   
1365:Libraries/STM32F4xx_StdPeriph_Driver/src/stm32f4xx_flash.c ****   * @note   This function can be used only for STM32F42xxx/43xxx devices and STM32F401xx/411xE devi
1366:Libraries/STM32F4xx_StdPeriph_Driver/src/stm32f4xx_flash.c ****   *   
1367:Libraries/STM32F4xx_StdPeriph_Driver/src/stm32f4xx_flash.c ****   * @param  None
1368:Libraries/STM32F4xx_StdPeriph_Driver/src/stm32f4xx_flash.c ****   * @retval The FLASH PC Read/Write Protection Option Bytes value
1369:Libraries/STM32F4xx_StdPeriph_Driver/src/stm32f4xx_flash.c ****   */
1370:Libraries/STM32F4xx_StdPeriph_Driver/src/stm32f4xx_flash.c **** uint16_t FLASH_OB_GetPCROP(void)
1371:Libraries/STM32F4xx_StdPeriph_Driver/src/stm32f4xx_flash.c **** {
 609              		.loc 1 1371 0
 610              		.cfi_startproc
 611              		@ args = 0, pretend = 0, frame = 0
 612              		@ frame_needed = 0, uses_anonymous_args = 0
 613              		@ link register save eliminated.
1372:Libraries/STM32F4xx_StdPeriph_Driver/src/stm32f4xx_flash.c ****   /* Return the FLASH PC Read/write protection Register value */
1373:Libraries/STM32F4xx_StdPeriph_Driver/src/stm32f4xx_flash.c ****   return (*(__IO uint16_t *)(OPTCR_BYTE2_ADDRESS));
 614              		.loc 1 1373 0
 615 0000 43F61643 		movw	r3, #15382
 616 0004 C4F20203 		movt	r3, 16386
 617 0008 1888     		ldrh	r0, [r3]
1374:Libraries/STM32F4xx_StdPeriph_Driver/src/stm32f4xx_flash.c **** }
 618              		.loc 1 1374 0
 619 000a 80B2     		uxth	r0, r0
 620 000c 7047     		bx	lr
 621              		.cfi_endproc
 622              	.LFE154:
 624 000e 00BF     		.section	.text.FLASH_OB_GetPCROP1,"ax",%progbits
 625              		.align	2
 626              		.global	FLASH_OB_GetPCROP1
 627              		.thumb
 628              		.thumb_func
 630              	FLASH_OB_GetPCROP1:
 631              	.LFB155:
1375:Libraries/STM32F4xx_StdPeriph_Driver/src/stm32f4xx_flash.c **** 
1376:Libraries/STM32F4xx_StdPeriph_Driver/src/stm32f4xx_flash.c **** /**
1377:Libraries/STM32F4xx_StdPeriph_Driver/src/stm32f4xx_flash.c ****   * @brief  Returns the FLASH PC Read/Write Protection Option Bytes value.
1378:Libraries/STM32F4xx_StdPeriph_Driver/src/stm32f4xx_flash.c ****   *   
1379:Libraries/STM32F4xx_StdPeriph_Driver/src/stm32f4xx_flash.c ****   * @note   This function can be used only for STM32F42xxx/43xxx devices. 
1380:Libraries/STM32F4xx_StdPeriph_Driver/src/stm32f4xx_flash.c ****   *     
1381:Libraries/STM32F4xx_StdPeriph_Driver/src/stm32f4xx_flash.c ****   * @param  None
1382:Libraries/STM32F4xx_StdPeriph_Driver/src/stm32f4xx_flash.c ****   * @retval The FLASH PC Read/Write Protection Option Bytes value
1383:Libraries/STM32F4xx_StdPeriph_Driver/src/stm32f4xx_flash.c ****   */
1384:Libraries/STM32F4xx_StdPeriph_Driver/src/stm32f4xx_flash.c **** uint16_t FLASH_OB_GetPCROP1(void)
1385:Libraries/STM32F4xx_StdPeriph_Driver/src/stm32f4xx_flash.c **** {
 632              		.loc 1 1385 0
 633              		.cfi_startproc
 634              		@ args = 0, pretend = 0, frame = 0
 635              		@ frame_needed = 0, uses_anonymous_args = 0
 636              		@ link register save eliminated.
1386:Libraries/STM32F4xx_StdPeriph_Driver/src/stm32f4xx_flash.c ****   /* Return the FLASH write protection Register value */
1387:Libraries/STM32F4xx_StdPeriph_Driver/src/stm32f4xx_flash.c ****   return (*(__IO uint16_t *)(OPTCR1_BYTE2_ADDRESS));
 637              		.loc 1 1387 0
 638 0000 43F61A43 		movw	r3, #15386
 639 0004 C4F20203 		movt	r3, 16386
 640 0008 1888     		ldrh	r0, [r3]
1388:Libraries/STM32F4xx_StdPeriph_Driver/src/stm32f4xx_flash.c **** }
 641              		.loc 1 1388 0
 642 000a 80B2     		uxth	r0, r0
 643 000c 7047     		bx	lr
 644              		.cfi_endproc
 645              	.LFE155:
 647 000e 00BF     		.section	.text.FLASH_OB_GetRDP,"ax",%progbits
 648              		.align	2
 649              		.global	FLASH_OB_GetRDP
 650              		.thumb
 651              		.thumb_func
 653              	FLASH_OB_GetRDP:
 654              	.LFB156:
1389:Libraries/STM32F4xx_StdPeriph_Driver/src/stm32f4xx_flash.c **** 
1390:Libraries/STM32F4xx_StdPeriph_Driver/src/stm32f4xx_flash.c **** /**
1391:Libraries/STM32F4xx_StdPeriph_Driver/src/stm32f4xx_flash.c ****   * @brief  Returns the FLASH Read Protection level.
1392:Libraries/STM32F4xx_StdPeriph_Driver/src/stm32f4xx_flash.c ****   * @param  None
1393:Libraries/STM32F4xx_StdPeriph_Driver/src/stm32f4xx_flash.c ****   * @retval FLASH ReadOut Protection Status:
1394:Libraries/STM32F4xx_StdPeriph_Driver/src/stm32f4xx_flash.c ****   *           - SET, when OB_RDP_Level_1 or OB_RDP_Level_2 is set
1395:Libraries/STM32F4xx_StdPeriph_Driver/src/stm32f4xx_flash.c ****   *           - RESET, when OB_RDP_Level_0 is set
1396:Libraries/STM32F4xx_StdPeriph_Driver/src/stm32f4xx_flash.c ****   */
1397:Libraries/STM32F4xx_StdPeriph_Driver/src/stm32f4xx_flash.c **** FlagStatus FLASH_OB_GetRDP(void)
1398:Libraries/STM32F4xx_StdPeriph_Driver/src/stm32f4xx_flash.c **** {
 655              		.loc 1 1398 0
 656              		.cfi_startproc
 657              		@ args = 0, pretend = 0, frame = 0
 658              		@ frame_needed = 0, uses_anonymous_args = 0
 659              		@ link register save eliminated.
 660              	.LVL29:
1399:Libraries/STM32F4xx_StdPeriph_Driver/src/stm32f4xx_flash.c ****   FlagStatus readstatus = RESET;
1400:Libraries/STM32F4xx_StdPeriph_Driver/src/stm32f4xx_flash.c **** 
1401:Libraries/STM32F4xx_StdPeriph_Driver/src/stm32f4xx_flash.c ****   if ((*(__IO uint8_t*)(OPTCR_BYTE1_ADDRESS) != (uint8_t)OB_RDP_Level_0))
 661              		.loc 1 1401 0
 662 0000 43F61543 		movw	r3, #15381
 663 0004 C4F20203 		movt	r3, 16386
 664 0008 1878     		ldrb	r0, [r3]	@ zero_extendqisi2
 665              	.LVL30:
1402:Libraries/STM32F4xx_StdPeriph_Driver/src/stm32f4xx_flash.c ****   {
1403:Libraries/STM32F4xx_StdPeriph_Driver/src/stm32f4xx_flash.c ****     readstatus = SET;
1404:Libraries/STM32F4xx_StdPeriph_Driver/src/stm32f4xx_flash.c ****   }
1405:Libraries/STM32F4xx_StdPeriph_Driver/src/stm32f4xx_flash.c ****   else
1406:Libraries/STM32F4xx_StdPeriph_Driver/src/stm32f4xx_flash.c ****   {
1407:Libraries/STM32F4xx_StdPeriph_Driver/src/stm32f4xx_flash.c ****     readstatus = RESET;
1408:Libraries/STM32F4xx_StdPeriph_Driver/src/stm32f4xx_flash.c ****   }
1409:Libraries/STM32F4xx_StdPeriph_Driver/src/stm32f4xx_flash.c ****   return readstatus;
1410:Libraries/STM32F4xx_StdPeriph_Driver/src/stm32f4xx_flash.c **** }
 666              		.loc 1 1410 0
 667 000a AA38     		subs	r0, r0, #170
 668              	.LVL31:
 669 000c 18BF     		it	ne
 670 000e 0120     		movne	r0, #1
 671              	.LVL32:
 672 0010 7047     		bx	lr
 673              		.cfi_endproc
 674              	.LFE156:
 676 0012 00BF     		.section	.text.FLASH_OB_GetBOR,"ax",%progbits
 677              		.align	2
 678              		.global	FLASH_OB_GetBOR
 679              		.thumb
 680              		.thumb_func
 682              	FLASH_OB_GetBOR:
 683              	.LFB157:
1411:Libraries/STM32F4xx_StdPeriph_Driver/src/stm32f4xx_flash.c **** 
1412:Libraries/STM32F4xx_StdPeriph_Driver/src/stm32f4xx_flash.c **** /**
1413:Libraries/STM32F4xx_StdPeriph_Driver/src/stm32f4xx_flash.c ****   * @brief  Returns the FLASH BOR level.
1414:Libraries/STM32F4xx_StdPeriph_Driver/src/stm32f4xx_flash.c ****   * @param  None
1415:Libraries/STM32F4xx_StdPeriph_Driver/src/stm32f4xx_flash.c ****   * @retval The FLASH BOR level:
1416:Libraries/STM32F4xx_StdPeriph_Driver/src/stm32f4xx_flash.c ****   *           - OB_BOR_LEVEL3: Supply voltage ranges from 2.7 to 3.6 V
1417:Libraries/STM32F4xx_StdPeriph_Driver/src/stm32f4xx_flash.c ****   *           - OB_BOR_LEVEL2: Supply voltage ranges from 2.4 to 2.7 V
1418:Libraries/STM32F4xx_StdPeriph_Driver/src/stm32f4xx_flash.c ****   *           - OB_BOR_LEVEL1: Supply voltage ranges from 2.1 to 2.4 V
1419:Libraries/STM32F4xx_StdPeriph_Driver/src/stm32f4xx_flash.c ****   *           - OB_BOR_OFF   : Supply voltage ranges from 1.62 to 2.1 V  
1420:Libraries/STM32F4xx_StdPeriph_Driver/src/stm32f4xx_flash.c ****   */
1421:Libraries/STM32F4xx_StdPeriph_Driver/src/stm32f4xx_flash.c **** uint8_t FLASH_OB_GetBOR(void)
1422:Libraries/STM32F4xx_StdPeriph_Driver/src/stm32f4xx_flash.c **** {
 684              		.loc 1 1422 0
 685              		.cfi_startproc
 686              		@ args = 0, pretend = 0, frame = 0
 687              		@ frame_needed = 0, uses_anonymous_args = 0
 688              		@ link register save eliminated.
1423:Libraries/STM32F4xx_StdPeriph_Driver/src/stm32f4xx_flash.c ****   /* Return the FLASH BOR level */
1424:Libraries/STM32F4xx_StdPeriph_Driver/src/stm32f4xx_flash.c ****   return (uint8_t)(*(__IO uint8_t *)(OPTCR_BYTE0_ADDRESS) & (uint8_t)0x0C);
 689              		.loc 1 1424 0
 690 0000 43F61443 		movw	r3, #15380
 691 0004 C4F20203 		movt	r3, 16386
 692 0008 1878     		ldrb	r0, [r3]	@ zero_extendqisi2
1425:Libraries/STM32F4xx_StdPeriph_Driver/src/stm32f4xx_flash.c **** }
 693              		.loc 1 1425 0
 694 000a 00F00C00 		and	r0, r0, #12
 695 000e 7047     		bx	lr
 696              		.cfi_endproc
 697              	.LFE157:
 699              		.section	.text.FLASH_ITConfig,"ax",%progbits
 700              		.align	2
 701              		.global	FLASH_ITConfig
 702              		.thumb
 703              		.thumb_func
 705              	FLASH_ITConfig:
 706              	.LFB158:
1426:Libraries/STM32F4xx_StdPeriph_Driver/src/stm32f4xx_flash.c **** 
1427:Libraries/STM32F4xx_StdPeriph_Driver/src/stm32f4xx_flash.c **** /**
1428:Libraries/STM32F4xx_StdPeriph_Driver/src/stm32f4xx_flash.c ****   * @}
1429:Libraries/STM32F4xx_StdPeriph_Driver/src/stm32f4xx_flash.c ****   */
1430:Libraries/STM32F4xx_StdPeriph_Driver/src/stm32f4xx_flash.c **** 
1431:Libraries/STM32F4xx_StdPeriph_Driver/src/stm32f4xx_flash.c **** /** @defgroup FLASH_Group4 Interrupts and flags management functions
1432:Libraries/STM32F4xx_StdPeriph_Driver/src/stm32f4xx_flash.c ****  *  @brief   Interrupts and flags management functions
1433:Libraries/STM32F4xx_StdPeriph_Driver/src/stm32f4xx_flash.c ****  *
1434:Libraries/STM32F4xx_StdPeriph_Driver/src/stm32f4xx_flash.c **** @verbatim   
1435:Libraries/STM32F4xx_StdPeriph_Driver/src/stm32f4xx_flash.c ****  ===============================================================================
1436:Libraries/STM32F4xx_StdPeriph_Driver/src/stm32f4xx_flash.c ****               ##### Interrupts and flags management functions #####
1437:Libraries/STM32F4xx_StdPeriph_Driver/src/stm32f4xx_flash.c ****  ===============================================================================  
1438:Libraries/STM32F4xx_StdPeriph_Driver/src/stm32f4xx_flash.c **** @endverbatim
1439:Libraries/STM32F4xx_StdPeriph_Driver/src/stm32f4xx_flash.c ****   * @{
1440:Libraries/STM32F4xx_StdPeriph_Driver/src/stm32f4xx_flash.c ****   */
1441:Libraries/STM32F4xx_StdPeriph_Driver/src/stm32f4xx_flash.c **** 
1442:Libraries/STM32F4xx_StdPeriph_Driver/src/stm32f4xx_flash.c **** /**
1443:Libraries/STM32F4xx_StdPeriph_Driver/src/stm32f4xx_flash.c ****   * @brief  Enables or disables the specified FLASH interrupts.
1444:Libraries/STM32F4xx_StdPeriph_Driver/src/stm32f4xx_flash.c ****   * @param  FLASH_IT: specifies the FLASH interrupt sources to be enabled or disabled.
1445:Libraries/STM32F4xx_StdPeriph_Driver/src/stm32f4xx_flash.c ****   *          This parameter can be any combination of the following values:
1446:Libraries/STM32F4xx_StdPeriph_Driver/src/stm32f4xx_flash.c ****   *            @arg FLASH_IT_ERR: FLASH Error Interrupt
1447:Libraries/STM32F4xx_StdPeriph_Driver/src/stm32f4xx_flash.c ****   *            @arg FLASH_IT_EOP: FLASH end of operation Interrupt
1448:Libraries/STM32F4xx_StdPeriph_Driver/src/stm32f4xx_flash.c ****   * @retval None 
1449:Libraries/STM32F4xx_StdPeriph_Driver/src/stm32f4xx_flash.c ****   */
1450:Libraries/STM32F4xx_StdPeriph_Driver/src/stm32f4xx_flash.c **** void FLASH_ITConfig(uint32_t FLASH_IT, FunctionalState NewState)
1451:Libraries/STM32F4xx_StdPeriph_Driver/src/stm32f4xx_flash.c **** {
 707              		.loc 1 1451 0
 708              		.cfi_startproc
 709              		@ args = 0, pretend = 0, frame = 0
 710              		@ frame_needed = 0, uses_anonymous_args = 0
 711              	.LVL33:
 712 0000 38B5     		push	{r3, r4, r5, lr}
 713              	.LCFI7:
 714              		.cfi_def_cfa_offset 16
 715              		.cfi_offset 3, -16
 716              		.cfi_offset 4, -12
 717              		.cfi_offset 5, -8
 718              		.cfi_offset 14, -4
1452:Libraries/STM32F4xx_StdPeriph_Driver/src/stm32f4xx_flash.c ****   /* Check the parameters */
1453:Libraries/STM32F4xx_StdPeriph_Driver/src/stm32f4xx_flash.c ****   assert_param(IS_FLASH_IT(FLASH_IT)); 
 719              		.loc 1 1453 0
 720 0002 30F04073 		bics	r3, r0, #50331648
1451:Libraries/STM32F4xx_StdPeriph_Driver/src/stm32f4xx_flash.c ****   /* Check the parameters */
 721              		.loc 1 1451 0
 722 0006 0446     		mov	r4, r0
 723 0008 0D46     		mov	r5, r1
 724              		.loc 1 1453 0
 725 000a 12D1     		bne	.L54
 726              		.loc 1 1453 0 is_stmt 0 discriminator 2
 727 000c 88B1     		cbz	r0, .L54
1454:Libraries/STM32F4xx_StdPeriph_Driver/src/stm32f4xx_flash.c ****   assert_param(IS_FUNCTIONAL_STATE(NewState));
 728              		.loc 1 1454 0 is_stmt 1
 729 000e 012D     		cmp	r5, #1
 730 0010 19D9     		bls	.L56
 731              	.LVL34:
 732              	.L60:
 733              		.loc 1 1454 0 is_stmt 0 discriminator 1
 734 0012 40F20000 		movw	r0, #:lower16:.LC0
 735 0016 C0F20000 		movt	r0, #:upper16:.LC0
 736 001a 40F2AE51 		movw	r1, #1454
 737 001e FFF7FEFF 		bl	assert_failed
 738              	.LVL35:
 739              	.L57:
1455:Libraries/STM32F4xx_StdPeriph_Driver/src/stm32f4xx_flash.c **** 
1456:Libraries/STM32F4xx_StdPeriph_Driver/src/stm32f4xx_flash.c ****   if(NewState != DISABLE)
1457:Libraries/STM32F4xx_StdPeriph_Driver/src/stm32f4xx_flash.c ****   {
1458:Libraries/STM32F4xx_StdPeriph_Driver/src/stm32f4xx_flash.c ****     /* Enable the interrupt sources */
1459:Libraries/STM32F4xx_StdPeriph_Driver/src/stm32f4xx_flash.c ****     FLASH->CR |= FLASH_IT;
 740              		.loc 1 1459 0 is_stmt 1
 741 0022 4FF47053 		mov	r3, #15360
 742 0026 C4F20203 		movt	r3, 16386
 743 002a 1A69     		ldr	r2, [r3, #16]
 744 002c 1443     		orrs	r4, r4, r2
 745              	.LVL36:
 746 002e 1C61     		str	r4, [r3, #16]
 747 0030 38BD     		pop	{r3, r4, r5, pc}
 748              	.LVL37:
 749              	.L54:
1453:Libraries/STM32F4xx_StdPeriph_Driver/src/stm32f4xx_flash.c ****   assert_param(IS_FUNCTIONAL_STATE(NewState));
 750              		.loc 1 1453 0 discriminator 1
 751 0032 40F20000 		movw	r0, #:lower16:.LC0
 752              	.LVL38:
 753 0036 C0F20000 		movt	r0, #:upper16:.LC0
 754 003a 40F2AD51 		movw	r1, #1453
 755              	.LVL39:
 756 003e FFF7FEFF 		bl	assert_failed
 757              	.LVL40:
1454:Libraries/STM32F4xx_StdPeriph_Driver/src/stm32f4xx_flash.c ****   assert_param(IS_FUNCTIONAL_STATE(NewState));
 758              		.loc 1 1454 0 discriminator 1
 759 0042 012D     		cmp	r5, #1
 760 0044 E5D8     		bhi	.L60
 761              	.L56:
1456:Libraries/STM32F4xx_StdPeriph_Driver/src/stm32f4xx_flash.c ****   {
 762              		.loc 1 1456 0
 763 0046 002D     		cmp	r5, #0
 764 0048 EBD1     		bne	.L57
1460:Libraries/STM32F4xx_StdPeriph_Driver/src/stm32f4xx_flash.c ****   }
1461:Libraries/STM32F4xx_StdPeriph_Driver/src/stm32f4xx_flash.c ****   else
1462:Libraries/STM32F4xx_StdPeriph_Driver/src/stm32f4xx_flash.c ****   {
1463:Libraries/STM32F4xx_StdPeriph_Driver/src/stm32f4xx_flash.c ****     /* Disable the interrupt sources */
1464:Libraries/STM32F4xx_StdPeriph_Driver/src/stm32f4xx_flash.c ****     FLASH->CR &= ~(uint32_t)FLASH_IT;
 765              		.loc 1 1464 0
 766 004a 4FF47053 		mov	r3, #15360
 767 004e C4F20203 		movt	r3, 16386
 768 0052 1A69     		ldr	r2, [r3, #16]
 769 0054 22EA0404 		bic	r4, r2, r4
 770              	.LVL41:
 771 0058 1C61     		str	r4, [r3, #16]
 772 005a 38BD     		pop	{r3, r4, r5, pc}
 773              		.cfi_endproc
 774              	.LFE158:
 776              		.section	.text.FLASH_GetFlagStatus,"ax",%progbits
 777              		.align	2
 778              		.global	FLASH_GetFlagStatus
 779              		.thumb
 780              		.thumb_func
 782              	FLASH_GetFlagStatus:
 783              	.LFB159:
1465:Libraries/STM32F4xx_StdPeriph_Driver/src/stm32f4xx_flash.c ****   }
1466:Libraries/STM32F4xx_StdPeriph_Driver/src/stm32f4xx_flash.c **** }
1467:Libraries/STM32F4xx_StdPeriph_Driver/src/stm32f4xx_flash.c **** 
1468:Libraries/STM32F4xx_StdPeriph_Driver/src/stm32f4xx_flash.c **** /**
1469:Libraries/STM32F4xx_StdPeriph_Driver/src/stm32f4xx_flash.c ****   * @brief  Checks whether the specified FLASH flag is set or not.
1470:Libraries/STM32F4xx_StdPeriph_Driver/src/stm32f4xx_flash.c ****   * @param  FLASH_FLAG: specifies the FLASH flag to check.
1471:Libraries/STM32F4xx_StdPeriph_Driver/src/stm32f4xx_flash.c ****   *          This parameter can be one of the following values:
1472:Libraries/STM32F4xx_StdPeriph_Driver/src/stm32f4xx_flash.c ****   *            @arg FLASH_FLAG_EOP: FLASH End of Operation flag 
1473:Libraries/STM32F4xx_StdPeriph_Driver/src/stm32f4xx_flash.c ****   *            @arg FLASH_FLAG_OPERR: FLASH operation Error flag 
1474:Libraries/STM32F4xx_StdPeriph_Driver/src/stm32f4xx_flash.c ****   *            @arg FLASH_FLAG_WRPERR: FLASH Write protected error flag 
1475:Libraries/STM32F4xx_StdPeriph_Driver/src/stm32f4xx_flash.c ****   *            @arg FLASH_FLAG_PGAERR: FLASH Programming Alignment error flag
1476:Libraries/STM32F4xx_StdPeriph_Driver/src/stm32f4xx_flash.c ****   *            @arg FLASH_FLAG_PGPERR: FLASH Programming Parallelism error flag
1477:Libraries/STM32F4xx_StdPeriph_Driver/src/stm32f4xx_flash.c ****   *            @arg FLASH_FLAG_PGSERR: FLASH Programming Sequence error flag
1478:Libraries/STM32F4xx_StdPeriph_Driver/src/stm32f4xx_flash.c ****   *            @arg FLASH_FLAG_RDERR: FLASH (PCROP) Read Protection error flag (STM32F42xx/43xxx an
1479:Libraries/STM32F4xx_StdPeriph_Driver/src/stm32f4xx_flash.c ****   *            @arg FLASH_FLAG_BSY: FLASH Busy flag
1480:Libraries/STM32F4xx_StdPeriph_Driver/src/stm32f4xx_flash.c ****   * @retval The new state of FLASH_FLAG (SET or RESET).
1481:Libraries/STM32F4xx_StdPeriph_Driver/src/stm32f4xx_flash.c ****   */
1482:Libraries/STM32F4xx_StdPeriph_Driver/src/stm32f4xx_flash.c **** FlagStatus FLASH_GetFlagStatus(uint32_t FLASH_FLAG)
1483:Libraries/STM32F4xx_StdPeriph_Driver/src/stm32f4xx_flash.c **** {
 784              		.loc 1 1483 0
 785              		.cfi_startproc
 786              		@ args = 0, pretend = 0, frame = 0
 787              		@ frame_needed = 0, uses_anonymous_args = 0
 788              	.LVL42:
1484:Libraries/STM32F4xx_StdPeriph_Driver/src/stm32f4xx_flash.c ****   FlagStatus bitstatus = RESET;
1485:Libraries/STM32F4xx_StdPeriph_Driver/src/stm32f4xx_flash.c ****   /* Check the parameters */
1486:Libraries/STM32F4xx_StdPeriph_Driver/src/stm32f4xx_flash.c ****   assert_param(IS_FLASH_GET_FLAG(FLASH_FLAG));
 789              		.loc 1 1486 0
 790 0000 431E     		subs	r3, r0, #1
 791 0002 1028     		cmp	r0, #16
 792 0004 18BF     		it	ne
 793 0006 012B     		cmpne	r3, #1
1483:Libraries/STM32F4xx_StdPeriph_Driver/src/stm32f4xx_flash.c ****   FlagStatus bitstatus = RESET;
 794              		.loc 1 1483 0
 795 0008 10B5     		push	{r4, lr}
 796              	.LCFI8:
 797              		.cfi_def_cfa_offset 8
 798              		.cfi_offset 4, -8
 799              		.cfi_offset 14, -4
1483:Libraries/STM32F4xx_StdPeriph_Driver/src/stm32f4xx_flash.c ****   FlagStatus bitstatus = RESET;
 800              		.loc 1 1483 0
 801 000a 0446     		mov	r4, r0
 802              		.loc 1 1486 0
 803 000c 13D9     		bls	.L62
 804              		.loc 1 1486 0 is_stmt 0 discriminator 1
 805 000e 2028     		cmp	r0, #32
 806 0010 18BF     		it	ne
 807 0012 4028     		cmpne	r0, #64
 808 0014 0FD0     		beq	.L62
 809 0016 8028     		cmp	r0, #128
 810 0018 18BF     		it	ne
 811 001a B0F5803F 		cmpne	r0, #65536
 812 001e 0AD0     		beq	.L62
 813 0020 B0F5807F 		cmp	r0, #256
 814 0024 07D0     		beq	.L62
 815 0026 40F20000 		movw	r0, #:lower16:.LC0
 816              	.LVL43:
 817 002a C0F20000 		movt	r0, #:upper16:.LC0
 818 002e 40F2CE51 		movw	r1, #1486
 819 0032 FFF7FEFF 		bl	assert_failed
 820              	.LVL44:
 821              	.L62:
1487:Libraries/STM32F4xx_StdPeriph_Driver/src/stm32f4xx_flash.c **** 
1488:Libraries/STM32F4xx_StdPeriph_Driver/src/stm32f4xx_flash.c ****   if((FLASH->SR & FLASH_FLAG) != (uint32_t)RESET)
 822              		.loc 1 1488 0 is_stmt 1
 823 0036 4FF47053 		mov	r3, #15360
 824 003a C4F20203 		movt	r3, 16386
 825 003e DB68     		ldr	r3, [r3, #12]
 826              	.LVL45:
 827 0040 1C42     		tst	r4, r3
1489:Libraries/STM32F4xx_StdPeriph_Driver/src/stm32f4xx_flash.c ****   {
1490:Libraries/STM32F4xx_StdPeriph_Driver/src/stm32f4xx_flash.c ****     bitstatus = SET;
1491:Libraries/STM32F4xx_StdPeriph_Driver/src/stm32f4xx_flash.c ****   }
1492:Libraries/STM32F4xx_StdPeriph_Driver/src/stm32f4xx_flash.c ****   else
1493:Libraries/STM32F4xx_StdPeriph_Driver/src/stm32f4xx_flash.c ****   {
1494:Libraries/STM32F4xx_StdPeriph_Driver/src/stm32f4xx_flash.c ****     bitstatus = RESET;
1495:Libraries/STM32F4xx_StdPeriph_Driver/src/stm32f4xx_flash.c ****   }
1496:Libraries/STM32F4xx_StdPeriph_Driver/src/stm32f4xx_flash.c ****   /* Return the new state of FLASH_FLAG (SET or RESET) */
1497:Libraries/STM32F4xx_StdPeriph_Driver/src/stm32f4xx_flash.c ****   return bitstatus; 
1498:Libraries/STM32F4xx_StdPeriph_Driver/src/stm32f4xx_flash.c **** }
 828              		.loc 1 1498 0
 829 0042 0CBF     		ite	eq
 830 0044 0020     		moveq	r0, #0
 831 0046 0120     		movne	r0, #1
 832 0048 10BD     		pop	{r4, pc}
 833              		.cfi_endproc
 834              	.LFE159:
 836 004a 00BF     		.section	.text.FLASH_ClearFlag,"ax",%progbits
 837              		.align	2
 838              		.global	FLASH_ClearFlag
 839              		.thumb
 840              		.thumb_func
 842              	FLASH_ClearFlag:
 843              	.LFB160:
1499:Libraries/STM32F4xx_StdPeriph_Driver/src/stm32f4xx_flash.c **** 
1500:Libraries/STM32F4xx_StdPeriph_Driver/src/stm32f4xx_flash.c **** /**
1501:Libraries/STM32F4xx_StdPeriph_Driver/src/stm32f4xx_flash.c ****   * @brief  Clears the FLASH's pending flags.
1502:Libraries/STM32F4xx_StdPeriph_Driver/src/stm32f4xx_flash.c ****   * @param  FLASH_FLAG: specifies the FLASH flags to clear.
1503:Libraries/STM32F4xx_StdPeriph_Driver/src/stm32f4xx_flash.c ****   *          This parameter can be any combination of the following values:
1504:Libraries/STM32F4xx_StdPeriph_Driver/src/stm32f4xx_flash.c ****   *            @arg FLASH_FLAG_EOP: FLASH End of Operation flag 
1505:Libraries/STM32F4xx_StdPeriph_Driver/src/stm32f4xx_flash.c ****   *            @arg FLASH_FLAG_OPERR: FLASH operation Error flag 
1506:Libraries/STM32F4xx_StdPeriph_Driver/src/stm32f4xx_flash.c ****   *            @arg FLASH_FLAG_WRPERR: FLASH Write protected error flag 
1507:Libraries/STM32F4xx_StdPeriph_Driver/src/stm32f4xx_flash.c ****   *            @arg FLASH_FLAG_PGAERR: FLASH Programming Alignment error flag 
1508:Libraries/STM32F4xx_StdPeriph_Driver/src/stm32f4xx_flash.c ****   *            @arg FLASH_FLAG_PGPERR: FLASH Programming Parallelism error flag
1509:Libraries/STM32F4xx_StdPeriph_Driver/src/stm32f4xx_flash.c ****   *            @arg FLASH_FLAG_PGSERR: FLASH Programming Sequence error flag
1510:Libraries/STM32F4xx_StdPeriph_Driver/src/stm32f4xx_flash.c ****   *            @arg FLASH_FLAG_RDERR: FLASH Read Protection error flag (STM32F42xx/43xxx and STM32F
1511:Libraries/STM32F4xx_StdPeriph_Driver/src/stm32f4xx_flash.c ****   * @retval None
1512:Libraries/STM32F4xx_StdPeriph_Driver/src/stm32f4xx_flash.c ****   */
1513:Libraries/STM32F4xx_StdPeriph_Driver/src/stm32f4xx_flash.c **** void FLASH_ClearFlag(uint32_t FLASH_FLAG)
1514:Libraries/STM32F4xx_StdPeriph_Driver/src/stm32f4xx_flash.c **** {
 844              		.loc 1 1514 0
 845              		.cfi_startproc
 846              		@ args = 0, pretend = 0, frame = 0
 847              		@ frame_needed = 0, uses_anonymous_args = 0
 848              	.LVL46:
1515:Libraries/STM32F4xx_StdPeriph_Driver/src/stm32f4xx_flash.c ****   /* Check the parameters */
1516:Libraries/STM32F4xx_StdPeriph_Driver/src/stm32f4xx_flash.c ****   assert_param(IS_FLASH_CLEAR_FLAG(FLASH_FLAG));
 849              		.loc 1 1516 0
 850 0000 20F4F973 		bic	r3, r0, #498
 851 0004 23F00103 		bic	r3, r3, #1
1514:Libraries/STM32F4xx_StdPeriph_Driver/src/stm32f4xx_flash.c ****   /* Check the parameters */
 852              		.loc 1 1514 0
 853 0008 10B5     		push	{r4, lr}
 854              	.LCFI9:
 855              		.cfi_def_cfa_offset 8
 856              		.cfi_offset 4, -8
 857              		.cfi_offset 14, -4
1514:Libraries/STM32F4xx_StdPeriph_Driver/src/stm32f4xx_flash.c ****   /* Check the parameters */
 858              		.loc 1 1514 0
 859 000a 0446     		mov	r4, r0
 860              		.loc 1 1516 0
 861 000c 03B9     		cbnz	r3, .L76
 862              		.loc 1 1516 0 is_stmt 0 discriminator 2
 863 000e 38B9     		cbnz	r0, .L77
 864              	.L76:
 865              		.loc 1 1516 0 discriminator 1
 866 0010 40F20000 		movw	r0, #:lower16:.LC0
 867              	.LVL47:
 868 0014 C0F20000 		movt	r0, #:upper16:.LC0
 869 0018 40F2EC51 		movw	r1, #1516
 870 001c FFF7FEFF 		bl	assert_failed
 871              	.LVL48:
 872              	.L77:
1517:Libraries/STM32F4xx_StdPeriph_Driver/src/stm32f4xx_flash.c ****   
1518:Libraries/STM32F4xx_StdPeriph_Driver/src/stm32f4xx_flash.c ****   /* Clear the flags */
1519:Libraries/STM32F4xx_StdPeriph_Driver/src/stm32f4xx_flash.c ****   FLASH->SR = FLASH_FLAG;
 873              		.loc 1 1519 0 is_stmt 1
 874 0020 4FF47053 		mov	r3, #15360
 875 0024 C4F20203 		movt	r3, 16386
 876 0028 DC60     		str	r4, [r3, #12]
 877 002a 10BD     		pop	{r4, pc}
 878              		.cfi_endproc
 879              	.LFE160:
 881              		.section	.text.FLASH_GetStatus,"ax",%progbits
 882              		.align	2
 883              		.global	FLASH_GetStatus
 884              		.thumb
 885              		.thumb_func
 887              	FLASH_GetStatus:
 888              	.LFB161:
1520:Libraries/STM32F4xx_StdPeriph_Driver/src/stm32f4xx_flash.c **** }
1521:Libraries/STM32F4xx_StdPeriph_Driver/src/stm32f4xx_flash.c **** 
1522:Libraries/STM32F4xx_StdPeriph_Driver/src/stm32f4xx_flash.c **** /**
1523:Libraries/STM32F4xx_StdPeriph_Driver/src/stm32f4xx_flash.c ****   * @brief  Returns the FLASH Status.
1524:Libraries/STM32F4xx_StdPeriph_Driver/src/stm32f4xx_flash.c ****   * @param  None
1525:Libraries/STM32F4xx_StdPeriph_Driver/src/stm32f4xx_flash.c ****   * @retval FLASH Status: The returned value can be: FLASH_BUSY, FLASH_ERROR_PROGRAM,
1526:Libraries/STM32F4xx_StdPeriph_Driver/src/stm32f4xx_flash.c ****   *                       FLASH_ERROR_WRP, FLASH_ERROR_RD, FLASH_ERROR_OPERATION or FLASH_COMPLETE.
1527:Libraries/STM32F4xx_StdPeriph_Driver/src/stm32f4xx_flash.c ****   */
1528:Libraries/STM32F4xx_StdPeriph_Driver/src/stm32f4xx_flash.c **** FLASH_Status FLASH_GetStatus(void)
1529:Libraries/STM32F4xx_StdPeriph_Driver/src/stm32f4xx_flash.c **** {
 889              		.loc 1 1529 0
 890              		.cfi_startproc
 891              		@ args = 0, pretend = 0, frame = 0
 892              		@ frame_needed = 0, uses_anonymous_args = 0
 893              		@ link register save eliminated.
 894              	.LVL49:
1530:Libraries/STM32F4xx_StdPeriph_Driver/src/stm32f4xx_flash.c ****   FLASH_Status flashstatus = FLASH_COMPLETE;
1531:Libraries/STM32F4xx_StdPeriph_Driver/src/stm32f4xx_flash.c ****   
1532:Libraries/STM32F4xx_StdPeriph_Driver/src/stm32f4xx_flash.c ****   if((FLASH->SR & FLASH_FLAG_BSY) == FLASH_FLAG_BSY) 
 895              		.loc 1 1532 0
 896 0000 4FF47053 		mov	r3, #15360
 897 0004 C4F20203 		movt	r3, 16386
 898 0008 DA68     		ldr	r2, [r3, #12]
 899 000a D003     		lsls	r0, r2, #15
 900 000c 09D4     		bmi	.L81
1533:Libraries/STM32F4xx_StdPeriph_Driver/src/stm32f4xx_flash.c ****   {
1534:Libraries/STM32F4xx_StdPeriph_Driver/src/stm32f4xx_flash.c ****     flashstatus = FLASH_BUSY;
1535:Libraries/STM32F4xx_StdPeriph_Driver/src/stm32f4xx_flash.c ****   }
1536:Libraries/STM32F4xx_StdPeriph_Driver/src/stm32f4xx_flash.c ****   else 
1537:Libraries/STM32F4xx_StdPeriph_Driver/src/stm32f4xx_flash.c ****   {  
1538:Libraries/STM32F4xx_StdPeriph_Driver/src/stm32f4xx_flash.c ****     if((FLASH->SR & FLASH_FLAG_WRPERR) != (uint32_t)0x00)
 901              		.loc 1 1538 0
 902 000e DA68     		ldr	r2, [r3, #12]
 903 0010 D106     		lsls	r1, r2, #27
 904 0012 01D5     		bpl	.L86
1539:Libraries/STM32F4xx_StdPeriph_Driver/src/stm32f4xx_flash.c ****     { 
1540:Libraries/STM32F4xx_StdPeriph_Driver/src/stm32f4xx_flash.c ****       flashstatus = FLASH_ERROR_WRP;
 905              		.loc 1 1540 0
 906 0014 0620     		movs	r0, #6
 907 0016 7047     		bx	lr
 908              	.L86:
1541:Libraries/STM32F4xx_StdPeriph_Driver/src/stm32f4xx_flash.c ****     }
1542:Libraries/STM32F4xx_StdPeriph_Driver/src/stm32f4xx_flash.c ****     else
1543:Libraries/STM32F4xx_StdPeriph_Driver/src/stm32f4xx_flash.c ****     {
1544:Libraries/STM32F4xx_StdPeriph_Driver/src/stm32f4xx_flash.c ****       if((FLASH->SR & FLASH_FLAG_RDERR) != (uint32_t)0x00)
 909              		.loc 1 1544 0
 910 0018 DA68     		ldr	r2, [r3, #12]
 911 001a D205     		lsls	r2, r2, #23
 912 001c 03D5     		bpl	.L87
1545:Libraries/STM32F4xx_StdPeriph_Driver/src/stm32f4xx_flash.c ****       { 
1546:Libraries/STM32F4xx_StdPeriph_Driver/src/stm32f4xx_flash.c ****         flashstatus = FLASH_ERROR_RD;
 913              		.loc 1 1546 0
 914 001e 0220     		movs	r0, #2
 915 0020 7047     		bx	lr
 916              	.L81:
1534:Libraries/STM32F4xx_StdPeriph_Driver/src/stm32f4xx_flash.c ****   }
 917              		.loc 1 1534 0
 918 0022 0120     		movs	r0, #1
 919 0024 7047     		bx	lr
 920              	.L87:
1547:Libraries/STM32F4xx_StdPeriph_Driver/src/stm32f4xx_flash.c ****       } 
1548:Libraries/STM32F4xx_StdPeriph_Driver/src/stm32f4xx_flash.c ****       else 
1549:Libraries/STM32F4xx_StdPeriph_Driver/src/stm32f4xx_flash.c ****       {
1550:Libraries/STM32F4xx_StdPeriph_Driver/src/stm32f4xx_flash.c ****         if((FLASH->SR & (uint32_t)0xE0) != (uint32_t)0x00)
 921              		.loc 1 1550 0
 922 0026 DA68     		ldr	r2, [r3, #12]
 923 0028 12F0E00F 		tst	r2, #224
 924 002c 01D0     		beq	.L88
1551:Libraries/STM32F4xx_StdPeriph_Driver/src/stm32f4xx_flash.c ****         {
1552:Libraries/STM32F4xx_StdPeriph_Driver/src/stm32f4xx_flash.c ****           flashstatus = FLASH_ERROR_PROGRAM; 
 925              		.loc 1 1552 0
 926 002e 0720     		movs	r0, #7
 927              	.LVL50:
1553:Libraries/STM32F4xx_StdPeriph_Driver/src/stm32f4xx_flash.c ****         }
1554:Libraries/STM32F4xx_StdPeriph_Driver/src/stm32f4xx_flash.c ****         else
1555:Libraries/STM32F4xx_StdPeriph_Driver/src/stm32f4xx_flash.c ****         {
1556:Libraries/STM32F4xx_StdPeriph_Driver/src/stm32f4xx_flash.c ****           if((FLASH->SR & FLASH_FLAG_OPERR) != (uint32_t)0x00)
1557:Libraries/STM32F4xx_StdPeriph_Driver/src/stm32f4xx_flash.c ****           {
1558:Libraries/STM32F4xx_StdPeriph_Driver/src/stm32f4xx_flash.c ****             flashstatus = FLASH_ERROR_OPERATION;
1559:Libraries/STM32F4xx_StdPeriph_Driver/src/stm32f4xx_flash.c ****           }
1560:Libraries/STM32F4xx_StdPeriph_Driver/src/stm32f4xx_flash.c ****           else
1561:Libraries/STM32F4xx_StdPeriph_Driver/src/stm32f4xx_flash.c ****           {
1562:Libraries/STM32F4xx_StdPeriph_Driver/src/stm32f4xx_flash.c ****             flashstatus = FLASH_COMPLETE;
1563:Libraries/STM32F4xx_StdPeriph_Driver/src/stm32f4xx_flash.c ****           }
1564:Libraries/STM32F4xx_StdPeriph_Driver/src/stm32f4xx_flash.c ****         }
1565:Libraries/STM32F4xx_StdPeriph_Driver/src/stm32f4xx_flash.c ****       }
1566:Libraries/STM32F4xx_StdPeriph_Driver/src/stm32f4xx_flash.c ****     }
1567:Libraries/STM32F4xx_StdPeriph_Driver/src/stm32f4xx_flash.c ****   }
1568:Libraries/STM32F4xx_StdPeriph_Driver/src/stm32f4xx_flash.c ****   /* Return the FLASH Status */
1569:Libraries/STM32F4xx_StdPeriph_Driver/src/stm32f4xx_flash.c ****   return flashstatus;
1570:Libraries/STM32F4xx_StdPeriph_Driver/src/stm32f4xx_flash.c **** }
 928              		.loc 1 1570 0
 929 0030 7047     		bx	lr
 930              	.LVL51:
 931              	.L88:
 932              	.LBB4:
 933              	.LBB5:
1556:Libraries/STM32F4xx_StdPeriph_Driver/src/stm32f4xx_flash.c ****           {
 934              		.loc 1 1556 0
 935 0032 DB68     		ldr	r3, [r3, #12]
 936 0034 13F0020F 		tst	r3, #2
1558:Libraries/STM32F4xx_StdPeriph_Driver/src/stm32f4xx_flash.c ****           }
 937              		.loc 1 1558 0
 938 0038 0CBF     		ite	eq
 939 003a 0920     		moveq	r0, #9
 940 003c 0820     		movne	r0, #8
 941 003e 7047     		bx	lr
 942              	.LBE5:
 943              	.LBE4:
 944              		.cfi_endproc
 945              	.LFE161:
 947              		.section	.text.FLASH_WaitForLastOperation,"ax",%progbits
 948              		.align	2
 949              		.global	FLASH_WaitForLastOperation
 950              		.thumb
 951              		.thumb_func
 953              	FLASH_WaitForLastOperation:
 954              	.LFB162:
1571:Libraries/STM32F4xx_StdPeriph_Driver/src/stm32f4xx_flash.c **** 
1572:Libraries/STM32F4xx_StdPeriph_Driver/src/stm32f4xx_flash.c **** /**
1573:Libraries/STM32F4xx_StdPeriph_Driver/src/stm32f4xx_flash.c ****   * @brief  Waits for a FLASH operation to complete.
1574:Libraries/STM32F4xx_StdPeriph_Driver/src/stm32f4xx_flash.c ****   * @param  None
1575:Libraries/STM32F4xx_StdPeriph_Driver/src/stm32f4xx_flash.c ****   * @retval FLASH Status: The returned value can be: FLASH_BUSY, FLASH_ERROR_PROGRAM,
1576:Libraries/STM32F4xx_StdPeriph_Driver/src/stm32f4xx_flash.c ****   *                       FLASH_ERROR_WRP, FLASH_ERROR_OPERATION or FLASH_COMPLETE.
1577:Libraries/STM32F4xx_StdPeriph_Driver/src/stm32f4xx_flash.c ****   */
1578:Libraries/STM32F4xx_StdPeriph_Driver/src/stm32f4xx_flash.c **** FLASH_Status FLASH_WaitForLastOperation(void)
1579:Libraries/STM32F4xx_StdPeriph_Driver/src/stm32f4xx_flash.c **** { 
 955              		.loc 1 1579 0
 956              		.cfi_startproc
 957              		@ args = 0, pretend = 0, frame = 8
 958              		@ frame_needed = 0, uses_anonymous_args = 0
 959              		@ link register save eliminated.
 960 0000 82B0     		sub	sp, sp, #8
 961              	.LCFI10:
 962              		.cfi_def_cfa_offset 8
 963              	.LBB14:
 964              	.LBB15:
1532:Libraries/STM32F4xx_StdPeriph_Driver/src/stm32f4xx_flash.c ****   {
 965              		.loc 1 1532 0
 966 0002 4FF47053 		mov	r3, #15360
 967 0006 C4F20203 		movt	r3, 16386
 968              	.LBE15:
 969              	.LBE14:
1580:Libraries/STM32F4xx_StdPeriph_Driver/src/stm32f4xx_flash.c ****   __IO FLASH_Status status = FLASH_COMPLETE;
 970              		.loc 1 1580 0
 971 000a 0922     		movs	r2, #9
 972 000c 8DF80720 		strb	r2, [sp, #7]
 973              	.LVL52:
 974              	.LBB20:
 975              	.LBB18:
1532:Libraries/STM32F4xx_StdPeriph_Driver/src/stm32f4xx_flash.c ****   {
 976              		.loc 1 1532 0
 977 0010 DA68     		ldr	r2, [r3, #12]
 978 0012 D003     		lsls	r0, r2, #15
1534:Libraries/STM32F4xx_StdPeriph_Driver/src/stm32f4xx_flash.c ****   }
 979              		.loc 1 1534 0
 980 0014 48BF     		it	mi
 981 0016 0123     		movmi	r3, #1
1532:Libraries/STM32F4xx_StdPeriph_Driver/src/stm32f4xx_flash.c ****   {
 982              		.loc 1 1532 0
 983 0018 04D4     		bmi	.L90
1538:Libraries/STM32F4xx_StdPeriph_Driver/src/stm32f4xx_flash.c ****     { 
 984              		.loc 1 1538 0
 985 001a DA68     		ldr	r2, [r3, #12]
 986 001c D106     		lsls	r1, r2, #27
1540:Libraries/STM32F4xx_StdPeriph_Driver/src/stm32f4xx_flash.c ****     }
 987              		.loc 1 1540 0
 988 001e 48BF     		it	mi
 989 0020 0623     		movmi	r3, #6
1538:Libraries/STM32F4xx_StdPeriph_Driver/src/stm32f4xx_flash.c ****     { 
 990              		.loc 1 1538 0
 991 0022 37D5     		bpl	.L108
 992              	.L90:
 993              	.LVL53:
 994              	.LBE18:
 995              	.LBE20:
1581:Libraries/STM32F4xx_StdPeriph_Driver/src/stm32f4xx_flash.c ****    
1582:Libraries/STM32F4xx_StdPeriph_Driver/src/stm32f4xx_flash.c ****   /* Check for the FLASH Status */
1583:Libraries/STM32F4xx_StdPeriph_Driver/src/stm32f4xx_flash.c ****   status = FLASH_GetStatus();
 996              		.loc 1 1583 0
 997 0024 8DF80730 		strb	r3, [sp, #7]
1584:Libraries/STM32F4xx_StdPeriph_Driver/src/stm32f4xx_flash.c **** 
1585:Libraries/STM32F4xx_StdPeriph_Driver/src/stm32f4xx_flash.c ****   /* Wait for the FLASH operation to complete by polling on BUSY flag to be reset.
1586:Libraries/STM32F4xx_StdPeriph_Driver/src/stm32f4xx_flash.c ****      Even if the FLASH operation fails, the BUSY flag will be reset and an error
1587:Libraries/STM32F4xx_StdPeriph_Driver/src/stm32f4xx_flash.c ****      flag will be set */
1588:Libraries/STM32F4xx_StdPeriph_Driver/src/stm32f4xx_flash.c ****   while(status == FLASH_BUSY)
 998              		.loc 1 1588 0
 999 0028 9DF80730 		ldrb	r3, [sp, #7]	@ zero_extendqisi2
 1000              	.LVL54:
 1001 002c 012B     		cmp	r3, #1
 1002              	.LBB21:
 1003              	.LBB22:
1532:Libraries/STM32F4xx_StdPeriph_Driver/src/stm32f4xx_flash.c ****   {
 1004              		.loc 1 1532 0
 1005 002e 04BF     		itt	eq
 1006 0030 4FF47053 		moveq	r3, #15360
 1007 0034 C4F20203 		movteq	r3, 16386
 1008              	.LBE22:
 1009              	.LBE21:
 1010              		.loc 1 1588 0
 1011 0038 06D0     		beq	.L96
 1012 003a 26E0     		b	.L95
 1013              	.LVL55:
 1014              	.L93:
1589:Libraries/STM32F4xx_StdPeriph_Driver/src/stm32f4xx_flash.c ****   {
1590:Libraries/STM32F4xx_StdPeriph_Driver/src/stm32f4xx_flash.c ****     status = FLASH_GetStatus();
 1015              		.loc 1 1590 0
 1016 003c 8DF80720 		strb	r2, [sp, #7]
1588:Libraries/STM32F4xx_StdPeriph_Driver/src/stm32f4xx_flash.c ****   {
 1017              		.loc 1 1588 0
 1018 0040 9DF80720 		ldrb	r2, [sp, #7]	@ zero_extendqisi2
 1019              	.LVL56:
 1020 0044 012A     		cmp	r2, #1
 1021 0046 20D1     		bne	.L95
 1022              	.L96:
 1023              	.LVL57:
 1024              	.LBB26:
 1025              	.LBB25:
1532:Libraries/STM32F4xx_StdPeriph_Driver/src/stm32f4xx_flash.c ****   {
 1026              		.loc 1 1532 0
 1027 0048 DA68     		ldr	r2, [r3, #12]
 1028 004a D003     		lsls	r0, r2, #15
1534:Libraries/STM32F4xx_StdPeriph_Driver/src/stm32f4xx_flash.c ****   }
 1029              		.loc 1 1534 0
 1030 004c 48BF     		it	mi
 1031 004e 0122     		movmi	r2, #1
1532:Libraries/STM32F4xx_StdPeriph_Driver/src/stm32f4xx_flash.c ****   {
 1032              		.loc 1 1532 0
 1033 0050 F4D4     		bmi	.L93
1538:Libraries/STM32F4xx_StdPeriph_Driver/src/stm32f4xx_flash.c ****     { 
 1034              		.loc 1 1538 0
 1035 0052 DA68     		ldr	r2, [r3, #12]
 1036 0054 D106     		lsls	r1, r2, #27
1540:Libraries/STM32F4xx_StdPeriph_Driver/src/stm32f4xx_flash.c ****     }
 1037              		.loc 1 1540 0
 1038 0056 48BF     		it	mi
 1039 0058 0622     		movmi	r2, #6
1538:Libraries/STM32F4xx_StdPeriph_Driver/src/stm32f4xx_flash.c ****     { 
 1040              		.loc 1 1538 0
 1041 005a EFD4     		bmi	.L93
1544:Libraries/STM32F4xx_StdPeriph_Driver/src/stm32f4xx_flash.c ****       { 
 1042              		.loc 1 1544 0
 1043 005c DA68     		ldr	r2, [r3, #12]
 1044 005e D205     		lsls	r2, r2, #23
1546:Libraries/STM32F4xx_StdPeriph_Driver/src/stm32f4xx_flash.c ****       } 
 1045              		.loc 1 1546 0
 1046 0060 48BF     		it	mi
 1047 0062 0222     		movmi	r2, #2
1544:Libraries/STM32F4xx_StdPeriph_Driver/src/stm32f4xx_flash.c ****       { 
 1048              		.loc 1 1544 0
 1049 0064 EAD4     		bmi	.L93
1550:Libraries/STM32F4xx_StdPeriph_Driver/src/stm32f4xx_flash.c ****         {
 1050              		.loc 1 1550 0
 1051 0066 DA68     		ldr	r2, [r3, #12]
 1052 0068 12F0E00F 		tst	r2, #224
1552:Libraries/STM32F4xx_StdPeriph_Driver/src/stm32f4xx_flash.c ****         }
 1053              		.loc 1 1552 0
 1054 006c 18BF     		it	ne
 1055 006e 0722     		movne	r2, #7
1550:Libraries/STM32F4xx_StdPeriph_Driver/src/stm32f4xx_flash.c ****         {
 1056              		.loc 1 1550 0
 1057 0070 E4D1     		bne	.L93
 1058              	.LBB23:
 1059              	.LBB24:
1556:Libraries/STM32F4xx_StdPeriph_Driver/src/stm32f4xx_flash.c ****           {
 1060              		.loc 1 1556 0
 1061 0072 DA68     		ldr	r2, [r3, #12]
1558:Libraries/STM32F4xx_StdPeriph_Driver/src/stm32f4xx_flash.c ****           }
 1062              		.loc 1 1558 0
 1063 0074 12F0020F 		tst	r2, #2
 1064 0078 0CBF     		ite	eq
 1065 007a 0922     		moveq	r2, #9
 1066 007c 0822     		movne	r2, #8
 1067              	.LVL58:
 1068              	.LBE24:
 1069              	.LBE23:
 1070              	.LBE25:
 1071              	.LBE26:
 1072              		.loc 1 1590 0
 1073 007e 8DF80720 		strb	r2, [sp, #7]
1588:Libraries/STM32F4xx_StdPeriph_Driver/src/stm32f4xx_flash.c ****   {
 1074              		.loc 1 1588 0
 1075 0082 9DF80720 		ldrb	r2, [sp, #7]	@ zero_extendqisi2
 1076              	.LVL59:
 1077 0086 012A     		cmp	r2, #1
 1078              	.LVL60:
 1079 0088 DED0     		beq	.L96
 1080              	.L95:
1591:Libraries/STM32F4xx_StdPeriph_Driver/src/stm32f4xx_flash.c ****   }
1592:Libraries/STM32F4xx_StdPeriph_Driver/src/stm32f4xx_flash.c ****   /* Return the operation status */
1593:Libraries/STM32F4xx_StdPeriph_Driver/src/stm32f4xx_flash.c ****   return status;
 1081              		.loc 1 1593 0
 1082 008a 9DF80700 		ldrb	r0, [sp, #7]	@ zero_extendqisi2
 1083 008e C0B2     		uxtb	r0, r0
1594:Libraries/STM32F4xx_StdPeriph_Driver/src/stm32f4xx_flash.c **** }
 1084              		.loc 1 1594 0
 1085 0090 02B0     		add	sp, sp, #8
 1086              		@ sp needed
 1087 0092 7047     		bx	lr
 1088              	.LVL61:
 1089              	.L108:
 1090              	.LBB27:
 1091              	.LBB19:
1544:Libraries/STM32F4xx_StdPeriph_Driver/src/stm32f4xx_flash.c ****       { 
 1092              		.loc 1 1544 0
 1093 0094 DA68     		ldr	r2, [r3, #12]
 1094 0096 D205     		lsls	r2, r2, #23
1546:Libraries/STM32F4xx_StdPeriph_Driver/src/stm32f4xx_flash.c ****       } 
 1095              		.loc 1 1546 0
 1096 0098 48BF     		it	mi
 1097 009a 0223     		movmi	r3, #2
1544:Libraries/STM32F4xx_StdPeriph_Driver/src/stm32f4xx_flash.c ****       { 
 1098              		.loc 1 1544 0
 1099 009c C2D4     		bmi	.L90
1550:Libraries/STM32F4xx_StdPeriph_Driver/src/stm32f4xx_flash.c ****         {
 1100              		.loc 1 1550 0
 1101 009e DA68     		ldr	r2, [r3, #12]
 1102 00a0 12F0E00F 		tst	r2, #224
1552:Libraries/STM32F4xx_StdPeriph_Driver/src/stm32f4xx_flash.c ****         }
 1103              		.loc 1 1552 0
 1104 00a4 18BF     		it	ne
 1105 00a6 0723     		movne	r3, #7
1550:Libraries/STM32F4xx_StdPeriph_Driver/src/stm32f4xx_flash.c ****         {
 1106              		.loc 1 1550 0
 1107 00a8 BCD1     		bne	.L90
 1108              	.LBB16:
 1109              	.LBB17:
1556:Libraries/STM32F4xx_StdPeriph_Driver/src/stm32f4xx_flash.c ****           {
 1110              		.loc 1 1556 0
 1111 00aa DB68     		ldr	r3, [r3, #12]
1558:Libraries/STM32F4xx_StdPeriph_Driver/src/stm32f4xx_flash.c ****           }
 1112              		.loc 1 1558 0
 1113 00ac 13F0020F 		tst	r3, #2
 1114 00b0 0CBF     		ite	eq
 1115 00b2 0923     		moveq	r3, #9
 1116 00b4 0823     		movne	r3, #8
 1117 00b6 B5E7     		b	.L90
 1118              	.LBE17:
 1119              	.LBE16:
 1120              	.LBE19:
 1121              	.LBE27:
 1122              		.cfi_endproc
 1123              	.LFE162:
 1125              		.section	.text.FLASH_EraseSector,"ax",%progbits
 1126              		.align	2
 1127              		.global	FLASH_EraseSector
 1128              		.thumb
 1129              		.thumb_func
 1131              	FLASH_EraseSector:
 1132              	.LFB131:
 470:Libraries/STM32F4xx_StdPeriph_Driver/src/stm32f4xx_flash.c ****   uint32_t tmp_psize = 0x0;
 1133              		.loc 1 470 0
 1134              		.cfi_startproc
 1135              		@ args = 0, pretend = 0, frame = 0
 1136              		@ frame_needed = 0, uses_anonymous_args = 0
 1137              	.LVL62:
 475:Libraries/STM32F4xx_StdPeriph_Driver/src/stm32f4xx_flash.c ****   assert_param(IS_VOLTAGERANGE(VoltageRange));
 1138              		.loc 1 475 0
 1139 0000 30F01803 		bics	r3, r0, #24
 470:Libraries/STM32F4xx_StdPeriph_Driver/src/stm32f4xx_flash.c ****   uint32_t tmp_psize = 0x0;
 1140              		.loc 1 470 0
 1141 0004 70B5     		push	{r4, r5, r6, lr}
 1142              	.LCFI11:
 1143              		.cfi_def_cfa_offset 16
 1144              		.cfi_offset 4, -16
 1145              		.cfi_offset 5, -12
 1146              		.cfi_offset 6, -8
 1147              		.cfi_offset 14, -4
 470:Libraries/STM32F4xx_StdPeriph_Driver/src/stm32f4xx_flash.c ****   uint32_t tmp_psize = 0x0;
 1148              		.loc 1 470 0
 1149 0006 0546     		mov	r5, r0
 1150 0008 0C46     		mov	r4, r1
 475:Libraries/STM32F4xx_StdPeriph_Driver/src/stm32f4xx_flash.c ****   assert_param(IS_VOLTAGERANGE(VoltageRange));
 1151              		.loc 1 475 0
 1152 000a 01D0     		beq	.L110
 475:Libraries/STM32F4xx_StdPeriph_Driver/src/stm32f4xx_flash.c ****   assert_param(IS_VOLTAGERANGE(VoltageRange));
 1153              		.loc 1 475 0 is_stmt 0 discriminator 1
 1154 000c 202B     		cmp	r3, #32
 1155 000e 43D1     		bne	.L136
 1156              	.LVL63:
 1157              	.L110:
 476:Libraries/STM32F4xx_StdPeriph_Driver/src/stm32f4xx_flash.c ****   
 1158              		.loc 1 476 0 is_stmt 1
 1159 0010 032C     		cmp	r4, #3
 1160 0012 06D8     		bhi	.L137
 478:Libraries/STM32F4xx_StdPeriph_Driver/src/stm32f4xx_flash.c ****   {
 1161              		.loc 1 478 0
 1162 0014 002C     		cmp	r4, #0
 1163 0016 39D1     		bne	.L138
 1164              	.L113:
 1165              	.LVL64:
 495:Libraries/STM32F4xx_StdPeriph_Driver/src/stm32f4xx_flash.c ****   
 1166              		.loc 1 495 0
 1167 0018 FFF7FEFF 		bl	FLASH_WaitForLastOperation
 1168              	.LVL65:
 497:Libraries/STM32F4xx_StdPeriph_Driver/src/stm32f4xx_flash.c ****   { 
 1169              		.loc 1 497 0
 1170 001c 0928     		cmp	r0, #9
 1171 001e 12D0     		beq	.L139
 1172              	.LVL66:
 1173              	.L114:
 515:Libraries/STM32F4xx_StdPeriph_Driver/src/stm32f4xx_flash.c **** 
 1174              		.loc 1 515 0
 1175 0020 70BD     		pop	{r4, r5, r6, pc}
 1176              	.LVL67:
 1177              	.L137:
 476:Libraries/STM32F4xx_StdPeriph_Driver/src/stm32f4xx_flash.c ****   
 1178              		.loc 1 476 0 discriminator 1
 1179 0022 40F20000 		movw	r0, #:lower16:.LC0
 1180 0026 C0F20000 		movt	r0, #:upper16:.LC0
 1181 002a 4FF4EE71 		mov	r1, #476
 1182 002e FFF7FEFF 		bl	assert_failed
 1183              	.LVL68:
 1184              	.L112:
 495:Libraries/STM32F4xx_StdPeriph_Driver/src/stm32f4xx_flash.c ****   
 1185              		.loc 1 495 0
 1186 0032 FFF7FEFF 		bl	FLASH_WaitForLastOperation
 1187              	.LVL69:
 488:Libraries/STM32F4xx_StdPeriph_Driver/src/stm32f4xx_flash.c ****   }
 1188              		.loc 1 488 0
 1189 0036 022C     		cmp	r4, #2
 1190 0038 14BF     		ite	ne
 1191 003a 4FF44074 		movne	r4, #768
 1192 003e 4FF40074 		moveq	r4, #512
 1193              	.LVL70:
 497:Libraries/STM32F4xx_StdPeriph_Driver/src/stm32f4xx_flash.c ****   { 
 1194              		.loc 1 497 0
 1195 0042 0928     		cmp	r0, #9
 1196 0044 ECD1     		bne	.L114
 1197              	.LVL71:
 1198              	.L139:
 500:Libraries/STM32F4xx_StdPeriph_Driver/src/stm32f4xx_flash.c ****     FLASH->CR |= tmp_psize;
 1199              		.loc 1 500 0
 1200 0046 4FF47056 		mov	r6, #15360
 1201 004a C4F20206 		movt	r6, 16386
 1202 004e 3369     		ldr	r3, [r6, #16]
 1203 0050 23F44073 		bic	r3, r3, #768
 1204 0054 3361     		str	r3, [r6, #16]
 501:Libraries/STM32F4xx_StdPeriph_Driver/src/stm32f4xx_flash.c ****     FLASH->CR &= SECTOR_MASK;
 1205              		.loc 1 501 0
 1206 0056 3369     		ldr	r3, [r6, #16]
 1207 0058 1C43     		orrs	r4, r4, r3
 1208              	.LVL72:
 1209 005a 3461     		str	r4, [r6, #16]
 502:Libraries/STM32F4xx_StdPeriph_Driver/src/stm32f4xx_flash.c ****     FLASH->CR |= FLASH_CR_SER | FLASH_Sector;
 1210              		.loc 1 502 0
 1211 005c 3369     		ldr	r3, [r6, #16]
 1212 005e 23F0F803 		bic	r3, r3, #248
 1213 0062 3361     		str	r3, [r6, #16]
 503:Libraries/STM32F4xx_StdPeriph_Driver/src/stm32f4xx_flash.c ****     FLASH->CR |= FLASH_CR_STRT;
 1214              		.loc 1 503 0
 1215 0064 3369     		ldr	r3, [r6, #16]
 1216 0066 43F00203 		orr	r3, r3, #2
 1217 006a 1D43     		orrs	r5, r5, r3
 1218              	.LVL73:
 1219 006c 3561     		str	r5, [r6, #16]
 504:Libraries/STM32F4xx_StdPeriph_Driver/src/stm32f4xx_flash.c ****     
 1220              		.loc 1 504 0
 1221 006e 3369     		ldr	r3, [r6, #16]
 1222 0070 43F48033 		orr	r3, r3, #65536
 1223 0074 3361     		str	r3, [r6, #16]
 507:Libraries/STM32F4xx_StdPeriph_Driver/src/stm32f4xx_flash.c ****     
 1224              		.loc 1 507 0
 1225 0076 FFF7FEFF 		bl	FLASH_WaitForLastOperation
 1226              	.LVL74:
 510:Libraries/STM32F4xx_StdPeriph_Driver/src/stm32f4xx_flash.c ****     FLASH->CR &= SECTOR_MASK; 
 1227              		.loc 1 510 0
 1228 007a 3369     		ldr	r3, [r6, #16]
 1229 007c 23F00203 		bic	r3, r3, #2
 1230 0080 3361     		str	r3, [r6, #16]
 511:Libraries/STM32F4xx_StdPeriph_Driver/src/stm32f4xx_flash.c ****   }
 1231              		.loc 1 511 0
 1232 0082 3369     		ldr	r3, [r6, #16]
 1233 0084 23F0F803 		bic	r3, r3, #248
 1234 0088 3361     		str	r3, [r6, #16]
 515:Libraries/STM32F4xx_StdPeriph_Driver/src/stm32f4xx_flash.c **** 
 1235              		.loc 1 515 0
 1236 008a 70BD     		pop	{r4, r5, r6, pc}
 1237              	.LVL75:
 1238              	.L138:
 482:Libraries/STM32F4xx_StdPeriph_Driver/src/stm32f4xx_flash.c ****   {
 1239              		.loc 1 482 0
 1240 008c 012C     		cmp	r4, #1
 484:Libraries/STM32F4xx_StdPeriph_Driver/src/stm32f4xx_flash.c ****   }
 1241              		.loc 1 484 0
 1242 008e 08BF     		it	eq
 1243 0090 4FF48074 		moveq	r4, #256
 482:Libraries/STM32F4xx_StdPeriph_Driver/src/stm32f4xx_flash.c ****   {
 1244              		.loc 1 482 0
 1245 0094 C0D0     		beq	.L113
 1246 0096 CCE7     		b	.L112
 1247              	.LVL76:
 1248              	.L136:
 475:Libraries/STM32F4xx_StdPeriph_Driver/src/stm32f4xx_flash.c ****   assert_param(IS_VOLTAGERANGE(VoltageRange));
 1249              		.loc 1 475 0 discriminator 1
 1250 0098 402B     		cmp	r3, #64
 1251 009a B9D0     		beq	.L110
 1252 009c 802B     		cmp	r3, #128
 1253 009e B7D0     		beq	.L110
 1254 00a0 A02B     		cmp	r3, #160
 1255 00a2 B5D0     		beq	.L110
 1256 00a4 C02B     		cmp	r3, #192
 1257 00a6 B3D0     		beq	.L110
 1258 00a8 40F20000 		movw	r0, #:lower16:.LC0
 1259              	.LVL77:
 1260 00ac C0F20000 		movt	r0, #:upper16:.LC0
 1261 00b0 40F2DB11 		movw	r1, #475
 1262              	.LVL78:
 1263 00b4 FFF7FEFF 		bl	assert_failed
 1264              	.LVL79:
 1265 00b8 AAE7     		b	.L110
 1266              		.cfi_endproc
 1267              	.LFE131:
 1269 00ba 00BF     		.section	.text.FLASH_EraseAllSectors,"ax",%progbits
 1270              		.align	2
 1271              		.global	FLASH_EraseAllSectors
 1272              		.thumb
 1273              		.thumb_func
 1275              	FLASH_EraseAllSectors:
 1276              	.LFB132:
 538:Libraries/STM32F4xx_StdPeriph_Driver/src/stm32f4xx_flash.c ****   uint32_t tmp_psize = 0x0;
 1277              		.loc 1 538 0
 1278              		.cfi_startproc
 1279              		@ args = 0, pretend = 0, frame = 0
 1280              		@ frame_needed = 0, uses_anonymous_args = 0
 1281              	.LVL80:
 1282 0000 70B5     		push	{r4, r5, r6, lr}
 1283              	.LCFI12:
 1284              		.cfi_def_cfa_offset 16
 1285              		.cfi_offset 4, -16
 1286              		.cfi_offset 5, -12
 1287              		.cfi_offset 6, -8
 1288              		.cfi_offset 14, -4
 538:Libraries/STM32F4xx_StdPeriph_Driver/src/stm32f4xx_flash.c ****   uint32_t tmp_psize = 0x0;
 1289              		.loc 1 538 0
 1290 0002 0446     		mov	r4, r0
 543:Libraries/STM32F4xx_StdPeriph_Driver/src/stm32f4xx_flash.c ****   assert_param(IS_VOLTAGERANGE(VoltageRange));
 1291              		.loc 1 543 0
 1292 0004 FFF7FEFF 		bl	FLASH_WaitForLastOperation
 1293              	.LVL81:
 544:Libraries/STM32F4xx_StdPeriph_Driver/src/stm32f4xx_flash.c ****   
 1294              		.loc 1 544 0
 1295 0008 032C     		cmp	r4, #3
 543:Libraries/STM32F4xx_StdPeriph_Driver/src/stm32f4xx_flash.c ****   assert_param(IS_VOLTAGERANGE(VoltageRange));
 1296              		.loc 1 543 0
 1297 000a 0546     		mov	r5, r0
 1298              	.LVL82:
 544:Libraries/STM32F4xx_StdPeriph_Driver/src/stm32f4xx_flash.c ****   
 1299              		.loc 1 544 0
 1300 000c 04D8     		bhi	.L148
 546:Libraries/STM32F4xx_StdPeriph_Driver/src/stm32f4xx_flash.c ****   {
 1301              		.loc 1 546 0
 1302 000e 7CBB     		cbnz	r4, .L149
 1303              	.L143:
 1304              	.LVL83:
 562:Libraries/STM32F4xx_StdPeriph_Driver/src/stm32f4xx_flash.c ****   {
 1305              		.loc 1 562 0
 1306 0010 092D     		cmp	r5, #9
 1307 0012 11D0     		beq	.L150
 1308              	.LVL84:
 1309              	.L144:
 594:Libraries/STM32F4xx_StdPeriph_Driver/src/stm32f4xx_flash.c **** 
 1310              		.loc 1 594 0
 1311 0014 2846     		mov	r0, r5
 1312 0016 70BD     		pop	{r4, r5, r6, pc}
 1313              	.LVL85:
 1314              	.L148:
 544:Libraries/STM32F4xx_StdPeriph_Driver/src/stm32f4xx_flash.c ****   
 1315              		.loc 1 544 0 discriminator 1
 1316 0018 40F20000 		movw	r0, #:lower16:.LC0
 1317              	.LVL86:
 1318 001c C0F20000 		movt	r0, #:upper16:.LC0
 1319 0020 4FF40871 		mov	r1, #544
 1320 0024 FFF7FEFF 		bl	assert_failed
 1321              	.LVL87:
 1322              	.L142:
 556:Libraries/STM32F4xx_StdPeriph_Driver/src/stm32f4xx_flash.c ****   }
 1323              		.loc 1 556 0
 1324 0028 022C     		cmp	r4, #2
 1325 002a 14BF     		ite	ne
 1326 002c 4FF44074 		movne	r4, #768
 1327 0030 4FF40074 		moveq	r4, #512
 1328              	.LVL88:
 562:Libraries/STM32F4xx_StdPeriph_Driver/src/stm32f4xx_flash.c ****   {
 1329              		.loc 1 562 0
 1330 0034 092D     		cmp	r5, #9
 1331 0036 EDD1     		bne	.L144
 1332              	.L150:
 579:Libraries/STM32F4xx_StdPeriph_Driver/src/stm32f4xx_flash.c ****     FLASH->CR |= tmp_psize;
 1333              		.loc 1 579 0
 1334 0038 4FF47056 		mov	r6, #15360
 1335 003c C4F20206 		movt	r6, 16386
 1336 0040 3369     		ldr	r3, [r6, #16]
 1337 0042 23F44073 		bic	r3, r3, #768
 1338 0046 3361     		str	r3, [r6, #16]
 580:Libraries/STM32F4xx_StdPeriph_Driver/src/stm32f4xx_flash.c ****     FLASH->CR |= FLASH_CR_MER;
 1339              		.loc 1 580 0
 1340 0048 3369     		ldr	r3, [r6, #16]
 1341 004a 1C43     		orrs	r4, r4, r3
 1342              	.LVL89:
 1343 004c 3461     		str	r4, [r6, #16]
 581:Libraries/STM32F4xx_StdPeriph_Driver/src/stm32f4xx_flash.c ****     FLASH->CR |= FLASH_CR_STRT;
 1344              		.loc 1 581 0
 1345 004e 3369     		ldr	r3, [r6, #16]
 1346 0050 43F00403 		orr	r3, r3, #4
 1347 0054 3361     		str	r3, [r6, #16]
 582:Libraries/STM32F4xx_StdPeriph_Driver/src/stm32f4xx_flash.c ****     
 1348              		.loc 1 582 0
 1349 0056 3369     		ldr	r3, [r6, #16]
 1350 0058 43F48033 		orr	r3, r3, #65536
 1351 005c 3361     		str	r3, [r6, #16]
 585:Libraries/STM32F4xx_StdPeriph_Driver/src/stm32f4xx_flash.c **** 
 1352              		.loc 1 585 0
 1353 005e FFF7FEFF 		bl	FLASH_WaitForLastOperation
 1354              	.LVL90:
 588:Libraries/STM32F4xx_StdPeriph_Driver/src/stm32f4xx_flash.c **** #endif /* STM32F40_41xxx || STM32F401xx || STM32F411xE || STM32F446xx */
 1355              		.loc 1 588 0
 1356 0062 3369     		ldr	r3, [r6, #16]
 585:Libraries/STM32F4xx_StdPeriph_Driver/src/stm32f4xx_flash.c **** 
 1357              		.loc 1 585 0
 1358 0064 0546     		mov	r5, r0
 1359              	.LVL91:
 588:Libraries/STM32F4xx_StdPeriph_Driver/src/stm32f4xx_flash.c **** #endif /* STM32F40_41xxx || STM32F401xx || STM32F411xE || STM32F446xx */
 1360              		.loc 1 588 0
 1361 0066 23F00403 		bic	r3, r3, #4
 1362 006a 3361     		str	r3, [r6, #16]
 594:Libraries/STM32F4xx_StdPeriph_Driver/src/stm32f4xx_flash.c **** 
 1363              		.loc 1 594 0
 1364 006c 2846     		mov	r0, r5
 1365 006e 70BD     		pop	{r4, r5, r6, pc}
 1366              	.LVL92:
 1367              	.L149:
 550:Libraries/STM32F4xx_StdPeriph_Driver/src/stm32f4xx_flash.c ****   {
 1368              		.loc 1 550 0
 1369 0070 012C     		cmp	r4, #1
 552:Libraries/STM32F4xx_StdPeriph_Driver/src/stm32f4xx_flash.c ****   }
 1370              		.loc 1 552 0
 1371 0072 08BF     		it	eq
 1372 0074 4FF48074 		moveq	r4, #256
 550:Libraries/STM32F4xx_StdPeriph_Driver/src/stm32f4xx_flash.c ****   {
 1373              		.loc 1 550 0
 1374 0078 CAD0     		beq	.L143
 1375 007a D5E7     		b	.L142
 1376              		.cfi_endproc
 1377              	.LFE132:
 1379              		.section	.text.FLASH_EraseAllBank1Sectors,"ax",%progbits
 1380              		.align	2
 1381              		.global	FLASH_EraseAllBank1Sectors
 1382              		.thumb
 1383              		.thumb_func
 1385              	FLASH_EraseAllBank1Sectors:
 1386              	.LFB133:
 619:Libraries/STM32F4xx_StdPeriph_Driver/src/stm32f4xx_flash.c ****   uint32_t tmp_psize = 0x0;
 1387              		.loc 1 619 0
 1388              		.cfi_startproc
 1389              		@ args = 0, pretend = 0, frame = 0
 1390              		@ frame_needed = 0, uses_anonymous_args = 0
 1391              	.LVL93:
 1392 0000 70B5     		push	{r4, r5, r6, lr}
 1393              	.LCFI13:
 1394              		.cfi_def_cfa_offset 16
 1395              		.cfi_offset 4, -16
 1396              		.cfi_offset 5, -12
 1397              		.cfi_offset 6, -8
 1398              		.cfi_offset 14, -4
 619:Libraries/STM32F4xx_StdPeriph_Driver/src/stm32f4xx_flash.c ****   uint32_t tmp_psize = 0x0;
 1399              		.loc 1 619 0
 1400 0002 0446     		mov	r4, r0
 624:Libraries/STM32F4xx_StdPeriph_Driver/src/stm32f4xx_flash.c ****   assert_param(IS_VOLTAGERANGE(VoltageRange));
 1401              		.loc 1 624 0
 1402 0004 FFF7FEFF 		bl	FLASH_WaitForLastOperation
 1403              	.LVL94:
 625:Libraries/STM32F4xx_StdPeriph_Driver/src/stm32f4xx_flash.c ****   
 1404              		.loc 1 625 0
 1405 0008 032C     		cmp	r4, #3
 624:Libraries/STM32F4xx_StdPeriph_Driver/src/stm32f4xx_flash.c ****   assert_param(IS_VOLTAGERANGE(VoltageRange));
 1406              		.loc 1 624 0
 1407 000a 0546     		mov	r5, r0
 1408              	.LVL95:
 625:Libraries/STM32F4xx_StdPeriph_Driver/src/stm32f4xx_flash.c ****   
 1409              		.loc 1 625 0
 1410 000c 04D8     		bhi	.L159
 627:Libraries/STM32F4xx_StdPeriph_Driver/src/stm32f4xx_flash.c ****   {
 1411              		.loc 1 627 0
 1412 000e 7CBB     		cbnz	r4, .L160
 1413              	.L154:
 1414              	.LVL96:
 643:Libraries/STM32F4xx_StdPeriph_Driver/src/stm32f4xx_flash.c ****   {
 1415              		.loc 1 643 0
 1416 0010 092D     		cmp	r5, #9
 1417 0012 11D0     		beq	.L161
 1418              	.LVL97:
 1419              	.L155:
 660:Libraries/STM32F4xx_StdPeriph_Driver/src/stm32f4xx_flash.c **** 
 1420              		.loc 1 660 0
 1421 0014 2846     		mov	r0, r5
 1422 0016 70BD     		pop	{r4, r5, r6, pc}
 1423              	.LVL98:
 1424              	.L159:
 625:Libraries/STM32F4xx_StdPeriph_Driver/src/stm32f4xx_flash.c ****   
 1425              		.loc 1 625 0 discriminator 1
 1426 0018 40F20000 		movw	r0, #:lower16:.LC0
 1427              	.LVL99:
 1428 001c C0F20000 		movt	r0, #:upper16:.LC0
 1429 0020 40F27121 		movw	r1, #625
 1430 0024 FFF7FEFF 		bl	assert_failed
 1431              	.LVL100:
 1432              	.L153:
 637:Libraries/STM32F4xx_StdPeriph_Driver/src/stm32f4xx_flash.c ****   }
 1433              		.loc 1 637 0
 1434 0028 022C     		cmp	r4, #2
 1435 002a 14BF     		ite	ne
 1436 002c 4FF44074 		movne	r4, #768
 1437 0030 4FF40074 		moveq	r4, #512
 1438              	.LVL101:
 643:Libraries/STM32F4xx_StdPeriph_Driver/src/stm32f4xx_flash.c ****   {
 1439              		.loc 1 643 0
 1440 0034 092D     		cmp	r5, #9
 1441 0036 EDD1     		bne	.L155
 1442              	.L161:
 646:Libraries/STM32F4xx_StdPeriph_Driver/src/stm32f4xx_flash.c ****      FLASH->CR |= tmp_psize;
 1443              		.loc 1 646 0
 1444 0038 4FF47056 		mov	r6, #15360
 1445 003c C4F20206 		movt	r6, 16386
 1446 0040 3369     		ldr	r3, [r6, #16]
 1447 0042 23F44073 		bic	r3, r3, #768
 1448 0046 3361     		str	r3, [r6, #16]
 647:Libraries/STM32F4xx_StdPeriph_Driver/src/stm32f4xx_flash.c ****      FLASH->CR |= FLASH_CR_MER1;
 1449              		.loc 1 647 0
 1450 0048 3369     		ldr	r3, [r6, #16]
 1451 004a 1C43     		orrs	r4, r4, r3
 1452              	.LVL102:
 1453 004c 3461     		str	r4, [r6, #16]
 648:Libraries/STM32F4xx_StdPeriph_Driver/src/stm32f4xx_flash.c ****      FLASH->CR |= FLASH_CR_STRT;
 1454              		.loc 1 648 0
 1455 004e 3369     		ldr	r3, [r6, #16]
 1456 0050 43F00403 		orr	r3, r3, #4
 1457 0054 3361     		str	r3, [r6, #16]
 649:Libraries/STM32F4xx_StdPeriph_Driver/src/stm32f4xx_flash.c ****     
 1458              		.loc 1 649 0
 1459 0056 3369     		ldr	r3, [r6, #16]
 1460 0058 43F48033 		orr	r3, r3, #65536
 1461 005c 3361     		str	r3, [r6, #16]
 652:Libraries/STM32F4xx_StdPeriph_Driver/src/stm32f4xx_flash.c **** 
 1462              		.loc 1 652 0
 1463 005e FFF7FEFF 		bl	FLASH_WaitForLastOperation
 1464              	.LVL103:
 655:Libraries/STM32F4xx_StdPeriph_Driver/src/stm32f4xx_flash.c **** 
 1465              		.loc 1 655 0
 1466 0062 3369     		ldr	r3, [r6, #16]
 652:Libraries/STM32F4xx_StdPeriph_Driver/src/stm32f4xx_flash.c **** 
 1467              		.loc 1 652 0
 1468 0064 0546     		mov	r5, r0
 1469              	.LVL104:
 655:Libraries/STM32F4xx_StdPeriph_Driver/src/stm32f4xx_flash.c **** 
 1470              		.loc 1 655 0
 1471 0066 23F00403 		bic	r3, r3, #4
 1472 006a 3361     		str	r3, [r6, #16]
 660:Libraries/STM32F4xx_StdPeriph_Driver/src/stm32f4xx_flash.c **** 
 1473              		.loc 1 660 0
 1474 006c 2846     		mov	r0, r5
 1475 006e 70BD     		pop	{r4, r5, r6, pc}
 1476              	.LVL105:
 1477              	.L160:
 631:Libraries/STM32F4xx_StdPeriph_Driver/src/stm32f4xx_flash.c ****   {
 1478              		.loc 1 631 0
 1479 0070 012C     		cmp	r4, #1
 633:Libraries/STM32F4xx_StdPeriph_Driver/src/stm32f4xx_flash.c ****   }
 1480              		.loc 1 633 0
 1481 0072 08BF     		it	eq
 1482 0074 4FF48074 		moveq	r4, #256
 631:Libraries/STM32F4xx_StdPeriph_Driver/src/stm32f4xx_flash.c ****   {
 1483              		.loc 1 631 0
 1484 0078 CAD0     		beq	.L154
 1485 007a D5E7     		b	.L153
 1486              		.cfi_endproc
 1487              	.LFE133:
 1489              		.section	.text.FLASH_EraseAllBank2Sectors,"ax",%progbits
 1490              		.align	2
 1491              		.global	FLASH_EraseAllBank2Sectors
 1492              		.thumb
 1493              		.thumb_func
 1495              	FLASH_EraseAllBank2Sectors:
 1496              	.LFB134:
 686:Libraries/STM32F4xx_StdPeriph_Driver/src/stm32f4xx_flash.c ****   uint32_t tmp_psize = 0x0;
 1497              		.loc 1 686 0
 1498              		.cfi_startproc
 1499              		@ args = 0, pretend = 0, frame = 0
 1500              		@ frame_needed = 0, uses_anonymous_args = 0
 1501              	.LVL106:
 1502 0000 70B5     		push	{r4, r5, r6, lr}
 1503              	.LCFI14:
 1504              		.cfi_def_cfa_offset 16
 1505              		.cfi_offset 4, -16
 1506              		.cfi_offset 5, -12
 1507              		.cfi_offset 6, -8
 1508              		.cfi_offset 14, -4
 686:Libraries/STM32F4xx_StdPeriph_Driver/src/stm32f4xx_flash.c ****   uint32_t tmp_psize = 0x0;
 1509              		.loc 1 686 0
 1510 0002 0446     		mov	r4, r0
 691:Libraries/STM32F4xx_StdPeriph_Driver/src/stm32f4xx_flash.c ****   assert_param(IS_VOLTAGERANGE(VoltageRange));
 1511              		.loc 1 691 0
 1512 0004 FFF7FEFF 		bl	FLASH_WaitForLastOperation
 1513              	.LVL107:
 692:Libraries/STM32F4xx_StdPeriph_Driver/src/stm32f4xx_flash.c ****   
 1514              		.loc 1 692 0
 1515 0008 032C     		cmp	r4, #3
 691:Libraries/STM32F4xx_StdPeriph_Driver/src/stm32f4xx_flash.c ****   assert_param(IS_VOLTAGERANGE(VoltageRange));
 1516              		.loc 1 691 0
 1517 000a 0546     		mov	r5, r0
 1518              	.LVL108:
 692:Libraries/STM32F4xx_StdPeriph_Driver/src/stm32f4xx_flash.c ****   
 1519              		.loc 1 692 0
 1520 000c 04D8     		bhi	.L170
 694:Libraries/STM32F4xx_StdPeriph_Driver/src/stm32f4xx_flash.c ****   {
 1521              		.loc 1 694 0
 1522 000e 7CBB     		cbnz	r4, .L171
 1523              	.L165:
 1524              	.LVL109:
 710:Libraries/STM32F4xx_StdPeriph_Driver/src/stm32f4xx_flash.c ****   {
 1525              		.loc 1 710 0
 1526 0010 092D     		cmp	r5, #9
 1527 0012 11D0     		beq	.L172
 1528              	.LVL110:
 1529              	.L166:
 727:Libraries/STM32F4xx_StdPeriph_Driver/src/stm32f4xx_flash.c **** 
 1530              		.loc 1 727 0
 1531 0014 2846     		mov	r0, r5
 1532 0016 70BD     		pop	{r4, r5, r6, pc}
 1533              	.LVL111:
 1534              	.L170:
 692:Libraries/STM32F4xx_StdPeriph_Driver/src/stm32f4xx_flash.c ****   
 1535              		.loc 1 692 0 discriminator 1
 1536 0018 40F20000 		movw	r0, #:lower16:.LC0
 1537              	.LVL112:
 1538 001c C0F20000 		movt	r0, #:upper16:.LC0
 1539 0020 4FF42D71 		mov	r1, #692
 1540 0024 FFF7FEFF 		bl	assert_failed
 1541              	.LVL113:
 1542              	.L164:
 704:Libraries/STM32F4xx_StdPeriph_Driver/src/stm32f4xx_flash.c ****   }
 1543              		.loc 1 704 0
 1544 0028 022C     		cmp	r4, #2
 1545 002a 14BF     		ite	ne
 1546 002c 4FF44074 		movne	r4, #768
 1547 0030 4FF40074 		moveq	r4, #512
 1548              	.LVL114:
 710:Libraries/STM32F4xx_StdPeriph_Driver/src/stm32f4xx_flash.c ****   {
 1549              		.loc 1 710 0
 1550 0034 092D     		cmp	r5, #9
 1551 0036 EDD1     		bne	.L166
 1552              	.L172:
 713:Libraries/STM32F4xx_StdPeriph_Driver/src/stm32f4xx_flash.c ****      FLASH->CR |= tmp_psize;
 1553              		.loc 1 713 0
 1554 0038 4FF47056 		mov	r6, #15360
 1555 003c C4F20206 		movt	r6, 16386
 1556 0040 3369     		ldr	r3, [r6, #16]
 1557 0042 23F44073 		bic	r3, r3, #768
 1558 0046 3361     		str	r3, [r6, #16]
 714:Libraries/STM32F4xx_StdPeriph_Driver/src/stm32f4xx_flash.c ****      FLASH->CR |= FLASH_CR_MER2;
 1559              		.loc 1 714 0
 1560 0048 3369     		ldr	r3, [r6, #16]
 1561 004a 1C43     		orrs	r4, r4, r3
 1562              	.LVL115:
 1563 004c 3461     		str	r4, [r6, #16]
 715:Libraries/STM32F4xx_StdPeriph_Driver/src/stm32f4xx_flash.c ****      FLASH->CR |= FLASH_CR_STRT;
 1564              		.loc 1 715 0
 1565 004e 3369     		ldr	r3, [r6, #16]
 1566 0050 43F40043 		orr	r3, r3, #32768
 1567 0054 3361     		str	r3, [r6, #16]
 716:Libraries/STM32F4xx_StdPeriph_Driver/src/stm32f4xx_flash.c ****     
 1568              		.loc 1 716 0
 1569 0056 3369     		ldr	r3, [r6, #16]
 1570 0058 43F48033 		orr	r3, r3, #65536
 1571 005c 3361     		str	r3, [r6, #16]
 719:Libraries/STM32F4xx_StdPeriph_Driver/src/stm32f4xx_flash.c **** 
 1572              		.loc 1 719 0
 1573 005e FFF7FEFF 		bl	FLASH_WaitForLastOperation
 1574              	.LVL116:
 722:Libraries/STM32F4xx_StdPeriph_Driver/src/stm32f4xx_flash.c **** 
 1575              		.loc 1 722 0
 1576 0062 3369     		ldr	r3, [r6, #16]
 719:Libraries/STM32F4xx_StdPeriph_Driver/src/stm32f4xx_flash.c **** 
 1577              		.loc 1 719 0
 1578 0064 0546     		mov	r5, r0
 1579              	.LVL117:
 722:Libraries/STM32F4xx_StdPeriph_Driver/src/stm32f4xx_flash.c **** 
 1580              		.loc 1 722 0
 1581 0066 23F40043 		bic	r3, r3, #32768
 1582 006a 3361     		str	r3, [r6, #16]
 727:Libraries/STM32F4xx_StdPeriph_Driver/src/stm32f4xx_flash.c **** 
 1583              		.loc 1 727 0
 1584 006c 2846     		mov	r0, r5
 1585 006e 70BD     		pop	{r4, r5, r6, pc}
 1586              	.LVL118:
 1587              	.L171:
 698:Libraries/STM32F4xx_StdPeriph_Driver/src/stm32f4xx_flash.c ****   {
 1588              		.loc 1 698 0
 1589 0070 012C     		cmp	r4, #1
 700:Libraries/STM32F4xx_StdPeriph_Driver/src/stm32f4xx_flash.c ****   }
 1590              		.loc 1 700 0
 1591 0072 08BF     		it	eq
 1592 0074 4FF48074 		moveq	r4, #256
 698:Libraries/STM32F4xx_StdPeriph_Driver/src/stm32f4xx_flash.c ****   {
 1593              		.loc 1 698 0
 1594 0078 CAD0     		beq	.L165
 1595 007a D5E7     		b	.L164
 1596              		.cfi_endproc
 1597              	.LFE134:
 1599              		.section	.text.FLASH_ProgramDoubleWord,"ax",%progbits
 1600              		.align	2
 1601              		.global	FLASH_ProgramDoubleWord
 1602              		.thumb
 1603              		.thumb_func
 1605              	FLASH_ProgramDoubleWord:
 1606              	.LFB135:
 743:Libraries/STM32F4xx_StdPeriph_Driver/src/stm32f4xx_flash.c ****   FLASH_Status status = FLASH_COMPLETE;
 1607              		.loc 1 743 0
 1608              		.cfi_startproc
 1609              		@ args = 0, pretend = 0, frame = 0
 1610              		@ frame_needed = 0, uses_anonymous_args = 0
 1611              	.LVL119:
 1612 0000 F8B5     		push	{r3, r4, r5, r6, r7, lr}
 1613              	.LCFI15:
 1614              		.cfi_def_cfa_offset 24
 1615              		.cfi_offset 3, -24
 1616              		.cfi_offset 4, -20
 1617              		.cfi_offset 5, -16
 1618              		.cfi_offset 6, -12
 1619              		.cfi_offset 7, -8
 1620              		.cfi_offset 14, -4
 743:Libraries/STM32F4xx_StdPeriph_Driver/src/stm32f4xx_flash.c ****   FLASH_Status status = FLASH_COMPLETE;
 1621              		.loc 1 743 0
 1622 0002 0646     		mov	r6, r0
 747:Libraries/STM32F4xx_StdPeriph_Driver/src/stm32f4xx_flash.c **** 
 1623              		.loc 1 747 0
 1624 0004 00F16040 		add	r0, r0, #-536870912
 1625              	.LVL120:
 1626 0008 00F50840 		add	r0, r0, #34816
 1627 000c 06F17841 		add	r1, r6, #-134217728
 1628 0010 B0F5047F 		cmp	r0, #528
 1629 0014 28BF     		it	cs
 1630 0016 B1F5802F 		cmpcs	r1, #262144
 743:Libraries/STM32F4xx_StdPeriph_Driver/src/stm32f4xx_flash.c ****   FLASH_Status status = FLASH_COMPLETE;
 1631              		.loc 1 743 0
 1632 001a 1446     		mov	r4, r2
 1633 001c 1D46     		mov	r5, r3
 747:Libraries/STM32F4xx_StdPeriph_Driver/src/stm32f4xx_flash.c **** 
 1634              		.loc 1 747 0
 1635 001e 04D2     		bcs	.L179
 750:Libraries/STM32F4xx_StdPeriph_Driver/src/stm32f4xx_flash.c ****   
 1636              		.loc 1 750 0
 1637 0020 FFF7FEFF 		bl	FLASH_WaitForLastOperation
 1638              	.LVL121:
 752:Libraries/STM32F4xx_StdPeriph_Driver/src/stm32f4xx_flash.c ****   {
 1639              		.loc 1 752 0
 1640 0024 0928     		cmp	r0, #9
 1641 0026 0CD0     		beq	.L180
 1642              	.LVL122:
 1643              	.L175:
 769:Libraries/STM32F4xx_StdPeriph_Driver/src/stm32f4xx_flash.c **** 
 1644              		.loc 1 769 0
 1645 0028 F8BD     		pop	{r3, r4, r5, r6, r7, pc}
 1646              	.LVL123:
 1647              	.L179:
 747:Libraries/STM32F4xx_StdPeriph_Driver/src/stm32f4xx_flash.c **** 
 1648              		.loc 1 747 0 discriminator 1
 1649 002a 40F20000 		movw	r0, #:lower16:.LC0
 1650 002e C0F20000 		movt	r0, #:upper16:.LC0
 1651 0032 40F2EB21 		movw	r1, #747
 1652 0036 FFF7FEFF 		bl	assert_failed
 1653              	.LVL124:
 750:Libraries/STM32F4xx_StdPeriph_Driver/src/stm32f4xx_flash.c ****   
 1654              		.loc 1 750 0 discriminator 1
 1655 003a FFF7FEFF 		bl	FLASH_WaitForLastOperation
 1656              	.LVL125:
 752:Libraries/STM32F4xx_StdPeriph_Driver/src/stm32f4xx_flash.c ****   {
 1657              		.loc 1 752 0 discriminator 1
 1658 003e 0928     		cmp	r0, #9
 1659 0040 F2D1     		bne	.L175
 1660              	.LVL126:
 1661              	.L180:
 755:Libraries/STM32F4xx_StdPeriph_Driver/src/stm32f4xx_flash.c ****     FLASH->CR |= FLASH_PSIZE_DOUBLE_WORD;
 1662              		.loc 1 755 0
 1663 0042 4FF47057 		mov	r7, #15360
 1664 0046 C4F20207 		movt	r7, 16386
 1665 004a 3B69     		ldr	r3, [r7, #16]
 1666 004c 23F44073 		bic	r3, r3, #768
 1667 0050 3B61     		str	r3, [r7, #16]
 756:Libraries/STM32F4xx_StdPeriph_Driver/src/stm32f4xx_flash.c ****     FLASH->CR |= FLASH_CR_PG;
 1668              		.loc 1 756 0
 1669 0052 3B69     		ldr	r3, [r7, #16]
 1670 0054 43F44073 		orr	r3, r3, #768
 1671 0058 3B61     		str	r3, [r7, #16]
 757:Libraries/STM32F4xx_StdPeriph_Driver/src/stm32f4xx_flash.c ****   
 1672              		.loc 1 757 0
 1673 005a 3B69     		ldr	r3, [r7, #16]
 1674 005c 43F00103 		orr	r3, r3, #1
 1675 0060 3B61     		str	r3, [r7, #16]
 759:Libraries/STM32F4xx_StdPeriph_Driver/src/stm32f4xx_flash.c ****         
 1676              		.loc 1 759 0
 1677 0062 C6E90045 		strd	r4, [r6]
 762:Libraries/STM32F4xx_StdPeriph_Driver/src/stm32f4xx_flash.c **** 
 1678              		.loc 1 762 0
 1679 0066 FFF7FEFF 		bl	FLASH_WaitForLastOperation
 1680              	.LVL127:
 765:Libraries/STM32F4xx_StdPeriph_Driver/src/stm32f4xx_flash.c ****   } 
 1681              		.loc 1 765 0
 1682 006a 3B69     		ldr	r3, [r7, #16]
 1683 006c 23F00103 		bic	r3, r3, #1
 1684 0070 3B61     		str	r3, [r7, #16]
 769:Libraries/STM32F4xx_StdPeriph_Driver/src/stm32f4xx_flash.c **** 
 1685              		.loc 1 769 0
 1686 0072 F8BD     		pop	{r3, r4, r5, r6, r7, pc}
 1687              		.cfi_endproc
 1688              	.LFE135:
 1690              		.section	.text.FLASH_ProgramWord,"ax",%progbits
 1691              		.align	2
 1692              		.global	FLASH_ProgramWord
 1693              		.thumb
 1694              		.thumb_func
 1696              	FLASH_ProgramWord:
 1697              	.LFB136:
 786:Libraries/STM32F4xx_StdPeriph_Driver/src/stm32f4xx_flash.c ****   FLASH_Status status = FLASH_COMPLETE;
 1698              		.loc 1 786 0
 1699              		.cfi_startproc
 1700              		@ args = 0, pretend = 0, frame = 0
 1701              		@ frame_needed = 0, uses_anonymous_args = 0
 1702              	.LVL128:
 790:Libraries/STM32F4xx_StdPeriph_Driver/src/stm32f4xx_flash.c **** 
 1703              		.loc 1 790 0
 1704 0000 00F16042 		add	r2, r0, #-536870912
 1705 0004 02F50842 		add	r2, r2, #34816
 1706 0008 00F17843 		add	r3, r0, #-134217728
 1707 000c B2F5047F 		cmp	r2, #528
 1708 0010 28BF     		it	cs
 1709 0012 B3F5802F 		cmpcs	r3, #262144
 786:Libraries/STM32F4xx_StdPeriph_Driver/src/stm32f4xx_flash.c ****   FLASH_Status status = FLASH_COMPLETE;
 1710              		.loc 1 786 0
 1711 0016 70B5     		push	{r4, r5, r6, lr}
 1712              	.LCFI16:
 1713              		.cfi_def_cfa_offset 16
 1714              		.cfi_offset 4, -16
 1715              		.cfi_offset 5, -12
 1716              		.cfi_offset 6, -8
 1717              		.cfi_offset 14, -4
 786:Libraries/STM32F4xx_StdPeriph_Driver/src/stm32f4xx_flash.c ****   FLASH_Status status = FLASH_COMPLETE;
 1718              		.loc 1 786 0
 1719 0018 0446     		mov	r4, r0
 1720 001a 0E46     		mov	r6, r1
 790:Libraries/STM32F4xx_StdPeriph_Driver/src/stm32f4xx_flash.c **** 
 1721              		.loc 1 790 0
 1722 001c 04D2     		bcs	.L187
 793:Libraries/STM32F4xx_StdPeriph_Driver/src/stm32f4xx_flash.c ****   
 1723              		.loc 1 793 0
 1724 001e FFF7FEFF 		bl	FLASH_WaitForLastOperation
 1725              	.LVL129:
 795:Libraries/STM32F4xx_StdPeriph_Driver/src/stm32f4xx_flash.c ****   {
 1726              		.loc 1 795 0
 1727 0022 0928     		cmp	r0, #9
 1728 0024 0CD0     		beq	.L188
 1729              	.LVL130:
 1730              	.L183:
 812:Libraries/STM32F4xx_StdPeriph_Driver/src/stm32f4xx_flash.c **** 
 1731              		.loc 1 812 0
 1732 0026 70BD     		pop	{r4, r5, r6, pc}
 1733              	.LVL131:
 1734              	.L187:
 790:Libraries/STM32F4xx_StdPeriph_Driver/src/stm32f4xx_flash.c **** 
 1735              		.loc 1 790 0 discriminator 1
 1736 0028 40F20000 		movw	r0, #:lower16:.LC0
 1737              	.LVL132:
 1738 002c C0F20000 		movt	r0, #:upper16:.LC0
 1739 0030 40F21631 		movw	r1, #790
 1740              	.LVL133:
 1741 0034 FFF7FEFF 		bl	assert_failed
 1742              	.LVL134:
 793:Libraries/STM32F4xx_StdPeriph_Driver/src/stm32f4xx_flash.c ****   
 1743              		.loc 1 793 0 discriminator 1
 1744 0038 FFF7FEFF 		bl	FLASH_WaitForLastOperation
 1745              	.LVL135:
 795:Libraries/STM32F4xx_StdPeriph_Driver/src/stm32f4xx_flash.c ****   {
 1746              		.loc 1 795 0 discriminator 1
 1747 003c 0928     		cmp	r0, #9
 1748 003e F2D1     		bne	.L183
 1749              	.LVL136:
 1750              	.L188:
 798:Libraries/STM32F4xx_StdPeriph_Driver/src/stm32f4xx_flash.c ****     FLASH->CR |= FLASH_PSIZE_WORD;
 1751              		.loc 1 798 0
 1752 0040 4FF47055 		mov	r5, #15360
 1753 0044 C4F20205 		movt	r5, 16386
 1754 0048 2B69     		ldr	r3, [r5, #16]
 1755 004a 23F44073 		bic	r3, r3, #768
 1756 004e 2B61     		str	r3, [r5, #16]
 799:Libraries/STM32F4xx_StdPeriph_Driver/src/stm32f4xx_flash.c ****     FLASH->CR |= FLASH_CR_PG;
 1757              		.loc 1 799 0
 1758 0050 2B69     		ldr	r3, [r5, #16]
 1759 0052 43F40073 		orr	r3, r3, #512
 1760 0056 2B61     		str	r3, [r5, #16]
 800:Libraries/STM32F4xx_StdPeriph_Driver/src/stm32f4xx_flash.c ****   
 1761              		.loc 1 800 0
 1762 0058 2B69     		ldr	r3, [r5, #16]
 1763 005a 43F00103 		orr	r3, r3, #1
 1764 005e 2B61     		str	r3, [r5, #16]
 802:Libraries/STM32F4xx_StdPeriph_Driver/src/stm32f4xx_flash.c ****         
 1765              		.loc 1 802 0
 1766 0060 2660     		str	r6, [r4]
 805:Libraries/STM32F4xx_StdPeriph_Driver/src/stm32f4xx_flash.c **** 
 1767              		.loc 1 805 0
 1768 0062 FFF7FEFF 		bl	FLASH_WaitForLastOperation
 1769              	.LVL137:
 808:Libraries/STM32F4xx_StdPeriph_Driver/src/stm32f4xx_flash.c ****   } 
 1770              		.loc 1 808 0
 1771 0066 2B69     		ldr	r3, [r5, #16]
 1772 0068 23F00103 		bic	r3, r3, #1
 1773 006c 2B61     		str	r3, [r5, #16]
 812:Libraries/STM32F4xx_StdPeriph_Driver/src/stm32f4xx_flash.c **** 
