   1              		.syntax unified
   2              		.cpu cortex-m4
   3              		.eabi_attribute 27, 3
   4              		.eabi_attribute 28, 1
   5              		.fpu fpv4-sp-d16
   6              		.eabi_attribute 20, 1
   7              		.eabi_attribute 21, 1
   8              		.eabi_attribute 23, 3
   9              		.eabi_attribute 24, 1
  10              		.eabi_attribute 25, 1
  11              		.eabi_attribute 26, 1
  12              		.eabi_attribute 30, 2
  13              		.eabi_attribute 34, 1
  14              		.eabi_attribute 18, 4
  15              		.thumb
  16              		.file	"stm32f4xx_rcc.c"
  17              		.text
  18              	.Ltext0:
  19              		.cfi_sections	.debug_frame
  20              		.section	.text.RCC_DeInit,"ax",%progbits
  21              		.align	2
  22              		.global	RCC_DeInit
  23              		.thumb
  24              		.thumb_func
  26              	RCC_DeInit:
  27              	.LFB123:
  28              		.file 1 "Libraries/STM32F4xx_StdPeriph_Driver/src/stm32f4xx_rcc.c"
   1:Libraries/STM32F4xx_StdPeriph_Driver/src/stm32f4xx_rcc.c **** /**
   2:Libraries/STM32F4xx_StdPeriph_Driver/src/stm32f4xx_rcc.c ****   ******************************************************************************
   3:Libraries/STM32F4xx_StdPeriph_Driver/src/stm32f4xx_rcc.c ****   * @file    stm32f4xx_rcc.c
   4:Libraries/STM32F4xx_StdPeriph_Driver/src/stm32f4xx_rcc.c ****   * @author  MCD Application Team
   5:Libraries/STM32F4xx_StdPeriph_Driver/src/stm32f4xx_rcc.c ****   * @version V1.5.0
   6:Libraries/STM32F4xx_StdPeriph_Driver/src/stm32f4xx_rcc.c ****   * @date    06-March-2015
   7:Libraries/STM32F4xx_StdPeriph_Driver/src/stm32f4xx_rcc.c ****   * @brief   This file provides firmware functions to manage the following 
   8:Libraries/STM32F4xx_StdPeriph_Driver/src/stm32f4xx_rcc.c ****   *          functionalities of the Reset and clock control (RCC) peripheral:
   9:Libraries/STM32F4xx_StdPeriph_Driver/src/stm32f4xx_rcc.c ****   *           + Internal/external clocks, PLL, CSS and MCO configuration
  10:Libraries/STM32F4xx_StdPeriph_Driver/src/stm32f4xx_rcc.c ****   *           + System, AHB and APB busses clocks configuration
  11:Libraries/STM32F4xx_StdPeriph_Driver/src/stm32f4xx_rcc.c ****   *           + Peripheral clocks configuration
  12:Libraries/STM32F4xx_StdPeriph_Driver/src/stm32f4xx_rcc.c ****   *           + Interrupts and flags management
  13:Libraries/STM32F4xx_StdPeriph_Driver/src/stm32f4xx_rcc.c ****   *
  14:Libraries/STM32F4xx_StdPeriph_Driver/src/stm32f4xx_rcc.c ****  @verbatim                
  15:Libraries/STM32F4xx_StdPeriph_Driver/src/stm32f4xx_rcc.c ****  ===============================================================================
  16:Libraries/STM32F4xx_StdPeriph_Driver/src/stm32f4xx_rcc.c ****                       ##### RCC specific features #####
  17:Libraries/STM32F4xx_StdPeriph_Driver/src/stm32f4xx_rcc.c ****  ===============================================================================
  18:Libraries/STM32F4xx_StdPeriph_Driver/src/stm32f4xx_rcc.c ****     [..]  
  19:Libraries/STM32F4xx_StdPeriph_Driver/src/stm32f4xx_rcc.c ****       After reset the device is running from Internal High Speed oscillator 
  20:Libraries/STM32F4xx_StdPeriph_Driver/src/stm32f4xx_rcc.c ****       (HSI 16MHz) with Flash 0 wait state, Flash prefetch buffer, D-Cache 
  21:Libraries/STM32F4xx_StdPeriph_Driver/src/stm32f4xx_rcc.c ****       and I-Cache are disabled, and all peripherals are off except internal
  22:Libraries/STM32F4xx_StdPeriph_Driver/src/stm32f4xx_rcc.c ****       SRAM, Flash and JTAG.
  23:Libraries/STM32F4xx_StdPeriph_Driver/src/stm32f4xx_rcc.c ****       (+) There is no prescaler on High speed (AHB) and Low speed (APB) busses;
  24:Libraries/STM32F4xx_StdPeriph_Driver/src/stm32f4xx_rcc.c ****           all peripherals mapped on these busses are running at HSI speed.
  25:Libraries/STM32F4xx_StdPeriph_Driver/src/stm32f4xx_rcc.c ****       (+) The clock for all peripherals is switched off, except the SRAM and FLASH.
  26:Libraries/STM32F4xx_StdPeriph_Driver/src/stm32f4xx_rcc.c ****       (+) All GPIOs are in input floating state, except the JTAG pins which
  27:Libraries/STM32F4xx_StdPeriph_Driver/src/stm32f4xx_rcc.c ****           are assigned to be used for debug purpose.
  28:Libraries/STM32F4xx_StdPeriph_Driver/src/stm32f4xx_rcc.c ****     [..]          
  29:Libraries/STM32F4xx_StdPeriph_Driver/src/stm32f4xx_rcc.c ****       Once the device started from reset, the user application has to:        
  30:Libraries/STM32F4xx_StdPeriph_Driver/src/stm32f4xx_rcc.c ****       (+) Configure the clock source to be used to drive the System clock
  31:Libraries/STM32F4xx_StdPeriph_Driver/src/stm32f4xx_rcc.c ****           (if the application needs higher frequency/performance)
  32:Libraries/STM32F4xx_StdPeriph_Driver/src/stm32f4xx_rcc.c ****       (+) Configure the System clock frequency and Flash settings  
  33:Libraries/STM32F4xx_StdPeriph_Driver/src/stm32f4xx_rcc.c ****       (+) Configure the AHB and APB busses prescalers
  34:Libraries/STM32F4xx_StdPeriph_Driver/src/stm32f4xx_rcc.c ****       (+) Enable the clock for the peripheral(s) to be used
  35:Libraries/STM32F4xx_StdPeriph_Driver/src/stm32f4xx_rcc.c ****       (+) Configure the clock source(s) for peripherals which clocks are not
  36:Libraries/STM32F4xx_StdPeriph_Driver/src/stm32f4xx_rcc.c ****           derived from the System clock (I2S, RTC, ADC, USB OTG FS/SDIO/RNG)                       
  37:Libraries/STM32F4xx_StdPeriph_Driver/src/stm32f4xx_rcc.c ****  @endverbatim    
  38:Libraries/STM32F4xx_StdPeriph_Driver/src/stm32f4xx_rcc.c ****   ******************************************************************************
  39:Libraries/STM32F4xx_StdPeriph_Driver/src/stm32f4xx_rcc.c ****   * @attention
  40:Libraries/STM32F4xx_StdPeriph_Driver/src/stm32f4xx_rcc.c ****   *
  41:Libraries/STM32F4xx_StdPeriph_Driver/src/stm32f4xx_rcc.c ****   * <h2><center>&copy; COPYRIGHT 2015 STMicroelectronics</center></h2>
  42:Libraries/STM32F4xx_StdPeriph_Driver/src/stm32f4xx_rcc.c ****   *
  43:Libraries/STM32F4xx_StdPeriph_Driver/src/stm32f4xx_rcc.c ****   * Licensed under MCD-ST Liberty SW License Agreement V2, (the "License");
  44:Libraries/STM32F4xx_StdPeriph_Driver/src/stm32f4xx_rcc.c ****   * You may not use this file except in compliance with the License.
  45:Libraries/STM32F4xx_StdPeriph_Driver/src/stm32f4xx_rcc.c ****   * You may obtain a copy of the License at:
  46:Libraries/STM32F4xx_StdPeriph_Driver/src/stm32f4xx_rcc.c ****   *
  47:Libraries/STM32F4xx_StdPeriph_Driver/src/stm32f4xx_rcc.c ****   *        http://www.st.com/software_license_agreement_liberty_v2
  48:Libraries/STM32F4xx_StdPeriph_Driver/src/stm32f4xx_rcc.c ****   *
  49:Libraries/STM32F4xx_StdPeriph_Driver/src/stm32f4xx_rcc.c ****   * Unless required by applicable law or agreed to in writing, software 
  50:Libraries/STM32F4xx_StdPeriph_Driver/src/stm32f4xx_rcc.c ****   * distributed under the License is distributed on an "AS IS" BASIS, 
  51:Libraries/STM32F4xx_StdPeriph_Driver/src/stm32f4xx_rcc.c ****   * WITHOUT WARRANTIES OR CONDITIONS OF ANY KIND, either express or implied.
  52:Libraries/STM32F4xx_StdPeriph_Driver/src/stm32f4xx_rcc.c ****   * See the License for the specific language governing permissions and
  53:Libraries/STM32F4xx_StdPeriph_Driver/src/stm32f4xx_rcc.c ****   * limitations under the License.
  54:Libraries/STM32F4xx_StdPeriph_Driver/src/stm32f4xx_rcc.c ****   *
  55:Libraries/STM32F4xx_StdPeriph_Driver/src/stm32f4xx_rcc.c ****   ******************************************************************************
  56:Libraries/STM32F4xx_StdPeriph_Driver/src/stm32f4xx_rcc.c ****   */
  57:Libraries/STM32F4xx_StdPeriph_Driver/src/stm32f4xx_rcc.c **** 
  58:Libraries/STM32F4xx_StdPeriph_Driver/src/stm32f4xx_rcc.c **** /* Includes ------------------------------------------------------------------*/
  59:Libraries/STM32F4xx_StdPeriph_Driver/src/stm32f4xx_rcc.c **** #include "stm32f4xx_rcc.h"
  60:Libraries/STM32F4xx_StdPeriph_Driver/src/stm32f4xx_rcc.c **** 
  61:Libraries/STM32F4xx_StdPeriph_Driver/src/stm32f4xx_rcc.c **** /** @addtogroup STM32F4xx_StdPeriph_Driver
  62:Libraries/STM32F4xx_StdPeriph_Driver/src/stm32f4xx_rcc.c ****   * @{
  63:Libraries/STM32F4xx_StdPeriph_Driver/src/stm32f4xx_rcc.c ****   */
  64:Libraries/STM32F4xx_StdPeriph_Driver/src/stm32f4xx_rcc.c **** 
  65:Libraries/STM32F4xx_StdPeriph_Driver/src/stm32f4xx_rcc.c **** /** @defgroup RCC 
  66:Libraries/STM32F4xx_StdPeriph_Driver/src/stm32f4xx_rcc.c ****   * @brief RCC driver modules
  67:Libraries/STM32F4xx_StdPeriph_Driver/src/stm32f4xx_rcc.c ****   * @{
  68:Libraries/STM32F4xx_StdPeriph_Driver/src/stm32f4xx_rcc.c ****   */ 
  69:Libraries/STM32F4xx_StdPeriph_Driver/src/stm32f4xx_rcc.c **** 
  70:Libraries/STM32F4xx_StdPeriph_Driver/src/stm32f4xx_rcc.c **** /* Private typedef -----------------------------------------------------------*/
  71:Libraries/STM32F4xx_StdPeriph_Driver/src/stm32f4xx_rcc.c **** /* Private define ------------------------------------------------------------*/
  72:Libraries/STM32F4xx_StdPeriph_Driver/src/stm32f4xx_rcc.c **** /* ------------ RCC registers bit address in the alias region ----------- */
  73:Libraries/STM32F4xx_StdPeriph_Driver/src/stm32f4xx_rcc.c **** #define RCC_OFFSET                (RCC_BASE - PERIPH_BASE)
  74:Libraries/STM32F4xx_StdPeriph_Driver/src/stm32f4xx_rcc.c **** /* --- CR Register ---*/
  75:Libraries/STM32F4xx_StdPeriph_Driver/src/stm32f4xx_rcc.c **** /* Alias word address of HSION bit */
  76:Libraries/STM32F4xx_StdPeriph_Driver/src/stm32f4xx_rcc.c **** #define CR_OFFSET                 (RCC_OFFSET + 0x00)
  77:Libraries/STM32F4xx_StdPeriph_Driver/src/stm32f4xx_rcc.c **** #define HSION_BitNumber           0x00
  78:Libraries/STM32F4xx_StdPeriph_Driver/src/stm32f4xx_rcc.c **** #define CR_HSION_BB               (PERIPH_BB_BASE + (CR_OFFSET * 32) + (HSION_BitNumber * 4))
  79:Libraries/STM32F4xx_StdPeriph_Driver/src/stm32f4xx_rcc.c **** /* Alias word address of CSSON bit */
  80:Libraries/STM32F4xx_StdPeriph_Driver/src/stm32f4xx_rcc.c **** #define CSSON_BitNumber           0x13
  81:Libraries/STM32F4xx_StdPeriph_Driver/src/stm32f4xx_rcc.c **** #define CR_CSSON_BB               (PERIPH_BB_BASE + (CR_OFFSET * 32) + (CSSON_BitNumber * 4))
  82:Libraries/STM32F4xx_StdPeriph_Driver/src/stm32f4xx_rcc.c **** /* Alias word address of PLLON bit */
  83:Libraries/STM32F4xx_StdPeriph_Driver/src/stm32f4xx_rcc.c **** #define PLLON_BitNumber           0x18
  84:Libraries/STM32F4xx_StdPeriph_Driver/src/stm32f4xx_rcc.c **** #define CR_PLLON_BB               (PERIPH_BB_BASE + (CR_OFFSET * 32) + (PLLON_BitNumber * 4))
  85:Libraries/STM32F4xx_StdPeriph_Driver/src/stm32f4xx_rcc.c **** /* Alias word address of PLLI2SON bit */
  86:Libraries/STM32F4xx_StdPeriph_Driver/src/stm32f4xx_rcc.c **** #define PLLI2SON_BitNumber        0x1A
  87:Libraries/STM32F4xx_StdPeriph_Driver/src/stm32f4xx_rcc.c **** #define CR_PLLI2SON_BB            (PERIPH_BB_BASE + (CR_OFFSET * 32) + (PLLI2SON_BitNumber * 4))
  88:Libraries/STM32F4xx_StdPeriph_Driver/src/stm32f4xx_rcc.c **** 
  89:Libraries/STM32F4xx_StdPeriph_Driver/src/stm32f4xx_rcc.c **** /* Alias word address of PLLSAION bit */
  90:Libraries/STM32F4xx_StdPeriph_Driver/src/stm32f4xx_rcc.c **** #define PLLSAION_BitNumber        0x1C
  91:Libraries/STM32F4xx_StdPeriph_Driver/src/stm32f4xx_rcc.c **** #define CR_PLLSAION_BB            (PERIPH_BB_BASE + (CR_OFFSET * 32) + (PLLSAION_BitNumber * 4))
  92:Libraries/STM32F4xx_StdPeriph_Driver/src/stm32f4xx_rcc.c **** 
  93:Libraries/STM32F4xx_StdPeriph_Driver/src/stm32f4xx_rcc.c **** /* --- CFGR Register ---*/
  94:Libraries/STM32F4xx_StdPeriph_Driver/src/stm32f4xx_rcc.c **** /* Alias word address of I2SSRC bit */
  95:Libraries/STM32F4xx_StdPeriph_Driver/src/stm32f4xx_rcc.c **** #define CFGR_OFFSET               (RCC_OFFSET + 0x08)
  96:Libraries/STM32F4xx_StdPeriph_Driver/src/stm32f4xx_rcc.c **** #define I2SSRC_BitNumber          0x17
  97:Libraries/STM32F4xx_StdPeriph_Driver/src/stm32f4xx_rcc.c **** #define CFGR_I2SSRC_BB            (PERIPH_BB_BASE + (CFGR_OFFSET * 32) + (I2SSRC_BitNumber * 4))
  98:Libraries/STM32F4xx_StdPeriph_Driver/src/stm32f4xx_rcc.c **** 
  99:Libraries/STM32F4xx_StdPeriph_Driver/src/stm32f4xx_rcc.c **** /* --- BDCR Register ---*/
 100:Libraries/STM32F4xx_StdPeriph_Driver/src/stm32f4xx_rcc.c **** /* Alias word address of RTCEN bit */
 101:Libraries/STM32F4xx_StdPeriph_Driver/src/stm32f4xx_rcc.c **** #define BDCR_OFFSET               (RCC_OFFSET + 0x70)
 102:Libraries/STM32F4xx_StdPeriph_Driver/src/stm32f4xx_rcc.c **** #define RTCEN_BitNumber           0x0F
 103:Libraries/STM32F4xx_StdPeriph_Driver/src/stm32f4xx_rcc.c **** #define BDCR_RTCEN_BB             (PERIPH_BB_BASE + (BDCR_OFFSET * 32) + (RTCEN_BitNumber * 4))
 104:Libraries/STM32F4xx_StdPeriph_Driver/src/stm32f4xx_rcc.c **** /* Alias word address of BDRST bit */
 105:Libraries/STM32F4xx_StdPeriph_Driver/src/stm32f4xx_rcc.c **** #define BDRST_BitNumber           0x10
 106:Libraries/STM32F4xx_StdPeriph_Driver/src/stm32f4xx_rcc.c **** #define BDCR_BDRST_BB             (PERIPH_BB_BASE + (BDCR_OFFSET * 32) + (BDRST_BitNumber * 4))
 107:Libraries/STM32F4xx_StdPeriph_Driver/src/stm32f4xx_rcc.c **** 
 108:Libraries/STM32F4xx_StdPeriph_Driver/src/stm32f4xx_rcc.c **** /* --- CSR Register ---*/
 109:Libraries/STM32F4xx_StdPeriph_Driver/src/stm32f4xx_rcc.c **** /* Alias word address of LSION bit */
 110:Libraries/STM32F4xx_StdPeriph_Driver/src/stm32f4xx_rcc.c **** #define CSR_OFFSET                (RCC_OFFSET + 0x74)
 111:Libraries/STM32F4xx_StdPeriph_Driver/src/stm32f4xx_rcc.c **** #define LSION_BitNumber           0x00
 112:Libraries/STM32F4xx_StdPeriph_Driver/src/stm32f4xx_rcc.c **** #define CSR_LSION_BB              (PERIPH_BB_BASE + (CSR_OFFSET * 32) + (LSION_BitNumber * 4))
 113:Libraries/STM32F4xx_StdPeriph_Driver/src/stm32f4xx_rcc.c **** 
 114:Libraries/STM32F4xx_StdPeriph_Driver/src/stm32f4xx_rcc.c **** /* --- DCKCFGR Register ---*/
 115:Libraries/STM32F4xx_StdPeriph_Driver/src/stm32f4xx_rcc.c **** /* Alias word address of TIMPRE bit */
 116:Libraries/STM32F4xx_StdPeriph_Driver/src/stm32f4xx_rcc.c **** #define DCKCFGR_OFFSET            (RCC_OFFSET + 0x8C)
 117:Libraries/STM32F4xx_StdPeriph_Driver/src/stm32f4xx_rcc.c **** #define TIMPRE_BitNumber          0x18
 118:Libraries/STM32F4xx_StdPeriph_Driver/src/stm32f4xx_rcc.c **** #define DCKCFGR_TIMPRE_BB         (PERIPH_BB_BASE + (DCKCFGR_OFFSET * 32) + (TIMPRE_BitNumber * 4))
 119:Libraries/STM32F4xx_StdPeriph_Driver/src/stm32f4xx_rcc.c **** /* ---------------------- RCC registers bit mask ------------------------ */
 120:Libraries/STM32F4xx_StdPeriph_Driver/src/stm32f4xx_rcc.c **** /* CFGR register bit mask */
 121:Libraries/STM32F4xx_StdPeriph_Driver/src/stm32f4xx_rcc.c **** #define CFGR_MCO2_RESET_MASK      ((uint32_t)0x07FFFFFF)
 122:Libraries/STM32F4xx_StdPeriph_Driver/src/stm32f4xx_rcc.c **** #define CFGR_MCO1_RESET_MASK      ((uint32_t)0xF89FFFFF)
 123:Libraries/STM32F4xx_StdPeriph_Driver/src/stm32f4xx_rcc.c **** 
 124:Libraries/STM32F4xx_StdPeriph_Driver/src/stm32f4xx_rcc.c **** /* RCC Flag Mask */
 125:Libraries/STM32F4xx_StdPeriph_Driver/src/stm32f4xx_rcc.c **** #define FLAG_MASK                 ((uint8_t)0x1F)
 126:Libraries/STM32F4xx_StdPeriph_Driver/src/stm32f4xx_rcc.c **** 
 127:Libraries/STM32F4xx_StdPeriph_Driver/src/stm32f4xx_rcc.c **** /* CR register byte 3 (Bits[23:16]) base address */
 128:Libraries/STM32F4xx_StdPeriph_Driver/src/stm32f4xx_rcc.c **** #define CR_BYTE3_ADDRESS          ((uint32_t)0x40023802)
 129:Libraries/STM32F4xx_StdPeriph_Driver/src/stm32f4xx_rcc.c **** 
 130:Libraries/STM32F4xx_StdPeriph_Driver/src/stm32f4xx_rcc.c **** /* CIR register byte 2 (Bits[15:8]) base address */
 131:Libraries/STM32F4xx_StdPeriph_Driver/src/stm32f4xx_rcc.c **** #define CIR_BYTE2_ADDRESS         ((uint32_t)(RCC_BASE + 0x0C + 0x01))
 132:Libraries/STM32F4xx_StdPeriph_Driver/src/stm32f4xx_rcc.c **** 
 133:Libraries/STM32F4xx_StdPeriph_Driver/src/stm32f4xx_rcc.c **** /* CIR register byte 3 (Bits[23:16]) base address */
 134:Libraries/STM32F4xx_StdPeriph_Driver/src/stm32f4xx_rcc.c **** #define CIR_BYTE3_ADDRESS         ((uint32_t)(RCC_BASE + 0x0C + 0x02))
 135:Libraries/STM32F4xx_StdPeriph_Driver/src/stm32f4xx_rcc.c **** 
 136:Libraries/STM32F4xx_StdPeriph_Driver/src/stm32f4xx_rcc.c **** /* BDCR register base address */
 137:Libraries/STM32F4xx_StdPeriph_Driver/src/stm32f4xx_rcc.c **** #define BDCR_ADDRESS              (PERIPH_BASE + BDCR_OFFSET)
 138:Libraries/STM32F4xx_StdPeriph_Driver/src/stm32f4xx_rcc.c **** 
 139:Libraries/STM32F4xx_StdPeriph_Driver/src/stm32f4xx_rcc.c **** /* Private macro -------------------------------------------------------------*/
 140:Libraries/STM32F4xx_StdPeriph_Driver/src/stm32f4xx_rcc.c **** /* Private variables ---------------------------------------------------------*/
 141:Libraries/STM32F4xx_StdPeriph_Driver/src/stm32f4xx_rcc.c **** static __I uint8_t APBAHBPrescTable[16] = {0, 0, 0, 0, 1, 2, 3, 4, 1, 2, 3, 4, 6, 7, 8, 9};
 142:Libraries/STM32F4xx_StdPeriph_Driver/src/stm32f4xx_rcc.c **** 
 143:Libraries/STM32F4xx_StdPeriph_Driver/src/stm32f4xx_rcc.c **** /* Private function prototypes -----------------------------------------------*/
 144:Libraries/STM32F4xx_StdPeriph_Driver/src/stm32f4xx_rcc.c **** /* Private functions ---------------------------------------------------------*/
 145:Libraries/STM32F4xx_StdPeriph_Driver/src/stm32f4xx_rcc.c **** 
 146:Libraries/STM32F4xx_StdPeriph_Driver/src/stm32f4xx_rcc.c **** /** @defgroup RCC_Private_Functions
 147:Libraries/STM32F4xx_StdPeriph_Driver/src/stm32f4xx_rcc.c ****   * @{
 148:Libraries/STM32F4xx_StdPeriph_Driver/src/stm32f4xx_rcc.c ****   */ 
 149:Libraries/STM32F4xx_StdPeriph_Driver/src/stm32f4xx_rcc.c **** 
 150:Libraries/STM32F4xx_StdPeriph_Driver/src/stm32f4xx_rcc.c **** /** @defgroup RCC_Group1 Internal and external clocks, PLL, CSS and MCO configuration functions
 151:Libraries/STM32F4xx_StdPeriph_Driver/src/stm32f4xx_rcc.c ****  *  @brief   Internal and external clocks, PLL, CSS and MCO configuration functions 
 152:Libraries/STM32F4xx_StdPeriph_Driver/src/stm32f4xx_rcc.c ****  *
 153:Libraries/STM32F4xx_StdPeriph_Driver/src/stm32f4xx_rcc.c **** @verbatim   
 154:Libraries/STM32F4xx_StdPeriph_Driver/src/stm32f4xx_rcc.c ****  ===================================================================================
 155:Libraries/STM32F4xx_StdPeriph_Driver/src/stm32f4xx_rcc.c ****  ##### Internal and  external clocks, PLL, CSS and MCO configuration functions #####
 156:Libraries/STM32F4xx_StdPeriph_Driver/src/stm32f4xx_rcc.c ****  ===================================================================================  
 157:Libraries/STM32F4xx_StdPeriph_Driver/src/stm32f4xx_rcc.c ****     [..]
 158:Libraries/STM32F4xx_StdPeriph_Driver/src/stm32f4xx_rcc.c ****       This section provide functions allowing to configure the internal/external clocks,
 159:Libraries/STM32F4xx_StdPeriph_Driver/src/stm32f4xx_rcc.c ****       PLLs, CSS and MCO pins.
 160:Libraries/STM32F4xx_StdPeriph_Driver/src/stm32f4xx_rcc.c ****   
 161:Libraries/STM32F4xx_StdPeriph_Driver/src/stm32f4xx_rcc.c ****       (#) HSI (high-speed internal), 16 MHz factory-trimmed RC used directly or through
 162:Libraries/STM32F4xx_StdPeriph_Driver/src/stm32f4xx_rcc.c ****           the PLL as System clock source.
 163:Libraries/STM32F4xx_StdPeriph_Driver/src/stm32f4xx_rcc.c **** 
 164:Libraries/STM32F4xx_StdPeriph_Driver/src/stm32f4xx_rcc.c ****       (#) LSI (low-speed internal), 32 KHz low consumption RC used as IWDG and/or RTC
 165:Libraries/STM32F4xx_StdPeriph_Driver/src/stm32f4xx_rcc.c ****           clock source.
 166:Libraries/STM32F4xx_StdPeriph_Driver/src/stm32f4xx_rcc.c **** 
 167:Libraries/STM32F4xx_StdPeriph_Driver/src/stm32f4xx_rcc.c ****       (#) HSE (high-speed external), 4 to 26 MHz crystal oscillator used directly or
 168:Libraries/STM32F4xx_StdPeriph_Driver/src/stm32f4xx_rcc.c ****           through the PLL as System clock source. Can be used also as RTC clock source.
 169:Libraries/STM32F4xx_StdPeriph_Driver/src/stm32f4xx_rcc.c **** 
 170:Libraries/STM32F4xx_StdPeriph_Driver/src/stm32f4xx_rcc.c ****       (#) LSE (low-speed external), 32 KHz oscillator used as RTC clock source.   
 171:Libraries/STM32F4xx_StdPeriph_Driver/src/stm32f4xx_rcc.c **** 
 172:Libraries/STM32F4xx_StdPeriph_Driver/src/stm32f4xx_rcc.c ****       (#) PLL (clocked by HSI or HSE), featuring two different output clocks:
 173:Libraries/STM32F4xx_StdPeriph_Driver/src/stm32f4xx_rcc.c ****         (++) The first output is used to generate the high speed system clock (up to 168 MHz)
 174:Libraries/STM32F4xx_StdPeriph_Driver/src/stm32f4xx_rcc.c ****         (++) The second output is used to generate the clock for the USB OTG FS (48 MHz),
 175:Libraries/STM32F4xx_StdPeriph_Driver/src/stm32f4xx_rcc.c ****              the random analog generator (<=48 MHz) and the SDIO (<= 48 MHz).
 176:Libraries/STM32F4xx_StdPeriph_Driver/src/stm32f4xx_rcc.c **** 
 177:Libraries/STM32F4xx_StdPeriph_Driver/src/stm32f4xx_rcc.c ****       (#) PLLI2S (clocked by HSI or HSE), used to generate an accurate clock to achieve 
 178:Libraries/STM32F4xx_StdPeriph_Driver/src/stm32f4xx_rcc.c ****           high-quality audio performance on the I2S interface or SAI interface in case 
 179:Libraries/STM32F4xx_StdPeriph_Driver/src/stm32f4xx_rcc.c ****           of STM32F429x/439x devices.
 180:Libraries/STM32F4xx_StdPeriph_Driver/src/stm32f4xx_rcc.c ****      
 181:Libraries/STM32F4xx_StdPeriph_Driver/src/stm32f4xx_rcc.c ****       (#) PLLSAI clocked by (HSI or HSE), used to generate an accurate clock to SAI 
 182:Libraries/STM32F4xx_StdPeriph_Driver/src/stm32f4xx_rcc.c ****           interface and LCD TFT controller available only for STM32F42xxx/43xxx devices.
 183:Libraries/STM32F4xx_StdPeriph_Driver/src/stm32f4xx_rcc.c ****   
 184:Libraries/STM32F4xx_StdPeriph_Driver/src/stm32f4xx_rcc.c ****       (#) CSS (Clock security system), once enable and if a HSE clock failure occurs 
 185:Libraries/STM32F4xx_StdPeriph_Driver/src/stm32f4xx_rcc.c ****          (HSE used directly or through PLL as System clock source), the System clock
 186:Libraries/STM32F4xx_StdPeriph_Driver/src/stm32f4xx_rcc.c ****          is automatically switched to HSI and an interrupt is generated if enabled. 
 187:Libraries/STM32F4xx_StdPeriph_Driver/src/stm32f4xx_rcc.c ****          The interrupt is linked to the Cortex-M4 NMI (Non-Maskable Interrupt) 
 188:Libraries/STM32F4xx_StdPeriph_Driver/src/stm32f4xx_rcc.c ****          exception vector.   
 189:Libraries/STM32F4xx_StdPeriph_Driver/src/stm32f4xx_rcc.c **** 
 190:Libraries/STM32F4xx_StdPeriph_Driver/src/stm32f4xx_rcc.c ****       (#) MCO1 (microcontroller clock output), used to output HSI, LSE, HSE or PLL
 191:Libraries/STM32F4xx_StdPeriph_Driver/src/stm32f4xx_rcc.c ****           clock (through a configurable prescaler) on PA8 pin.
 192:Libraries/STM32F4xx_StdPeriph_Driver/src/stm32f4xx_rcc.c **** 
 193:Libraries/STM32F4xx_StdPeriph_Driver/src/stm32f4xx_rcc.c ****       (#) MCO2 (microcontroller clock output), used to output HSE, PLL, SYSCLK or PLLI2S
 194:Libraries/STM32F4xx_StdPeriph_Driver/src/stm32f4xx_rcc.c ****           clock (through a configurable prescaler) on PC9 pin.
 195:Libraries/STM32F4xx_StdPeriph_Driver/src/stm32f4xx_rcc.c ****  @endverbatim
 196:Libraries/STM32F4xx_StdPeriph_Driver/src/stm32f4xx_rcc.c ****   * @{
 197:Libraries/STM32F4xx_StdPeriph_Driver/src/stm32f4xx_rcc.c ****   */
 198:Libraries/STM32F4xx_StdPeriph_Driver/src/stm32f4xx_rcc.c **** 
 199:Libraries/STM32F4xx_StdPeriph_Driver/src/stm32f4xx_rcc.c **** /**
 200:Libraries/STM32F4xx_StdPeriph_Driver/src/stm32f4xx_rcc.c ****   * @brief  Resets the RCC clock configuration to the default reset state.
 201:Libraries/STM32F4xx_StdPeriph_Driver/src/stm32f4xx_rcc.c ****   * @note   The default reset state of the clock configuration is given below:
 202:Libraries/STM32F4xx_StdPeriph_Driver/src/stm32f4xx_rcc.c ****   *            - HSI ON and used as system clock source
 203:Libraries/STM32F4xx_StdPeriph_Driver/src/stm32f4xx_rcc.c ****   *            - HSE, PLL and PLLI2S OFF
 204:Libraries/STM32F4xx_StdPeriph_Driver/src/stm32f4xx_rcc.c ****   *            - AHB, APB1 and APB2 prescaler set to 1.
 205:Libraries/STM32F4xx_StdPeriph_Driver/src/stm32f4xx_rcc.c ****   *            - CSS, MCO1 and MCO2 OFF
 206:Libraries/STM32F4xx_StdPeriph_Driver/src/stm32f4xx_rcc.c ****   *            - All interrupts disabled
 207:Libraries/STM32F4xx_StdPeriph_Driver/src/stm32f4xx_rcc.c ****   * @note   This function doesn't modify the configuration of the
 208:Libraries/STM32F4xx_StdPeriph_Driver/src/stm32f4xx_rcc.c ****   *            - Peripheral clocks  
 209:Libraries/STM32F4xx_StdPeriph_Driver/src/stm32f4xx_rcc.c ****   *            - LSI, LSE and RTC clocks 
 210:Libraries/STM32F4xx_StdPeriph_Driver/src/stm32f4xx_rcc.c ****   * @param  None
 211:Libraries/STM32F4xx_StdPeriph_Driver/src/stm32f4xx_rcc.c ****   * @retval None
 212:Libraries/STM32F4xx_StdPeriph_Driver/src/stm32f4xx_rcc.c ****   */
 213:Libraries/STM32F4xx_StdPeriph_Driver/src/stm32f4xx_rcc.c **** void RCC_DeInit(void)
 214:Libraries/STM32F4xx_StdPeriph_Driver/src/stm32f4xx_rcc.c **** {
  29              		.loc 1 214 0
  30              		.cfi_startproc
  31              		@ args = 0, pretend = 0, frame = 0
  32              		@ frame_needed = 0, uses_anonymous_args = 0
  33              		@ link register save eliminated.
 215:Libraries/STM32F4xx_StdPeriph_Driver/src/stm32f4xx_rcc.c ****   /* Set HSION bit */
 216:Libraries/STM32F4xx_StdPeriph_Driver/src/stm32f4xx_rcc.c ****   RCC->CR |= (uint32_t)0x00000001;
  34              		.loc 1 216 0
  35 0000 4FF46053 		mov	r3, #14336
  36 0004 C4F20203 		movt	r3, 16386
 217:Libraries/STM32F4xx_StdPeriph_Driver/src/stm32f4xx_rcc.c **** 
 218:Libraries/STM32F4xx_StdPeriph_Driver/src/stm32f4xx_rcc.c ****   /* Reset CFGR register */
 219:Libraries/STM32F4xx_StdPeriph_Driver/src/stm32f4xx_rcc.c ****   RCC->CFGR = 0x00000000;
  37              		.loc 1 219 0
  38 0008 0022     		movs	r2, #0
 216:Libraries/STM32F4xx_StdPeriph_Driver/src/stm32f4xx_rcc.c **** 
  39              		.loc 1 216 0
  40 000a 1968     		ldr	r1, [r3]
  41 000c 41F00101 		orr	r1, r1, #1
 214:Libraries/STM32F4xx_StdPeriph_Driver/src/stm32f4xx_rcc.c ****   /* Set HSION bit */
  42              		.loc 1 214 0
  43 0010 30B4     		push	{r4, r5}
  44              	.LCFI0:
  45              		.cfi_def_cfa_offset 8
  46              		.cfi_offset 4, -8
  47              		.cfi_offset 5, -4
 216:Libraries/STM32F4xx_StdPeriph_Driver/src/stm32f4xx_rcc.c **** 
  48              		.loc 1 216 0
  49 0012 1960     		str	r1, [r3]
  50              		.loc 1 219 0
  51 0014 9A60     		str	r2, [r3, #8]
 220:Libraries/STM32F4xx_StdPeriph_Driver/src/stm32f4xx_rcc.c **** 
 221:Libraries/STM32F4xx_StdPeriph_Driver/src/stm32f4xx_rcc.c ****   /* Reset HSEON, CSSON, PLLON, PLLI2S and PLLSAI(STM32F42/43xxx devices) bits */
 222:Libraries/STM32F4xx_StdPeriph_Driver/src/stm32f4xx_rcc.c ****   RCC->CR &= (uint32_t)0xEAF6FFFF;
  52              		.loc 1 222 0
  53 0016 1D68     		ldr	r5, [r3]
 223:Libraries/STM32F4xx_StdPeriph_Driver/src/stm32f4xx_rcc.c **** 
 224:Libraries/STM32F4xx_StdPeriph_Driver/src/stm32f4xx_rcc.c ****   /* Reset PLLCFGR register */
 225:Libraries/STM32F4xx_StdPeriph_Driver/src/stm32f4xx_rcc.c ****   RCC->PLLCFGR = 0x24003010;
 226:Libraries/STM32F4xx_StdPeriph_Driver/src/stm32f4xx_rcc.c **** 
 227:Libraries/STM32F4xx_StdPeriph_Driver/src/stm32f4xx_rcc.c ****   /* Reset PLLI2SCFGR register */
 228:Libraries/STM32F4xx_StdPeriph_Driver/src/stm32f4xx_rcc.c ****   RCC->PLLI2SCFGR = 0x20003000;
  54              		.loc 1 228 0
  55 0018 4FF44050 		mov	r0, #12288
 229:Libraries/STM32F4xx_StdPeriph_Driver/src/stm32f4xx_rcc.c **** 
 230:Libraries/STM32F4xx_StdPeriph_Driver/src/stm32f4xx_rcc.c ****   /* Reset PLLSAICFGR register, only available for STM32F42/43xxx devices */
 231:Libraries/STM32F4xx_StdPeriph_Driver/src/stm32f4xx_rcc.c ****   RCC->PLLSAICFGR = 0x24003000;
  56              		.loc 1 231 0
  57 001c 0146     		mov	r1, r0
 225:Libraries/STM32F4xx_StdPeriph_Driver/src/stm32f4xx_rcc.c **** 
  58              		.loc 1 225 0
  59 001e 43F21004 		movw	r4, #12304
 222:Libraries/STM32F4xx_StdPeriph_Driver/src/stm32f4xx_rcc.c **** 
  60              		.loc 1 222 0
  61 0022 25F0A855 		bic	r5, r5, #352321536
  62 0026 25F41025 		bic	r5, r5, #589824
 225:Libraries/STM32F4xx_StdPeriph_Driver/src/stm32f4xx_rcc.c **** 
  63              		.loc 1 225 0
  64 002a C2F20044 		movt	r4, 9216
  65              		.loc 1 231 0
  66 002e C2F20041 		movt	r1, 9216
 228:Libraries/STM32F4xx_StdPeriph_Driver/src/stm32f4xx_rcc.c **** 
  67              		.loc 1 228 0
  68 0032 C2F20000 		movt	r0, 8192
 222:Libraries/STM32F4xx_StdPeriph_Driver/src/stm32f4xx_rcc.c **** 
  69              		.loc 1 222 0
  70 0036 1D60     		str	r5, [r3]
 225:Libraries/STM32F4xx_StdPeriph_Driver/src/stm32f4xx_rcc.c **** 
  71              		.loc 1 225 0
  72 0038 5C60     		str	r4, [r3, #4]
 228:Libraries/STM32F4xx_StdPeriph_Driver/src/stm32f4xx_rcc.c **** 
  73              		.loc 1 228 0
  74 003a C3F88400 		str	r0, [r3, #132]
  75              		.loc 1 231 0
  76 003e C3F88810 		str	r1, [r3, #136]
 232:Libraries/STM32F4xx_StdPeriph_Driver/src/stm32f4xx_rcc.c ****  
 233:Libraries/STM32F4xx_StdPeriph_Driver/src/stm32f4xx_rcc.c ****   /* Reset HSEBYP bit */
 234:Libraries/STM32F4xx_StdPeriph_Driver/src/stm32f4xx_rcc.c ****   RCC->CR &= (uint32_t)0xFFFBFFFF;
  77              		.loc 1 234 0
  78 0042 1968     		ldr	r1, [r3]
  79 0044 21F48021 		bic	r1, r1, #262144
  80 0048 1960     		str	r1, [r3]
 235:Libraries/STM32F4xx_StdPeriph_Driver/src/stm32f4xx_rcc.c **** 
 236:Libraries/STM32F4xx_StdPeriph_Driver/src/stm32f4xx_rcc.c ****   /* Disable all interrupts */
 237:Libraries/STM32F4xx_StdPeriph_Driver/src/stm32f4xx_rcc.c ****   RCC->CIR = 0x00000000;
 238:Libraries/STM32F4xx_StdPeriph_Driver/src/stm32f4xx_rcc.c **** 
 239:Libraries/STM32F4xx_StdPeriph_Driver/src/stm32f4xx_rcc.c ****   /* Disable Timers clock prescalers selection, only available for STM32F42/43xxx devices */
 240:Libraries/STM32F4xx_StdPeriph_Driver/src/stm32f4xx_rcc.c ****   RCC->DCKCFGR = 0x00000000; 
 241:Libraries/STM32F4xx_StdPeriph_Driver/src/stm32f4xx_rcc.c **** }
  81              		.loc 1 241 0
  82 004a 30BC     		pop	{r4, r5}
 237:Libraries/STM32F4xx_StdPeriph_Driver/src/stm32f4xx_rcc.c **** 
  83              		.loc 1 237 0
  84 004c DA60     		str	r2, [r3, #12]
 240:Libraries/STM32F4xx_StdPeriph_Driver/src/stm32f4xx_rcc.c **** }
  85              		.loc 1 240 0
  86 004e C3F88C20 		str	r2, [r3, #140]
  87              		.loc 1 241 0
  88 0052 7047     		bx	lr
  89              		.cfi_endproc
  90              	.LFE123:
  92              		.section	.text.RCC_HSEConfig,"ax",%progbits
  93              		.align	2
  94              		.global	RCC_HSEConfig
  95              		.thumb
  96              		.thumb_func
  98              	RCC_HSEConfig:
  99              	.LFB124:
 242:Libraries/STM32F4xx_StdPeriph_Driver/src/stm32f4xx_rcc.c **** 
 243:Libraries/STM32F4xx_StdPeriph_Driver/src/stm32f4xx_rcc.c **** /**
 244:Libraries/STM32F4xx_StdPeriph_Driver/src/stm32f4xx_rcc.c ****   * @brief  Configures the External High Speed oscillator (HSE).
 245:Libraries/STM32F4xx_StdPeriph_Driver/src/stm32f4xx_rcc.c ****   * @note   After enabling the HSE (RCC_HSE_ON or RCC_HSE_Bypass), the application
 246:Libraries/STM32F4xx_StdPeriph_Driver/src/stm32f4xx_rcc.c ****   *         software should wait on HSERDY flag to be set indicating that HSE clock
 247:Libraries/STM32F4xx_StdPeriph_Driver/src/stm32f4xx_rcc.c ****   *         is stable and can be used to clock the PLL and/or system clock.
 248:Libraries/STM32F4xx_StdPeriph_Driver/src/stm32f4xx_rcc.c ****   * @note   HSE state can not be changed if it is used directly or through the
 249:Libraries/STM32F4xx_StdPeriph_Driver/src/stm32f4xx_rcc.c ****   *         PLL as system clock. In this case, you have to select another source
 250:Libraries/STM32F4xx_StdPeriph_Driver/src/stm32f4xx_rcc.c ****   *         of the system clock then change the HSE state (ex. disable it).
 251:Libraries/STM32F4xx_StdPeriph_Driver/src/stm32f4xx_rcc.c ****   * @note   The HSE is stopped by hardware when entering STOP and STANDBY modes.  
 252:Libraries/STM32F4xx_StdPeriph_Driver/src/stm32f4xx_rcc.c ****   * @note   This function reset the CSSON bit, so if the Clock security system(CSS)
 253:Libraries/STM32F4xx_StdPeriph_Driver/src/stm32f4xx_rcc.c ****   *         was previously enabled you have to enable it again after calling this
 254:Libraries/STM32F4xx_StdPeriph_Driver/src/stm32f4xx_rcc.c ****   *         function.    
 255:Libraries/STM32F4xx_StdPeriph_Driver/src/stm32f4xx_rcc.c ****   * @param  RCC_HSE: specifies the new state of the HSE.
 256:Libraries/STM32F4xx_StdPeriph_Driver/src/stm32f4xx_rcc.c ****   *          This parameter can be one of the following values:
 257:Libraries/STM32F4xx_StdPeriph_Driver/src/stm32f4xx_rcc.c ****   *            @arg RCC_HSE_OFF: turn OFF the HSE oscillator, HSERDY flag goes low after
 258:Libraries/STM32F4xx_StdPeriph_Driver/src/stm32f4xx_rcc.c ****   *                              6 HSE oscillator clock cycles.
 259:Libraries/STM32F4xx_StdPeriph_Driver/src/stm32f4xx_rcc.c ****   *            @arg RCC_HSE_ON: turn ON the HSE oscillator
 260:Libraries/STM32F4xx_StdPeriph_Driver/src/stm32f4xx_rcc.c ****   *            @arg RCC_HSE_Bypass: HSE oscillator bypassed with external clock
 261:Libraries/STM32F4xx_StdPeriph_Driver/src/stm32f4xx_rcc.c ****   * @retval None
 262:Libraries/STM32F4xx_StdPeriph_Driver/src/stm32f4xx_rcc.c ****   */
 263:Libraries/STM32F4xx_StdPeriph_Driver/src/stm32f4xx_rcc.c **** void RCC_HSEConfig(uint8_t RCC_HSE)
 264:Libraries/STM32F4xx_StdPeriph_Driver/src/stm32f4xx_rcc.c **** {
 100              		.loc 1 264 0
 101              		.cfi_startproc
 102              		@ args = 0, pretend = 0, frame = 0
 103              		@ frame_needed = 0, uses_anonymous_args = 0
 104              	.LVL0:
 265:Libraries/STM32F4xx_StdPeriph_Driver/src/stm32f4xx_rcc.c ****   /* Check the parameters */
 266:Libraries/STM32F4xx_StdPeriph_Driver/src/stm32f4xx_rcc.c ****   assert_param(IS_RCC_HSE(RCC_HSE));
 105              		.loc 1 266 0
 106 0000 0528     		cmp	r0, #5
 107 0002 18BF     		it	ne
 108 0004 0128     		cmpne	r0, #1
 264:Libraries/STM32F4xx_StdPeriph_Driver/src/stm32f4xx_rcc.c ****   /* Check the parameters */
 109              		.loc 1 264 0
 110 0006 10B5     		push	{r4, lr}
 111              	.LCFI1:
 112              		.cfi_def_cfa_offset 8
 113              		.cfi_offset 4, -8
 114              		.cfi_offset 14, -4
 264:Libraries/STM32F4xx_StdPeriph_Driver/src/stm32f4xx_rcc.c ****   /* Check the parameters */
 115              		.loc 1 264 0
 116 0008 0446     		mov	r4, r0
 117              		.loc 1 266 0
 118 000a 07D9     		bls	.L3
 119              		.loc 1 266 0 is_stmt 0 discriminator 1
 120 000c 40F20000 		movw	r0, #:lower16:.LC0
 121              	.LVL1:
 122 0010 C0F20000 		movt	r0, #:upper16:.LC0
 123 0014 4FF48571 		mov	r1, #266
 124 0018 FFF7FEFF 		bl	assert_failed
 125              	.LVL2:
 126              	.L3:
 267:Libraries/STM32F4xx_StdPeriph_Driver/src/stm32f4xx_rcc.c **** 
 268:Libraries/STM32F4xx_StdPeriph_Driver/src/stm32f4xx_rcc.c ****   /* Reset HSEON and HSEBYP bits before configuring the HSE ------------------*/
 269:Libraries/STM32F4xx_StdPeriph_Driver/src/stm32f4xx_rcc.c ****   *(__IO uint8_t *) CR_BYTE3_ADDRESS = RCC_HSE_OFF;
 127              		.loc 1 269 0 is_stmt 1
 128 001c 43F60203 		movw	r3, #14338
 129 0020 C4F20203 		movt	r3, 16386
 130 0024 0022     		movs	r2, #0
 131 0026 1A70     		strb	r2, [r3]
 270:Libraries/STM32F4xx_StdPeriph_Driver/src/stm32f4xx_rcc.c **** 
 271:Libraries/STM32F4xx_StdPeriph_Driver/src/stm32f4xx_rcc.c ****   /* Set the new HSE configuration -------------------------------------------*/
 272:Libraries/STM32F4xx_StdPeriph_Driver/src/stm32f4xx_rcc.c ****   *(__IO uint8_t *) CR_BYTE3_ADDRESS = RCC_HSE;
 132              		.loc 1 272 0
 133 0028 1C70     		strb	r4, [r3]
 134 002a 10BD     		pop	{r4, pc}
 135              		.cfi_endproc
 136              	.LFE124:
 138              		.section	.text.RCC_WaitForHSEStartUp,"ax",%progbits
 139              		.align	2
 140              		.global	RCC_WaitForHSEStartUp
 141              		.thumb
 142              		.thumb_func
 144              	RCC_WaitForHSEStartUp:
 145              	.LFB125:
 273:Libraries/STM32F4xx_StdPeriph_Driver/src/stm32f4xx_rcc.c **** }
 274:Libraries/STM32F4xx_StdPeriph_Driver/src/stm32f4xx_rcc.c **** 
 275:Libraries/STM32F4xx_StdPeriph_Driver/src/stm32f4xx_rcc.c **** /**
 276:Libraries/STM32F4xx_StdPeriph_Driver/src/stm32f4xx_rcc.c ****   * @brief  Waits for HSE start-up.
 277:Libraries/STM32F4xx_StdPeriph_Driver/src/stm32f4xx_rcc.c ****   * @note   This functions waits on HSERDY flag to be set and return SUCCESS if 
 278:Libraries/STM32F4xx_StdPeriph_Driver/src/stm32f4xx_rcc.c ****   *         this flag is set, otherwise returns ERROR if the timeout is reached 
 279:Libraries/STM32F4xx_StdPeriph_Driver/src/stm32f4xx_rcc.c ****   *         and this flag is not set. The timeout value is defined by the constant
 280:Libraries/STM32F4xx_StdPeriph_Driver/src/stm32f4xx_rcc.c ****   *         HSE_STARTUP_TIMEOUT in stm32f4xx.h file. You can tailor it depending
 281:Libraries/STM32F4xx_StdPeriph_Driver/src/stm32f4xx_rcc.c ****   *         on the HSE crystal used in your application. 
 282:Libraries/STM32F4xx_StdPeriph_Driver/src/stm32f4xx_rcc.c ****   * @param  None
 283:Libraries/STM32F4xx_StdPeriph_Driver/src/stm32f4xx_rcc.c ****   * @retval An ErrorStatus enumeration value:
 284:Libraries/STM32F4xx_StdPeriph_Driver/src/stm32f4xx_rcc.c ****   *          - SUCCESS: HSE oscillator is stable and ready to use
 285:Libraries/STM32F4xx_StdPeriph_Driver/src/stm32f4xx_rcc.c ****   *          - ERROR: HSE oscillator not yet ready
 286:Libraries/STM32F4xx_StdPeriph_Driver/src/stm32f4xx_rcc.c ****   */
 287:Libraries/STM32F4xx_StdPeriph_Driver/src/stm32f4xx_rcc.c **** ErrorStatus RCC_WaitForHSEStartUp(void)
 288:Libraries/STM32F4xx_StdPeriph_Driver/src/stm32f4xx_rcc.c **** {
 146              		.loc 1 288 0
 147              		.cfi_startproc
 148              		@ args = 0, pretend = 0, frame = 8
 149              		@ frame_needed = 0, uses_anonymous_args = 0
 150              		@ link register save eliminated.
 151 0000 82B0     		sub	sp, sp, #8
 152              	.LCFI2:
 153              		.cfi_def_cfa_offset 8
 289:Libraries/STM32F4xx_StdPeriph_Driver/src/stm32f4xx_rcc.c ****   __IO uint32_t startupcounter = 0;
 154              		.loc 1 289 0
 155 0002 0023     		movs	r3, #0
 156              	.LBB6:
 157              	.LBB7:
 290:Libraries/STM32F4xx_StdPeriph_Driver/src/stm32f4xx_rcc.c ****   ErrorStatus status = ERROR;
 291:Libraries/STM32F4xx_StdPeriph_Driver/src/stm32f4xx_rcc.c ****   FlagStatus hsestatus = RESET;
 292:Libraries/STM32F4xx_StdPeriph_Driver/src/stm32f4xx_rcc.c ****   /* Wait till HSE is ready and if Time out is reached exit */
 293:Libraries/STM32F4xx_StdPeriph_Driver/src/stm32f4xx_rcc.c ****   do
 294:Libraries/STM32F4xx_StdPeriph_Driver/src/stm32f4xx_rcc.c ****   {
 295:Libraries/STM32F4xx_StdPeriph_Driver/src/stm32f4xx_rcc.c ****     hsestatus = RCC_GetFlagStatus(RCC_FLAG_HSERDY);
 296:Libraries/STM32F4xx_StdPeriph_Driver/src/stm32f4xx_rcc.c ****     startupcounter++;
 297:Libraries/STM32F4xx_StdPeriph_Driver/src/stm32f4xx_rcc.c ****   } while((startupcounter != HSE_STARTUP_TIMEOUT) && (hsestatus == RESET));
 298:Libraries/STM32F4xx_StdPeriph_Driver/src/stm32f4xx_rcc.c **** 
 299:Libraries/STM32F4xx_StdPeriph_Driver/src/stm32f4xx_rcc.c ****   if (RCC_GetFlagStatus(RCC_FLAG_HSERDY) != RESET)
 300:Libraries/STM32F4xx_StdPeriph_Driver/src/stm32f4xx_rcc.c ****   {
 301:Libraries/STM32F4xx_StdPeriph_Driver/src/stm32f4xx_rcc.c ****     status = SUCCESS;
 302:Libraries/STM32F4xx_StdPeriph_Driver/src/stm32f4xx_rcc.c ****   }
 303:Libraries/STM32F4xx_StdPeriph_Driver/src/stm32f4xx_rcc.c ****   else
 304:Libraries/STM32F4xx_StdPeriph_Driver/src/stm32f4xx_rcc.c ****   {
 305:Libraries/STM32F4xx_StdPeriph_Driver/src/stm32f4xx_rcc.c ****     status = ERROR;
 306:Libraries/STM32F4xx_StdPeriph_Driver/src/stm32f4xx_rcc.c ****   }
 307:Libraries/STM32F4xx_StdPeriph_Driver/src/stm32f4xx_rcc.c ****   return (status);
 308:Libraries/STM32F4xx_StdPeriph_Driver/src/stm32f4xx_rcc.c **** }
 309:Libraries/STM32F4xx_StdPeriph_Driver/src/stm32f4xx_rcc.c **** 
 310:Libraries/STM32F4xx_StdPeriph_Driver/src/stm32f4xx_rcc.c **** /**
 311:Libraries/STM32F4xx_StdPeriph_Driver/src/stm32f4xx_rcc.c ****   * @brief  Adjusts the Internal High Speed oscillator (HSI) calibration value.
 312:Libraries/STM32F4xx_StdPeriph_Driver/src/stm32f4xx_rcc.c ****   * @note   The calibration is used to compensate for the variations in voltage
 313:Libraries/STM32F4xx_StdPeriph_Driver/src/stm32f4xx_rcc.c ****   *         and temperature that influence the frequency of the internal HSI RC.
 314:Libraries/STM32F4xx_StdPeriph_Driver/src/stm32f4xx_rcc.c ****   * @param  HSICalibrationValue: specifies the calibration trimming value.
 315:Libraries/STM32F4xx_StdPeriph_Driver/src/stm32f4xx_rcc.c ****   *         This parameter must be a number between 0 and 0x1F.
 316:Libraries/STM32F4xx_StdPeriph_Driver/src/stm32f4xx_rcc.c ****   * @retval None
 317:Libraries/STM32F4xx_StdPeriph_Driver/src/stm32f4xx_rcc.c ****   */
 318:Libraries/STM32F4xx_StdPeriph_Driver/src/stm32f4xx_rcc.c **** void RCC_AdjustHSICalibrationValue(uint8_t HSICalibrationValue)
 319:Libraries/STM32F4xx_StdPeriph_Driver/src/stm32f4xx_rcc.c **** {
 320:Libraries/STM32F4xx_StdPeriph_Driver/src/stm32f4xx_rcc.c ****   uint32_t tmpreg = 0;
 321:Libraries/STM32F4xx_StdPeriph_Driver/src/stm32f4xx_rcc.c ****   /* Check the parameters */
 322:Libraries/STM32F4xx_StdPeriph_Driver/src/stm32f4xx_rcc.c ****   assert_param(IS_RCC_CALIBRATION_VALUE(HSICalibrationValue));
 323:Libraries/STM32F4xx_StdPeriph_Driver/src/stm32f4xx_rcc.c **** 
 324:Libraries/STM32F4xx_StdPeriph_Driver/src/stm32f4xx_rcc.c ****   tmpreg = RCC->CR;
 325:Libraries/STM32F4xx_StdPeriph_Driver/src/stm32f4xx_rcc.c **** 
 326:Libraries/STM32F4xx_StdPeriph_Driver/src/stm32f4xx_rcc.c ****   /* Clear HSITRIM[4:0] bits */
 327:Libraries/STM32F4xx_StdPeriph_Driver/src/stm32f4xx_rcc.c ****   tmpreg &= ~RCC_CR_HSITRIM;
 328:Libraries/STM32F4xx_StdPeriph_Driver/src/stm32f4xx_rcc.c **** 
 329:Libraries/STM32F4xx_StdPeriph_Driver/src/stm32f4xx_rcc.c ****   /* Set the HSITRIM[4:0] bits according to HSICalibrationValue value */
 330:Libraries/STM32F4xx_StdPeriph_Driver/src/stm32f4xx_rcc.c ****   tmpreg |= (uint32_t)HSICalibrationValue << 3;
 331:Libraries/STM32F4xx_StdPeriph_Driver/src/stm32f4xx_rcc.c **** 
 332:Libraries/STM32F4xx_StdPeriph_Driver/src/stm32f4xx_rcc.c ****   /* Store the new value */
 333:Libraries/STM32F4xx_StdPeriph_Driver/src/stm32f4xx_rcc.c ****   RCC->CR = tmpreg;
 334:Libraries/STM32F4xx_StdPeriph_Driver/src/stm32f4xx_rcc.c **** }
 335:Libraries/STM32F4xx_StdPeriph_Driver/src/stm32f4xx_rcc.c **** 
 336:Libraries/STM32F4xx_StdPeriph_Driver/src/stm32f4xx_rcc.c **** /**
 337:Libraries/STM32F4xx_StdPeriph_Driver/src/stm32f4xx_rcc.c ****   * @brief  Enables or disables the Internal High Speed oscillator (HSI).
 338:Libraries/STM32F4xx_StdPeriph_Driver/src/stm32f4xx_rcc.c ****   * @note   The HSI is stopped by hardware when entering STOP and STANDBY modes.
 339:Libraries/STM32F4xx_StdPeriph_Driver/src/stm32f4xx_rcc.c ****   *         It is used (enabled by hardware) as system clock source after startup
 340:Libraries/STM32F4xx_StdPeriph_Driver/src/stm32f4xx_rcc.c ****   *         from Reset, wakeup from STOP and STANDBY mode, or in case of failure
 341:Libraries/STM32F4xx_StdPeriph_Driver/src/stm32f4xx_rcc.c ****   *         of the HSE used directly or indirectly as system clock (if the Clock
 342:Libraries/STM32F4xx_StdPeriph_Driver/src/stm32f4xx_rcc.c ****   *         Security System CSS is enabled).             
 343:Libraries/STM32F4xx_StdPeriph_Driver/src/stm32f4xx_rcc.c ****   * @note   HSI can not be stopped if it is used as system clock source. In this case,
 344:Libraries/STM32F4xx_StdPeriph_Driver/src/stm32f4xx_rcc.c ****   *         you have to select another source of the system clock then stop the HSI.  
 345:Libraries/STM32F4xx_StdPeriph_Driver/src/stm32f4xx_rcc.c ****   * @note   After enabling the HSI, the application software should wait on HSIRDY
 346:Libraries/STM32F4xx_StdPeriph_Driver/src/stm32f4xx_rcc.c ****   *         flag to be set indicating that HSI clock is stable and can be used as
 347:Libraries/STM32F4xx_StdPeriph_Driver/src/stm32f4xx_rcc.c ****   *         system clock source.  
 348:Libraries/STM32F4xx_StdPeriph_Driver/src/stm32f4xx_rcc.c ****   * @param  NewState: new state of the HSI.
 349:Libraries/STM32F4xx_StdPeriph_Driver/src/stm32f4xx_rcc.c ****   *          This parameter can be: ENABLE or DISABLE.
 350:Libraries/STM32F4xx_StdPeriph_Driver/src/stm32f4xx_rcc.c ****   * @note   When the HSI is stopped, HSIRDY flag goes low after 6 HSI oscillator
 351:Libraries/STM32F4xx_StdPeriph_Driver/src/stm32f4xx_rcc.c ****   *         clock cycles.  
 352:Libraries/STM32F4xx_StdPeriph_Driver/src/stm32f4xx_rcc.c ****   * @retval None
 353:Libraries/STM32F4xx_StdPeriph_Driver/src/stm32f4xx_rcc.c ****   */
 354:Libraries/STM32F4xx_StdPeriph_Driver/src/stm32f4xx_rcc.c **** void RCC_HSICmd(FunctionalState NewState)
 355:Libraries/STM32F4xx_StdPeriph_Driver/src/stm32f4xx_rcc.c **** {
 356:Libraries/STM32F4xx_StdPeriph_Driver/src/stm32f4xx_rcc.c ****   /* Check the parameters */
 357:Libraries/STM32F4xx_StdPeriph_Driver/src/stm32f4xx_rcc.c ****   assert_param(IS_FUNCTIONAL_STATE(NewState));
 358:Libraries/STM32F4xx_StdPeriph_Driver/src/stm32f4xx_rcc.c **** 
 359:Libraries/STM32F4xx_StdPeriph_Driver/src/stm32f4xx_rcc.c ****   *(__IO uint32_t *) CR_HSION_BB = (uint32_t)NewState;
 360:Libraries/STM32F4xx_StdPeriph_Driver/src/stm32f4xx_rcc.c **** }
 361:Libraries/STM32F4xx_StdPeriph_Driver/src/stm32f4xx_rcc.c **** 
 362:Libraries/STM32F4xx_StdPeriph_Driver/src/stm32f4xx_rcc.c **** /**
 363:Libraries/STM32F4xx_StdPeriph_Driver/src/stm32f4xx_rcc.c ****   * @brief  Configures the External Low Speed oscillator (LSE).
 364:Libraries/STM32F4xx_StdPeriph_Driver/src/stm32f4xx_rcc.c ****   * @note   As the LSE is in the Backup domain and write access is denied to
 365:Libraries/STM32F4xx_StdPeriph_Driver/src/stm32f4xx_rcc.c ****   *         this domain after reset, you have to enable write access using 
 366:Libraries/STM32F4xx_StdPeriph_Driver/src/stm32f4xx_rcc.c ****   *         PWR_BackupAccessCmd(ENABLE) function before to configure the LSE
 367:Libraries/STM32F4xx_StdPeriph_Driver/src/stm32f4xx_rcc.c ****   *         (to be done once after reset).  
 368:Libraries/STM32F4xx_StdPeriph_Driver/src/stm32f4xx_rcc.c ****   * @note   After enabling the LSE (RCC_LSE_ON or RCC_LSE_Bypass), the application
 369:Libraries/STM32F4xx_StdPeriph_Driver/src/stm32f4xx_rcc.c ****   *         software should wait on LSERDY flag to be set indicating that LSE clock
 370:Libraries/STM32F4xx_StdPeriph_Driver/src/stm32f4xx_rcc.c ****   *         is stable and can be used to clock the RTC.
 371:Libraries/STM32F4xx_StdPeriph_Driver/src/stm32f4xx_rcc.c ****   * @param  RCC_LSE: specifies the new state of the LSE.
 372:Libraries/STM32F4xx_StdPeriph_Driver/src/stm32f4xx_rcc.c ****   *          This parameter can be one of the following values:
 373:Libraries/STM32F4xx_StdPeriph_Driver/src/stm32f4xx_rcc.c ****   *            @arg RCC_LSE_OFF: turn OFF the LSE oscillator, LSERDY flag goes low after
 374:Libraries/STM32F4xx_StdPeriph_Driver/src/stm32f4xx_rcc.c ****   *                              6 LSE oscillator clock cycles.
 375:Libraries/STM32F4xx_StdPeriph_Driver/src/stm32f4xx_rcc.c ****   *            @arg RCC_LSE_ON: turn ON the LSE oscillator
 376:Libraries/STM32F4xx_StdPeriph_Driver/src/stm32f4xx_rcc.c ****   *            @arg RCC_LSE_Bypass: LSE oscillator bypassed with external clock
 377:Libraries/STM32F4xx_StdPeriph_Driver/src/stm32f4xx_rcc.c ****   * @retval None
 378:Libraries/STM32F4xx_StdPeriph_Driver/src/stm32f4xx_rcc.c ****   */
 379:Libraries/STM32F4xx_StdPeriph_Driver/src/stm32f4xx_rcc.c **** void RCC_LSEConfig(uint8_t RCC_LSE)
 380:Libraries/STM32F4xx_StdPeriph_Driver/src/stm32f4xx_rcc.c **** {
 381:Libraries/STM32F4xx_StdPeriph_Driver/src/stm32f4xx_rcc.c ****   /* Check the parameters */
 382:Libraries/STM32F4xx_StdPeriph_Driver/src/stm32f4xx_rcc.c ****   assert_param(IS_RCC_LSE(RCC_LSE));
 383:Libraries/STM32F4xx_StdPeriph_Driver/src/stm32f4xx_rcc.c **** 
 384:Libraries/STM32F4xx_StdPeriph_Driver/src/stm32f4xx_rcc.c ****   /* Reset LSEON and LSEBYP bits before configuring the LSE ------------------*/
 385:Libraries/STM32F4xx_StdPeriph_Driver/src/stm32f4xx_rcc.c ****   /* Reset LSEON bit */
 386:Libraries/STM32F4xx_StdPeriph_Driver/src/stm32f4xx_rcc.c ****   *(__IO uint8_t *) BDCR_ADDRESS = RCC_LSE_OFF;
 387:Libraries/STM32F4xx_StdPeriph_Driver/src/stm32f4xx_rcc.c **** 
 388:Libraries/STM32F4xx_StdPeriph_Driver/src/stm32f4xx_rcc.c ****   /* Reset LSEBYP bit */
 389:Libraries/STM32F4xx_StdPeriph_Driver/src/stm32f4xx_rcc.c ****   *(__IO uint8_t *) BDCR_ADDRESS = RCC_LSE_OFF;
 390:Libraries/STM32F4xx_StdPeriph_Driver/src/stm32f4xx_rcc.c **** 
 391:Libraries/STM32F4xx_StdPeriph_Driver/src/stm32f4xx_rcc.c ****   /* Configure LSE (RCC_LSE_OFF is already covered by the code section above) */
 392:Libraries/STM32F4xx_StdPeriph_Driver/src/stm32f4xx_rcc.c ****   switch (RCC_LSE)
 393:Libraries/STM32F4xx_StdPeriph_Driver/src/stm32f4xx_rcc.c ****   {
 394:Libraries/STM32F4xx_StdPeriph_Driver/src/stm32f4xx_rcc.c ****     case RCC_LSE_ON:
 395:Libraries/STM32F4xx_StdPeriph_Driver/src/stm32f4xx_rcc.c ****       /* Set LSEON bit */
 396:Libraries/STM32F4xx_StdPeriph_Driver/src/stm32f4xx_rcc.c ****       *(__IO uint8_t *) BDCR_ADDRESS = RCC_LSE_ON;
 397:Libraries/STM32F4xx_StdPeriph_Driver/src/stm32f4xx_rcc.c ****       break;
 398:Libraries/STM32F4xx_StdPeriph_Driver/src/stm32f4xx_rcc.c ****     case RCC_LSE_Bypass:
 399:Libraries/STM32F4xx_StdPeriph_Driver/src/stm32f4xx_rcc.c ****       /* Set LSEBYP and LSEON bits */
 400:Libraries/STM32F4xx_StdPeriph_Driver/src/stm32f4xx_rcc.c ****       *(__IO uint8_t *) BDCR_ADDRESS = RCC_LSE_Bypass | RCC_LSE_ON;
 401:Libraries/STM32F4xx_StdPeriph_Driver/src/stm32f4xx_rcc.c ****       break;
 402:Libraries/STM32F4xx_StdPeriph_Driver/src/stm32f4xx_rcc.c ****     default:
 403:Libraries/STM32F4xx_StdPeriph_Driver/src/stm32f4xx_rcc.c ****       break;
 404:Libraries/STM32F4xx_StdPeriph_Driver/src/stm32f4xx_rcc.c ****   }
 405:Libraries/STM32F4xx_StdPeriph_Driver/src/stm32f4xx_rcc.c **** }
 406:Libraries/STM32F4xx_StdPeriph_Driver/src/stm32f4xx_rcc.c **** 
 407:Libraries/STM32F4xx_StdPeriph_Driver/src/stm32f4xx_rcc.c **** /**
 408:Libraries/STM32F4xx_StdPeriph_Driver/src/stm32f4xx_rcc.c ****   * @brief  Enables or disables the Internal Low Speed oscillator (LSI).
 409:Libraries/STM32F4xx_StdPeriph_Driver/src/stm32f4xx_rcc.c ****   * @note   After enabling the LSI, the application software should wait on 
 410:Libraries/STM32F4xx_StdPeriph_Driver/src/stm32f4xx_rcc.c ****   *         LSIRDY flag to be set indicating that LSI clock is stable and can
 411:Libraries/STM32F4xx_StdPeriph_Driver/src/stm32f4xx_rcc.c ****   *         be used to clock the IWDG and/or the RTC.
 412:Libraries/STM32F4xx_StdPeriph_Driver/src/stm32f4xx_rcc.c ****   * @note   LSI can not be disabled if the IWDG is running.  
 413:Libraries/STM32F4xx_StdPeriph_Driver/src/stm32f4xx_rcc.c ****   * @param  NewState: new state of the LSI.
 414:Libraries/STM32F4xx_StdPeriph_Driver/src/stm32f4xx_rcc.c ****   *          This parameter can be: ENABLE or DISABLE.
 415:Libraries/STM32F4xx_StdPeriph_Driver/src/stm32f4xx_rcc.c ****   * @note   When the LSI is stopped, LSIRDY flag goes low after 6 LSI oscillator
 416:Libraries/STM32F4xx_StdPeriph_Driver/src/stm32f4xx_rcc.c ****   *         clock cycles. 
 417:Libraries/STM32F4xx_StdPeriph_Driver/src/stm32f4xx_rcc.c ****   * @retval None
 418:Libraries/STM32F4xx_StdPeriph_Driver/src/stm32f4xx_rcc.c ****   */
 419:Libraries/STM32F4xx_StdPeriph_Driver/src/stm32f4xx_rcc.c **** void RCC_LSICmd(FunctionalState NewState)
 420:Libraries/STM32F4xx_StdPeriph_Driver/src/stm32f4xx_rcc.c **** {
 421:Libraries/STM32F4xx_StdPeriph_Driver/src/stm32f4xx_rcc.c ****   /* Check the parameters */
 422:Libraries/STM32F4xx_StdPeriph_Driver/src/stm32f4xx_rcc.c ****   assert_param(IS_FUNCTIONAL_STATE(NewState));
 423:Libraries/STM32F4xx_StdPeriph_Driver/src/stm32f4xx_rcc.c **** 
 424:Libraries/STM32F4xx_StdPeriph_Driver/src/stm32f4xx_rcc.c ****   *(__IO uint32_t *) CSR_LSION_BB = (uint32_t)NewState;
 425:Libraries/STM32F4xx_StdPeriph_Driver/src/stm32f4xx_rcc.c **** }
 426:Libraries/STM32F4xx_StdPeriph_Driver/src/stm32f4xx_rcc.c **** 
 427:Libraries/STM32F4xx_StdPeriph_Driver/src/stm32f4xx_rcc.c **** #if defined(STM32F446xx)
 428:Libraries/STM32F4xx_StdPeriph_Driver/src/stm32f4xx_rcc.c **** /**
 429:Libraries/STM32F4xx_StdPeriph_Driver/src/stm32f4xx_rcc.c ****   * @brief  Configures the main PLL clock source, multiplication and division factors.
 430:Libraries/STM32F4xx_StdPeriph_Driver/src/stm32f4xx_rcc.c ****   * @note   This function must be used only when the main PLL is disabled.
 431:Libraries/STM32F4xx_StdPeriph_Driver/src/stm32f4xx_rcc.c ****   *  
 432:Libraries/STM32F4xx_StdPeriph_Driver/src/stm32f4xx_rcc.c ****   * @param  RCC_PLLSource: specifies the PLL entry clock source.
 433:Libraries/STM32F4xx_StdPeriph_Driver/src/stm32f4xx_rcc.c ****   *          This parameter can be one of the following values:
 434:Libraries/STM32F4xx_StdPeriph_Driver/src/stm32f4xx_rcc.c ****   *            @arg RCC_PLLSource_HSI: HSI oscillator clock selected as PLL clock entry
 435:Libraries/STM32F4xx_StdPeriph_Driver/src/stm32f4xx_rcc.c ****   *            @arg RCC_PLLSource_HSE: HSE oscillator clock selected as PLL clock entry
 436:Libraries/STM32F4xx_StdPeriph_Driver/src/stm32f4xx_rcc.c ****   * @note   This clock source (RCC_PLLSource) is common for the main PLL and PLLI2S.  
 437:Libraries/STM32F4xx_StdPeriph_Driver/src/stm32f4xx_rcc.c ****   *  
 438:Libraries/STM32F4xx_StdPeriph_Driver/src/stm32f4xx_rcc.c ****   * @param  PLLM: specifies the division factor for PLL VCO input clock
 439:Libraries/STM32F4xx_StdPeriph_Driver/src/stm32f4xx_rcc.c ****   *          This parameter must be a number between 0 and 63.
 440:Libraries/STM32F4xx_StdPeriph_Driver/src/stm32f4xx_rcc.c ****   * @note   You have to set the PLLM parameter correctly to ensure that the VCO input
 441:Libraries/STM32F4xx_StdPeriph_Driver/src/stm32f4xx_rcc.c ****   *         frequency ranges from 1 to 2 MHz. It is recommended to select a frequency
 442:Libraries/STM32F4xx_StdPeriph_Driver/src/stm32f4xx_rcc.c ****   *         of 2 MHz to limit PLL jitter.
 443:Libraries/STM32F4xx_StdPeriph_Driver/src/stm32f4xx_rcc.c ****   *  
 444:Libraries/STM32F4xx_StdPeriph_Driver/src/stm32f4xx_rcc.c ****   * @param  PLLN: specifies the multiplication factor for PLL VCO output clock
 445:Libraries/STM32F4xx_StdPeriph_Driver/src/stm32f4xx_rcc.c ****   *          This parameter must be a number between 192 and 432.
 446:Libraries/STM32F4xx_StdPeriph_Driver/src/stm32f4xx_rcc.c ****   * @note   You have to set the PLLN parameter correctly to ensure that the VCO
 447:Libraries/STM32F4xx_StdPeriph_Driver/src/stm32f4xx_rcc.c ****   *         output frequency is between 192 and 432 MHz.
 448:Libraries/STM32F4xx_StdPeriph_Driver/src/stm32f4xx_rcc.c ****   *   
 449:Libraries/STM32F4xx_StdPeriph_Driver/src/stm32f4xx_rcc.c ****   * @param  PLLP: specifies the division factor for main system clock (SYSCLK)
 450:Libraries/STM32F4xx_StdPeriph_Driver/src/stm32f4xx_rcc.c ****   *          This parameter must be a number in the range {2, 4, 6, or 8}.
 451:Libraries/STM32F4xx_StdPeriph_Driver/src/stm32f4xx_rcc.c ****   * @note   You have to set the PLLP parameter correctly to not exceed 168 MHz on
 452:Libraries/STM32F4xx_StdPeriph_Driver/src/stm32f4xx_rcc.c ****   *         the System clock frequency.
 453:Libraries/STM32F4xx_StdPeriph_Driver/src/stm32f4xx_rcc.c ****   *  
 454:Libraries/STM32F4xx_StdPeriph_Driver/src/stm32f4xx_rcc.c ****   * @param  PLLQ: specifies the division factor for OTG FS, SDIO and RNG clocks
 455:Libraries/STM32F4xx_StdPeriph_Driver/src/stm32f4xx_rcc.c ****   *          This parameter must be a number between 4 and 15.
 456:Libraries/STM32F4xx_StdPeriph_Driver/src/stm32f4xx_rcc.c ****   *
 457:Libraries/STM32F4xx_StdPeriph_Driver/src/stm32f4xx_rcc.c ****   * @param  PLLR: specifies the division factor for I2S, SAI, SYSTEM, SPDIF in STM32F446xx devices
 458:Libraries/STM32F4xx_StdPeriph_Driver/src/stm32f4xx_rcc.c ****   *          This parameter must be a number between 2 and 7.
 459:Libraries/STM32F4xx_StdPeriph_Driver/src/stm32f4xx_rcc.c ****   *
 460:Libraries/STM32F4xx_StdPeriph_Driver/src/stm32f4xx_rcc.c ****   * @note   If the USB OTG FS is used in your application, you have to set the
 461:Libraries/STM32F4xx_StdPeriph_Driver/src/stm32f4xx_rcc.c ****   *         PLLQ parameter correctly to have 48 MHz clock for the USB. However,
 462:Libraries/STM32F4xx_StdPeriph_Driver/src/stm32f4xx_rcc.c ****   *         the SDIO and RNG need a frequency lower than or equal to 48 MHz to work
 463:Libraries/STM32F4xx_StdPeriph_Driver/src/stm32f4xx_rcc.c ****   *         correctly.
 464:Libraries/STM32F4xx_StdPeriph_Driver/src/stm32f4xx_rcc.c ****   *   
 465:Libraries/STM32F4xx_StdPeriph_Driver/src/stm32f4xx_rcc.c ****   * @retval None
 466:Libraries/STM32F4xx_StdPeriph_Driver/src/stm32f4xx_rcc.c ****   */
 467:Libraries/STM32F4xx_StdPeriph_Driver/src/stm32f4xx_rcc.c **** void RCC_PLLConfig(uint32_t RCC_PLLSource, uint32_t PLLM, uint32_t PLLN, uint32_t PLLP, uint32_t PL
 468:Libraries/STM32F4xx_StdPeriph_Driver/src/stm32f4xx_rcc.c **** {
 469:Libraries/STM32F4xx_StdPeriph_Driver/src/stm32f4xx_rcc.c ****   /* Check the parameters */
 470:Libraries/STM32F4xx_StdPeriph_Driver/src/stm32f4xx_rcc.c ****   assert_param(IS_RCC_PLL_SOURCE(RCC_PLLSource));
 471:Libraries/STM32F4xx_StdPeriph_Driver/src/stm32f4xx_rcc.c ****   assert_param(IS_RCC_PLLM_VALUE(PLLM));
 472:Libraries/STM32F4xx_StdPeriph_Driver/src/stm32f4xx_rcc.c ****   assert_param(IS_RCC_PLLN_VALUE(PLLN));
 473:Libraries/STM32F4xx_StdPeriph_Driver/src/stm32f4xx_rcc.c ****   assert_param(IS_RCC_PLLP_VALUE(PLLP));
 474:Libraries/STM32F4xx_StdPeriph_Driver/src/stm32f4xx_rcc.c ****   assert_param(IS_RCC_PLLQ_VALUE(PLLQ));
 475:Libraries/STM32F4xx_StdPeriph_Driver/src/stm32f4xx_rcc.c ****   assert_param(IS_RCC_PLLR_VALUE(PLLR));
 476:Libraries/STM32F4xx_StdPeriph_Driver/src/stm32f4xx_rcc.c ****   
 477:Libraries/STM32F4xx_StdPeriph_Driver/src/stm32f4xx_rcc.c ****   RCC->PLLCFGR = PLLM | (PLLN << 6) | (((PLLP >> 1) -1) << 16) | (RCC_PLLSource) |
 478:Libraries/STM32F4xx_StdPeriph_Driver/src/stm32f4xx_rcc.c ****                  (PLLQ << 24) | (PLLR << 28);
 479:Libraries/STM32F4xx_StdPeriph_Driver/src/stm32f4xx_rcc.c **** }
 480:Libraries/STM32F4xx_StdPeriph_Driver/src/stm32f4xx_rcc.c **** #endif /* STM32F446xx */
 481:Libraries/STM32F4xx_StdPeriph_Driver/src/stm32f4xx_rcc.c **** 
 482:Libraries/STM32F4xx_StdPeriph_Driver/src/stm32f4xx_rcc.c **** #if defined(STM32F40_41xxx) || defined(STM32F427_437xx) || defined(STM32F429_439xx) || defined(STM3
 483:Libraries/STM32F4xx_StdPeriph_Driver/src/stm32f4xx_rcc.c **** /**
 484:Libraries/STM32F4xx_StdPeriph_Driver/src/stm32f4xx_rcc.c ****   * @brief  Configures the main PLL clock source, multiplication and division factors.
 485:Libraries/STM32F4xx_StdPeriph_Driver/src/stm32f4xx_rcc.c ****   * @note   This function must be used only when the main PLL is disabled.
 486:Libraries/STM32F4xx_StdPeriph_Driver/src/stm32f4xx_rcc.c ****   *  
 487:Libraries/STM32F4xx_StdPeriph_Driver/src/stm32f4xx_rcc.c ****   * @param  RCC_PLLSource: specifies the PLL entry clock source.
 488:Libraries/STM32F4xx_StdPeriph_Driver/src/stm32f4xx_rcc.c ****   *          This parameter can be one of the following values:
 489:Libraries/STM32F4xx_StdPeriph_Driver/src/stm32f4xx_rcc.c ****   *            @arg RCC_PLLSource_HSI: HSI oscillator clock selected as PLL clock entry
 490:Libraries/STM32F4xx_StdPeriph_Driver/src/stm32f4xx_rcc.c ****   *            @arg RCC_PLLSource_HSE: HSE oscillator clock selected as PLL clock entry
 491:Libraries/STM32F4xx_StdPeriph_Driver/src/stm32f4xx_rcc.c ****   * @note   This clock source (RCC_PLLSource) is common for the main PLL and PLLI2S.  
 492:Libraries/STM32F4xx_StdPeriph_Driver/src/stm32f4xx_rcc.c ****   *  
 493:Libraries/STM32F4xx_StdPeriph_Driver/src/stm32f4xx_rcc.c ****   * @param  PLLM: specifies the division factor for PLL VCO input clock
 494:Libraries/STM32F4xx_StdPeriph_Driver/src/stm32f4xx_rcc.c ****   *          This parameter must be a number between 0 and 63.
 495:Libraries/STM32F4xx_StdPeriph_Driver/src/stm32f4xx_rcc.c ****   * @note   You have to set the PLLM parameter correctly to ensure that the VCO input
 496:Libraries/STM32F4xx_StdPeriph_Driver/src/stm32f4xx_rcc.c ****   *         frequency ranges from 1 to 2 MHz. It is recommended to select a frequency
 497:Libraries/STM32F4xx_StdPeriph_Driver/src/stm32f4xx_rcc.c ****   *         of 2 MHz to limit PLL jitter.
 498:Libraries/STM32F4xx_StdPeriph_Driver/src/stm32f4xx_rcc.c ****   *  
 499:Libraries/STM32F4xx_StdPeriph_Driver/src/stm32f4xx_rcc.c ****   * @param  PLLN: specifies the multiplication factor for PLL VCO output clock
 500:Libraries/STM32F4xx_StdPeriph_Driver/src/stm32f4xx_rcc.c ****   *          This parameter must be a number between 192 and 432.
 501:Libraries/STM32F4xx_StdPeriph_Driver/src/stm32f4xx_rcc.c ****   * @note   You have to set the PLLN parameter correctly to ensure that the VCO
 502:Libraries/STM32F4xx_StdPeriph_Driver/src/stm32f4xx_rcc.c ****   *         output frequency is between 192 and 432 MHz.
 503:Libraries/STM32F4xx_StdPeriph_Driver/src/stm32f4xx_rcc.c ****   *   
 504:Libraries/STM32F4xx_StdPeriph_Driver/src/stm32f4xx_rcc.c ****   * @param  PLLP: specifies the division factor for main system clock (SYSCLK)
 505:Libraries/STM32F4xx_StdPeriph_Driver/src/stm32f4xx_rcc.c ****   *          This parameter must be a number in the range {2, 4, 6, or 8}.
 506:Libraries/STM32F4xx_StdPeriph_Driver/src/stm32f4xx_rcc.c ****   * @note   You have to set the PLLP parameter correctly to not exceed 168 MHz on
 507:Libraries/STM32F4xx_StdPeriph_Driver/src/stm32f4xx_rcc.c ****   *         the System clock frequency.
 508:Libraries/STM32F4xx_StdPeriph_Driver/src/stm32f4xx_rcc.c ****   *  
 509:Libraries/STM32F4xx_StdPeriph_Driver/src/stm32f4xx_rcc.c ****   * @param  PLLQ: specifies the division factor for OTG FS, SDIO and RNG clocks
 510:Libraries/STM32F4xx_StdPeriph_Driver/src/stm32f4xx_rcc.c ****   *          This parameter must be a number between 4 and 15.
 511:Libraries/STM32F4xx_StdPeriph_Driver/src/stm32f4xx_rcc.c ****   * @note   If the USB OTG FS is used in your application, you have to set the
 512:Libraries/STM32F4xx_StdPeriph_Driver/src/stm32f4xx_rcc.c ****   *         PLLQ parameter correctly to have 48 MHz clock for the USB. However,
 513:Libraries/STM32F4xx_StdPeriph_Driver/src/stm32f4xx_rcc.c ****   *         the SDIO and RNG need a frequency lower than or equal to 48 MHz to work
 514:Libraries/STM32F4xx_StdPeriph_Driver/src/stm32f4xx_rcc.c ****   *         correctly.
 515:Libraries/STM32F4xx_StdPeriph_Driver/src/stm32f4xx_rcc.c ****   *   
 516:Libraries/STM32F4xx_StdPeriph_Driver/src/stm32f4xx_rcc.c ****   * @retval None
 517:Libraries/STM32F4xx_StdPeriph_Driver/src/stm32f4xx_rcc.c ****   */
 518:Libraries/STM32F4xx_StdPeriph_Driver/src/stm32f4xx_rcc.c **** void RCC_PLLConfig(uint32_t RCC_PLLSource, uint32_t PLLM, uint32_t PLLN, uint32_t PLLP, uint32_t PL
 519:Libraries/STM32F4xx_StdPeriph_Driver/src/stm32f4xx_rcc.c **** {
 520:Libraries/STM32F4xx_StdPeriph_Driver/src/stm32f4xx_rcc.c ****   /* Check the parameters */
 521:Libraries/STM32F4xx_StdPeriph_Driver/src/stm32f4xx_rcc.c ****   assert_param(IS_RCC_PLL_SOURCE(RCC_PLLSource));
 522:Libraries/STM32F4xx_StdPeriph_Driver/src/stm32f4xx_rcc.c ****   assert_param(IS_RCC_PLLM_VALUE(PLLM));
 523:Libraries/STM32F4xx_StdPeriph_Driver/src/stm32f4xx_rcc.c ****   assert_param(IS_RCC_PLLN_VALUE(PLLN));
 524:Libraries/STM32F4xx_StdPeriph_Driver/src/stm32f4xx_rcc.c ****   assert_param(IS_RCC_PLLP_VALUE(PLLP));
 525:Libraries/STM32F4xx_StdPeriph_Driver/src/stm32f4xx_rcc.c ****   assert_param(IS_RCC_PLLQ_VALUE(PLLQ));
 526:Libraries/STM32F4xx_StdPeriph_Driver/src/stm32f4xx_rcc.c **** 
 527:Libraries/STM32F4xx_StdPeriph_Driver/src/stm32f4xx_rcc.c ****   RCC->PLLCFGR = PLLM | (PLLN << 6) | (((PLLP >> 1) -1) << 16) | (RCC_PLLSource) |
 528:Libraries/STM32F4xx_StdPeriph_Driver/src/stm32f4xx_rcc.c ****                  (PLLQ << 24);
 529:Libraries/STM32F4xx_StdPeriph_Driver/src/stm32f4xx_rcc.c **** }
 530:Libraries/STM32F4xx_StdPeriph_Driver/src/stm32f4xx_rcc.c **** #endif /* STM32F40_41xxx || STM32F427_437xx || STM32F429_439xx || STM32F401xx || STM32F411xE */
 531:Libraries/STM32F4xx_StdPeriph_Driver/src/stm32f4xx_rcc.c **** 
 532:Libraries/STM32F4xx_StdPeriph_Driver/src/stm32f4xx_rcc.c **** /**
 533:Libraries/STM32F4xx_StdPeriph_Driver/src/stm32f4xx_rcc.c ****   * @brief  Enables or disables the main PLL.
 534:Libraries/STM32F4xx_StdPeriph_Driver/src/stm32f4xx_rcc.c ****   * @note   After enabling the main PLL, the application software should wait on 
 535:Libraries/STM32F4xx_StdPeriph_Driver/src/stm32f4xx_rcc.c ****   *         PLLRDY flag to be set indicating that PLL clock is stable and can
 536:Libraries/STM32F4xx_StdPeriph_Driver/src/stm32f4xx_rcc.c ****   *         be used as system clock source.
 537:Libraries/STM32F4xx_StdPeriph_Driver/src/stm32f4xx_rcc.c ****   * @note   The main PLL can not be disabled if it is used as system clock source
 538:Libraries/STM32F4xx_StdPeriph_Driver/src/stm32f4xx_rcc.c ****   * @note   The main PLL is disabled by hardware when entering STOP and STANDBY modes.
 539:Libraries/STM32F4xx_StdPeriph_Driver/src/stm32f4xx_rcc.c ****   * @param  NewState: new state of the main PLL. This parameter can be: ENABLE or DISABLE.
 540:Libraries/STM32F4xx_StdPeriph_Driver/src/stm32f4xx_rcc.c ****   * @retval None
 541:Libraries/STM32F4xx_StdPeriph_Driver/src/stm32f4xx_rcc.c ****   */
 542:Libraries/STM32F4xx_StdPeriph_Driver/src/stm32f4xx_rcc.c **** void RCC_PLLCmd(FunctionalState NewState)
 543:Libraries/STM32F4xx_StdPeriph_Driver/src/stm32f4xx_rcc.c **** {
 544:Libraries/STM32F4xx_StdPeriph_Driver/src/stm32f4xx_rcc.c ****   /* Check the parameters */
 545:Libraries/STM32F4xx_StdPeriph_Driver/src/stm32f4xx_rcc.c ****   assert_param(IS_FUNCTIONAL_STATE(NewState));
 546:Libraries/STM32F4xx_StdPeriph_Driver/src/stm32f4xx_rcc.c ****   *(__IO uint32_t *) CR_PLLON_BB = (uint32_t)NewState;
 547:Libraries/STM32F4xx_StdPeriph_Driver/src/stm32f4xx_rcc.c **** }
 548:Libraries/STM32F4xx_StdPeriph_Driver/src/stm32f4xx_rcc.c **** 
 549:Libraries/STM32F4xx_StdPeriph_Driver/src/stm32f4xx_rcc.c **** #if defined(STM32F40_41xxx) || defined(STM32F401xx)
 550:Libraries/STM32F4xx_StdPeriph_Driver/src/stm32f4xx_rcc.c **** /**
 551:Libraries/STM32F4xx_StdPeriph_Driver/src/stm32f4xx_rcc.c ****   * @brief  Configures the PLLI2S clock multiplication and division factors.
 552:Libraries/STM32F4xx_StdPeriph_Driver/src/stm32f4xx_rcc.c ****   *  
 553:Libraries/STM32F4xx_StdPeriph_Driver/src/stm32f4xx_rcc.c ****   * @note   This function can be used only for STM32F405xx/407xx, STM32F415xx/417xx 
 554:Libraries/STM32F4xx_StdPeriph_Driver/src/stm32f4xx_rcc.c ****   *         or STM32F401xx devices. 
 555:Libraries/STM32F4xx_StdPeriph_Driver/src/stm32f4xx_rcc.c ****   *    
 556:Libraries/STM32F4xx_StdPeriph_Driver/src/stm32f4xx_rcc.c ****   * @note   This function must be used only when the PLLI2S is disabled.
 557:Libraries/STM32F4xx_StdPeriph_Driver/src/stm32f4xx_rcc.c ****   * @note   PLLI2S clock source is common with the main PLL (configured in 
 558:Libraries/STM32F4xx_StdPeriph_Driver/src/stm32f4xx_rcc.c ****   *         RCC_PLLConfig function )  
 559:Libraries/STM32F4xx_StdPeriph_Driver/src/stm32f4xx_rcc.c ****   *             
 560:Libraries/STM32F4xx_StdPeriph_Driver/src/stm32f4xx_rcc.c ****   * @param  PLLI2SN: specifies the multiplication factor for PLLI2S VCO output clock
 561:Libraries/STM32F4xx_StdPeriph_Driver/src/stm32f4xx_rcc.c ****   *          This parameter must be a number between 192 and 432.
 562:Libraries/STM32F4xx_StdPeriph_Driver/src/stm32f4xx_rcc.c ****   * @note   You have to set the PLLI2SN parameter correctly to ensure that the VCO 
 563:Libraries/STM32F4xx_StdPeriph_Driver/src/stm32f4xx_rcc.c ****   *         output frequency is between 192 and 432 MHz.
 564:Libraries/STM32F4xx_StdPeriph_Driver/src/stm32f4xx_rcc.c ****   *    
 565:Libraries/STM32F4xx_StdPeriph_Driver/src/stm32f4xx_rcc.c ****   * @param  PLLI2SR: specifies the division factor for I2S clock
 566:Libraries/STM32F4xx_StdPeriph_Driver/src/stm32f4xx_rcc.c ****   *          This parameter must be a number between 2 and 7.
 567:Libraries/STM32F4xx_StdPeriph_Driver/src/stm32f4xx_rcc.c ****   * @note   You have to set the PLLI2SR parameter correctly to not exceed 192 MHz
 568:Libraries/STM32F4xx_StdPeriph_Driver/src/stm32f4xx_rcc.c ****   *         on the I2S clock frequency.
 569:Libraries/STM32F4xx_StdPeriph_Driver/src/stm32f4xx_rcc.c ****   *   
 570:Libraries/STM32F4xx_StdPeriph_Driver/src/stm32f4xx_rcc.c ****   * @retval None
 571:Libraries/STM32F4xx_StdPeriph_Driver/src/stm32f4xx_rcc.c ****   */
 572:Libraries/STM32F4xx_StdPeriph_Driver/src/stm32f4xx_rcc.c **** void RCC_PLLI2SConfig(uint32_t PLLI2SN, uint32_t PLLI2SR)
 573:Libraries/STM32F4xx_StdPeriph_Driver/src/stm32f4xx_rcc.c **** {
 574:Libraries/STM32F4xx_StdPeriph_Driver/src/stm32f4xx_rcc.c ****   /* Check the parameters */
 575:Libraries/STM32F4xx_StdPeriph_Driver/src/stm32f4xx_rcc.c ****   assert_param(IS_RCC_PLLI2SN_VALUE(PLLI2SN));
 576:Libraries/STM32F4xx_StdPeriph_Driver/src/stm32f4xx_rcc.c ****   assert_param(IS_RCC_PLLI2SR_VALUE(PLLI2SR));
 577:Libraries/STM32F4xx_StdPeriph_Driver/src/stm32f4xx_rcc.c **** 
 578:Libraries/STM32F4xx_StdPeriph_Driver/src/stm32f4xx_rcc.c ****   RCC->PLLI2SCFGR = (PLLI2SN << 6) | (PLLI2SR << 28);
 579:Libraries/STM32F4xx_StdPeriph_Driver/src/stm32f4xx_rcc.c **** }
 580:Libraries/STM32F4xx_StdPeriph_Driver/src/stm32f4xx_rcc.c **** #endif /* STM32F40_41xxx || STM32F401xx */
 581:Libraries/STM32F4xx_StdPeriph_Driver/src/stm32f4xx_rcc.c **** 
 582:Libraries/STM32F4xx_StdPeriph_Driver/src/stm32f4xx_rcc.c **** #if defined(STM32F411xE)
 583:Libraries/STM32F4xx_StdPeriph_Driver/src/stm32f4xx_rcc.c **** /**
 584:Libraries/STM32F4xx_StdPeriph_Driver/src/stm32f4xx_rcc.c ****   * @brief  Configures the PLLI2S clock multiplication and division factors.
 585:Libraries/STM32F4xx_StdPeriph_Driver/src/stm32f4xx_rcc.c ****   *  
 586:Libraries/STM32F4xx_StdPeriph_Driver/src/stm32f4xx_rcc.c ****   * @note   This function can be used only for STM32F411xE devices. 
 587:Libraries/STM32F4xx_StdPeriph_Driver/src/stm32f4xx_rcc.c ****   *    
 588:Libraries/STM32F4xx_StdPeriph_Driver/src/stm32f4xx_rcc.c ****   * @note   This function must be used only when the PLLI2S is disabled.
 589:Libraries/STM32F4xx_StdPeriph_Driver/src/stm32f4xx_rcc.c ****   * @note   PLLI2S clock source is common with the main PLL (configured in 
 590:Libraries/STM32F4xx_StdPeriph_Driver/src/stm32f4xx_rcc.c ****   *         RCC_PLLConfig function )  
 591:Libraries/STM32F4xx_StdPeriph_Driver/src/stm32f4xx_rcc.c ****   *
 592:Libraries/STM32F4xx_StdPeriph_Driver/src/stm32f4xx_rcc.c ****   * @param  PLLI2SM: specifies the division factor for PLLI2S VCO input clock
 593:Libraries/STM32F4xx_StdPeriph_Driver/src/stm32f4xx_rcc.c ****   *         This parameter must be a number between Min_Data = 2 and Max_Data = 63.
 594:Libraries/STM32F4xx_StdPeriph_Driver/src/stm32f4xx_rcc.c ****   * @note   You have to set the PLLI2SM parameter correctly to ensure that the VCO input
 595:Libraries/STM32F4xx_StdPeriph_Driver/src/stm32f4xx_rcc.c ****   *         frequency ranges from 1 to 2 MHz. It is recommended to select a frequency
 596:Libraries/STM32F4xx_StdPeriph_Driver/src/stm32f4xx_rcc.c ****   *         of 2 MHz to limit PLLI2S jitter.
 597:Libraries/STM32F4xx_StdPeriph_Driver/src/stm32f4xx_rcc.c ****   *
 598:Libraries/STM32F4xx_StdPeriph_Driver/src/stm32f4xx_rcc.c ****   * @param  PLLI2SN: specifies the multiplication factor for PLLI2S VCO output clock
 599:Libraries/STM32F4xx_StdPeriph_Driver/src/stm32f4xx_rcc.c ****   *          This parameter must be a number between 192 and 432.
 600:Libraries/STM32F4xx_StdPeriph_Driver/src/stm32f4xx_rcc.c ****   * @note   You have to set the PLLI2SN parameter correctly to ensure that the VCO 
 601:Libraries/STM32F4xx_StdPeriph_Driver/src/stm32f4xx_rcc.c ****   *         output frequency is between 192 and 432 MHz.
 602:Libraries/STM32F4xx_StdPeriph_Driver/src/stm32f4xx_rcc.c ****   *    
 603:Libraries/STM32F4xx_StdPeriph_Driver/src/stm32f4xx_rcc.c ****   * @param  PLLI2SR: specifies the division factor for I2S clock
 604:Libraries/STM32F4xx_StdPeriph_Driver/src/stm32f4xx_rcc.c ****   *          This parameter must be a number between 2 and 7.
 605:Libraries/STM32F4xx_StdPeriph_Driver/src/stm32f4xx_rcc.c ****   * @note   You have to set the PLLI2SR parameter correctly to not exceed 192 MHz
 606:Libraries/STM32F4xx_StdPeriph_Driver/src/stm32f4xx_rcc.c ****   *         on the I2S clock frequency.
 607:Libraries/STM32F4xx_StdPeriph_Driver/src/stm32f4xx_rcc.c ****   *   
 608:Libraries/STM32F4xx_StdPeriph_Driver/src/stm32f4xx_rcc.c ****   * @retval None
 609:Libraries/STM32F4xx_StdPeriph_Driver/src/stm32f4xx_rcc.c ****   */
 610:Libraries/STM32F4xx_StdPeriph_Driver/src/stm32f4xx_rcc.c **** void RCC_PLLI2SConfig(uint32_t PLLI2SN, uint32_t PLLI2SR, uint32_t PLLI2SM)
 611:Libraries/STM32F4xx_StdPeriph_Driver/src/stm32f4xx_rcc.c **** {
 612:Libraries/STM32F4xx_StdPeriph_Driver/src/stm32f4xx_rcc.c ****   /* Check the parameters */
 613:Libraries/STM32F4xx_StdPeriph_Driver/src/stm32f4xx_rcc.c ****   assert_param(IS_RCC_PLLI2SN_VALUE(PLLI2SN));
 614:Libraries/STM32F4xx_StdPeriph_Driver/src/stm32f4xx_rcc.c ****   assert_param(IS_RCC_PLLI2SM_VALUE(PLLI2SM));
 615:Libraries/STM32F4xx_StdPeriph_Driver/src/stm32f4xx_rcc.c ****   assert_param(IS_RCC_PLLI2SR_VALUE(PLLI2SR));
 616:Libraries/STM32F4xx_StdPeriph_Driver/src/stm32f4xx_rcc.c **** 
 617:Libraries/STM32F4xx_StdPeriph_Driver/src/stm32f4xx_rcc.c ****   RCC->PLLI2SCFGR = (PLLI2SN << 6) | (PLLI2SR << 28) | PLLI2SM;
 618:Libraries/STM32F4xx_StdPeriph_Driver/src/stm32f4xx_rcc.c **** }
 619:Libraries/STM32F4xx_StdPeriph_Driver/src/stm32f4xx_rcc.c **** #endif /* STM32F411xE */
 620:Libraries/STM32F4xx_StdPeriph_Driver/src/stm32f4xx_rcc.c **** 
 621:Libraries/STM32F4xx_StdPeriph_Driver/src/stm32f4xx_rcc.c **** #if defined(STM32F427_437xx) || defined(STM32F429_439xx)
 622:Libraries/STM32F4xx_StdPeriph_Driver/src/stm32f4xx_rcc.c **** /**
 623:Libraries/STM32F4xx_StdPeriph_Driver/src/stm32f4xx_rcc.c ****   * @brief  Configures the PLLI2S clock multiplication and division factors.
 624:Libraries/STM32F4xx_StdPeriph_Driver/src/stm32f4xx_rcc.c ****   * 
 625:Libraries/STM32F4xx_StdPeriph_Driver/src/stm32f4xx_rcc.c ****   * @note   This function can be used only for STM32F42xxx/43xxx devices 
 626:Libraries/STM32F4xx_StdPeriph_Driver/src/stm32f4xx_rcc.c ****   *         
 627:Libraries/STM32F4xx_StdPeriph_Driver/src/stm32f4xx_rcc.c ****   * @note   This function must be used only when the PLLI2S is disabled.
 628:Libraries/STM32F4xx_StdPeriph_Driver/src/stm32f4xx_rcc.c ****   * @note   PLLI2S clock source is common with the main PLL (configured in 
 629:Libraries/STM32F4xx_StdPeriph_Driver/src/stm32f4xx_rcc.c ****   *         RCC_PLLConfig function )  
 630:Libraries/STM32F4xx_StdPeriph_Driver/src/stm32f4xx_rcc.c ****   *             
 631:Libraries/STM32F4xx_StdPeriph_Driver/src/stm32f4xx_rcc.c ****   * @param  PLLI2SN: specifies the multiplication factor for PLLI2S VCO output clock
 632:Libraries/STM32F4xx_StdPeriph_Driver/src/stm32f4xx_rcc.c ****   *          This parameter must be a number between 192 and 432.
 633:Libraries/STM32F4xx_StdPeriph_Driver/src/stm32f4xx_rcc.c ****   * @note   You have to set the PLLI2SN parameter correctly to ensure that the VCO 
 634:Libraries/STM32F4xx_StdPeriph_Driver/src/stm32f4xx_rcc.c ****   *         output frequency is between 192 and 432 MHz.
 635:Libraries/STM32F4xx_StdPeriph_Driver/src/stm32f4xx_rcc.c ****   * 
 636:Libraries/STM32F4xx_StdPeriph_Driver/src/stm32f4xx_rcc.c ****   * @param  PLLI2SQ: specifies the division factor for SAI1 clock
 637:Libraries/STM32F4xx_StdPeriph_Driver/src/stm32f4xx_rcc.c ****   *          This parameter must be a number between 2 and 15.
 638:Libraries/STM32F4xx_StdPeriph_Driver/src/stm32f4xx_rcc.c ****   *                 
 639:Libraries/STM32F4xx_StdPeriph_Driver/src/stm32f4xx_rcc.c ****   * @param  PLLI2SR: specifies the division factor for I2S clock
 640:Libraries/STM32F4xx_StdPeriph_Driver/src/stm32f4xx_rcc.c ****   *          This parameter must be a number between 2 and 7.
 641:Libraries/STM32F4xx_StdPeriph_Driver/src/stm32f4xx_rcc.c ****   * @note   You have to set the PLLI2SR parameter correctly to not exceed 192 MHz
 642:Libraries/STM32F4xx_StdPeriph_Driver/src/stm32f4xx_rcc.c ****   *         on the I2S clock frequency.
 643:Libraries/STM32F4xx_StdPeriph_Driver/src/stm32f4xx_rcc.c ****   *   
 644:Libraries/STM32F4xx_StdPeriph_Driver/src/stm32f4xx_rcc.c ****   * @retval None
 645:Libraries/STM32F4xx_StdPeriph_Driver/src/stm32f4xx_rcc.c ****   */
 646:Libraries/STM32F4xx_StdPeriph_Driver/src/stm32f4xx_rcc.c **** void RCC_PLLI2SConfig(uint32_t PLLI2SN, uint32_t PLLI2SQ, uint32_t PLLI2SR)
 647:Libraries/STM32F4xx_StdPeriph_Driver/src/stm32f4xx_rcc.c **** {
 648:Libraries/STM32F4xx_StdPeriph_Driver/src/stm32f4xx_rcc.c ****   /* Check the parameters */
 649:Libraries/STM32F4xx_StdPeriph_Driver/src/stm32f4xx_rcc.c ****   assert_param(IS_RCC_PLLI2SN_VALUE(PLLI2SN));
 650:Libraries/STM32F4xx_StdPeriph_Driver/src/stm32f4xx_rcc.c ****   assert_param(IS_RCC_PLLI2SQ_VALUE(PLLI2SQ));
 651:Libraries/STM32F4xx_StdPeriph_Driver/src/stm32f4xx_rcc.c ****   assert_param(IS_RCC_PLLI2SR_VALUE(PLLI2SR));
 652:Libraries/STM32F4xx_StdPeriph_Driver/src/stm32f4xx_rcc.c **** 
 653:Libraries/STM32F4xx_StdPeriph_Driver/src/stm32f4xx_rcc.c ****   RCC->PLLI2SCFGR = (PLLI2SN << 6) | (PLLI2SQ << 24) | (PLLI2SR << 28);
 654:Libraries/STM32F4xx_StdPeriph_Driver/src/stm32f4xx_rcc.c **** }
 655:Libraries/STM32F4xx_StdPeriph_Driver/src/stm32f4xx_rcc.c **** #endif /* STM32F427_437xx || STM32F429_439xx */
 656:Libraries/STM32F4xx_StdPeriph_Driver/src/stm32f4xx_rcc.c **** 
 657:Libraries/STM32F4xx_StdPeriph_Driver/src/stm32f4xx_rcc.c **** #if defined(STM32F446xx)
 658:Libraries/STM32F4xx_StdPeriph_Driver/src/stm32f4xx_rcc.c **** /**
 659:Libraries/STM32F4xx_StdPeriph_Driver/src/stm32f4xx_rcc.c ****   * @brief  Configures the PLLI2S clock multiplication and division factors.
 660:Libraries/STM32F4xx_StdPeriph_Driver/src/stm32f4xx_rcc.c ****   * 
 661:Libraries/STM32F4xx_StdPeriph_Driver/src/stm32f4xx_rcc.c ****   * @note   This function can be used only for STM32F446xx devices 
 662:Libraries/STM32F4xx_StdPeriph_Driver/src/stm32f4xx_rcc.c ****   *         
 663:Libraries/STM32F4xx_StdPeriph_Driver/src/stm32f4xx_rcc.c ****   * @note   This function must be used only when the PLLI2S is disabled.
 664:Libraries/STM32F4xx_StdPeriph_Driver/src/stm32f4xx_rcc.c ****   * @note   PLLI2S clock source is common with the main PLL (configured in 
 665:Libraries/STM32F4xx_StdPeriph_Driver/src/stm32f4xx_rcc.c ****   *         RCC_PLLConfig function )  
 666:Libraries/STM32F4xx_StdPeriph_Driver/src/stm32f4xx_rcc.c ****   * 
 667:Libraries/STM32F4xx_StdPeriph_Driver/src/stm32f4xx_rcc.c ****   * @param  PLLI2SM: specifies the division factor for PLLI2S VCO input clock
 668:Libraries/STM32F4xx_StdPeriph_Driver/src/stm32f4xx_rcc.c ****   *         This parameter must be a number between Min_Data = 2 and Max_Data = 63.
 669:Libraries/STM32F4xx_StdPeriph_Driver/src/stm32f4xx_rcc.c ****   * @note   You have to set the PLLI2SM parameter correctly to ensure that the VCO input
 670:Libraries/STM32F4xx_StdPeriph_Driver/src/stm32f4xx_rcc.c ****   *         frequency ranges from 1 to 2 MHz. It is recommended to select a frequency
 671:Libraries/STM32F4xx_StdPeriph_Driver/src/stm32f4xx_rcc.c ****   *         of 2 MHz to limit PLLI2S jitter.
 672:Libraries/STM32F4xx_StdPeriph_Driver/src/stm32f4xx_rcc.c ****   *
 673:Libraries/STM32F4xx_StdPeriph_Driver/src/stm32f4xx_rcc.c ****   * @param  PLLI2SN: specifies the multiplication factor for PLLI2S VCO output clock
 674:Libraries/STM32F4xx_StdPeriph_Driver/src/stm32f4xx_rcc.c ****   *          This parameter must be a number between 192 and 432.
 675:Libraries/STM32F4xx_StdPeriph_Driver/src/stm32f4xx_rcc.c ****   * @note   You have to set the PLLI2SN parameter correctly to ensure that the VCO 
 676:Libraries/STM32F4xx_StdPeriph_Driver/src/stm32f4xx_rcc.c ****   *         output frequency is between 192 and 432 MHz.
 677:Libraries/STM32F4xx_StdPeriph_Driver/src/stm32f4xx_rcc.c ****   *
 678:Libraries/STM32F4xx_StdPeriph_Driver/src/stm32f4xx_rcc.c ****   * @param  PLLI2SP: specifies the division factor for PLL 48Mhz clock output
 679:Libraries/STM32F4xx_StdPeriph_Driver/src/stm32f4xx_rcc.c ****   *          This parameter must be a number in the range {2, 4, 6, or 8}.
 680:Libraries/STM32F4xx_StdPeriph_Driver/src/stm32f4xx_rcc.c ****   *
 681:Libraries/STM32F4xx_StdPeriph_Driver/src/stm32f4xx_rcc.c ****   * @param  PLLI2SQ: specifies the division factor for SAI1 clock
 682:Libraries/STM32F4xx_StdPeriph_Driver/src/stm32f4xx_rcc.c ****   *          This parameter must be a number between 2 and 15.
 683:Libraries/STM32F4xx_StdPeriph_Driver/src/stm32f4xx_rcc.c ****   *                 
 684:Libraries/STM32F4xx_StdPeriph_Driver/src/stm32f4xx_rcc.c ****   * @param  PLLI2SR: specifies the division factor for I2S clock
 685:Libraries/STM32F4xx_StdPeriph_Driver/src/stm32f4xx_rcc.c ****   *          This parameter must be a number between 2 and 7.
 686:Libraries/STM32F4xx_StdPeriph_Driver/src/stm32f4xx_rcc.c ****   * @note   You have to set the PLLI2SR parameter correctly to not exceed 192 MHz
 687:Libraries/STM32F4xx_StdPeriph_Driver/src/stm32f4xx_rcc.c ****   *         on the I2S clock frequency.
 688:Libraries/STM32F4xx_StdPeriph_Driver/src/stm32f4xx_rcc.c ****   * @note   the PLLI2SR parameter is only available with STM32F42xxx/43xxx devices.  
 689:Libraries/STM32F4xx_StdPeriph_Driver/src/stm32f4xx_rcc.c ****   *   
 690:Libraries/STM32F4xx_StdPeriph_Driver/src/stm32f4xx_rcc.c ****   * @retval None
 691:Libraries/STM32F4xx_StdPeriph_Driver/src/stm32f4xx_rcc.c ****   */
 692:Libraries/STM32F4xx_StdPeriph_Driver/src/stm32f4xx_rcc.c **** void RCC_PLLI2SConfig(uint32_t PLLI2SM, uint32_t PLLI2SN, uint32_t PLLI2SP, uint32_t PLLI2SQ, uint3
 693:Libraries/STM32F4xx_StdPeriph_Driver/src/stm32f4xx_rcc.c **** {
 694:Libraries/STM32F4xx_StdPeriph_Driver/src/stm32f4xx_rcc.c ****   /* Check the parameters */
 695:Libraries/STM32F4xx_StdPeriph_Driver/src/stm32f4xx_rcc.c ****   assert_param(IS_RCC_PLLI2SM_VALUE(PLLI2SM));
 696:Libraries/STM32F4xx_StdPeriph_Driver/src/stm32f4xx_rcc.c ****   assert_param(IS_RCC_PLLI2SN_VALUE(PLLI2SN));
 697:Libraries/STM32F4xx_StdPeriph_Driver/src/stm32f4xx_rcc.c ****   assert_param(IS_RCC_PLLI2SP_VALUE(PLLI2SP));
 698:Libraries/STM32F4xx_StdPeriph_Driver/src/stm32f4xx_rcc.c ****   assert_param(IS_RCC_PLLI2SQ_VALUE(PLLI2SQ));
 699:Libraries/STM32F4xx_StdPeriph_Driver/src/stm32f4xx_rcc.c ****   assert_param(IS_RCC_PLLI2SR_VALUE(PLLI2SR));
 700:Libraries/STM32F4xx_StdPeriph_Driver/src/stm32f4xx_rcc.c **** 
 701:Libraries/STM32F4xx_StdPeriph_Driver/src/stm32f4xx_rcc.c ****   RCC->PLLI2SCFGR =  PLLI2SM | (PLLI2SN << 6) | (((PLLI2SP >> 1) -1) << 16) | (PLLI2SQ << 24) | (PL
 702:Libraries/STM32F4xx_StdPeriph_Driver/src/stm32f4xx_rcc.c **** }
 703:Libraries/STM32F4xx_StdPeriph_Driver/src/stm32f4xx_rcc.c **** #endif /* STM32F446xx */
 704:Libraries/STM32F4xx_StdPeriph_Driver/src/stm32f4xx_rcc.c **** 
 705:Libraries/STM32F4xx_StdPeriph_Driver/src/stm32f4xx_rcc.c **** /**
 706:Libraries/STM32F4xx_StdPeriph_Driver/src/stm32f4xx_rcc.c ****   * @brief  Enables or disables the PLLI2S. 
 707:Libraries/STM32F4xx_StdPeriph_Driver/src/stm32f4xx_rcc.c ****   * @note   The PLLI2S is disabled by hardware when entering STOP and STANDBY modes.  
 708:Libraries/STM32F4xx_StdPeriph_Driver/src/stm32f4xx_rcc.c ****   * @param  NewState: new state of the PLLI2S. This parameter can be: ENABLE or DISABLE.
 709:Libraries/STM32F4xx_StdPeriph_Driver/src/stm32f4xx_rcc.c ****   * @retval None
 710:Libraries/STM32F4xx_StdPeriph_Driver/src/stm32f4xx_rcc.c ****   */
 711:Libraries/STM32F4xx_StdPeriph_Driver/src/stm32f4xx_rcc.c **** void RCC_PLLI2SCmd(FunctionalState NewState)
 712:Libraries/STM32F4xx_StdPeriph_Driver/src/stm32f4xx_rcc.c **** {
 713:Libraries/STM32F4xx_StdPeriph_Driver/src/stm32f4xx_rcc.c ****   /* Check the parameters */
 714:Libraries/STM32F4xx_StdPeriph_Driver/src/stm32f4xx_rcc.c ****   assert_param(IS_FUNCTIONAL_STATE(NewState));
 715:Libraries/STM32F4xx_StdPeriph_Driver/src/stm32f4xx_rcc.c ****   *(__IO uint32_t *) CR_PLLI2SON_BB = (uint32_t)NewState;
 716:Libraries/STM32F4xx_StdPeriph_Driver/src/stm32f4xx_rcc.c **** }
 717:Libraries/STM32F4xx_StdPeriph_Driver/src/stm32f4xx_rcc.c **** 
 718:Libraries/STM32F4xx_StdPeriph_Driver/src/stm32f4xx_rcc.c **** #if defined(STM32F446xx)
 719:Libraries/STM32F4xx_StdPeriph_Driver/src/stm32f4xx_rcc.c **** /**
 720:Libraries/STM32F4xx_StdPeriph_Driver/src/stm32f4xx_rcc.c ****   * @brief  Configures the PLLSAI clock multiplication and division factors.
 721:Libraries/STM32F4xx_StdPeriph_Driver/src/stm32f4xx_rcc.c ****   *
 722:Libraries/STM32F4xx_StdPeriph_Driver/src/stm32f4xx_rcc.c ****   * @note   This function can be used only for STM32F446xx devices 
 723:Libraries/STM32F4xx_StdPeriph_Driver/src/stm32f4xx_rcc.c ****   *        
 724:Libraries/STM32F4xx_StdPeriph_Driver/src/stm32f4xx_rcc.c ****   * @note   This function must be used only when the PLLSAI is disabled.
 725:Libraries/STM32F4xx_StdPeriph_Driver/src/stm32f4xx_rcc.c ****   * @note   PLLSAI clock source is common with the main PLL (configured in 
 726:Libraries/STM32F4xx_StdPeriph_Driver/src/stm32f4xx_rcc.c ****   *         RCC_PLLConfig function )  
 727:Libraries/STM32F4xx_StdPeriph_Driver/src/stm32f4xx_rcc.c ****   * 
 728:Libraries/STM32F4xx_StdPeriph_Driver/src/stm32f4xx_rcc.c ****   * @param  PLLSAIM: specifies the division factor for PLLSAI VCO input clock
 729:Libraries/STM32F4xx_StdPeriph_Driver/src/stm32f4xx_rcc.c ****   *         This parameter must be a number between Min_Data = 2 and Max_Data = 63.
 730:Libraries/STM32F4xx_StdPeriph_Driver/src/stm32f4xx_rcc.c ****   * @note   You have to set the PLLSAIM parameter correctly to ensure that the VCO input
 731:Libraries/STM32F4xx_StdPeriph_Driver/src/stm32f4xx_rcc.c ****   *         frequency ranges from 1 to 2 MHz. It is recommended to select a frequency
 732:Libraries/STM32F4xx_StdPeriph_Driver/src/stm32f4xx_rcc.c ****   *         of 2 MHz to limit PLLSAI jitter.
 733:Libraries/STM32F4xx_StdPeriph_Driver/src/stm32f4xx_rcc.c ****   *
 734:Libraries/STM32F4xx_StdPeriph_Driver/src/stm32f4xx_rcc.c ****   * @param  PLLSAIN: specifies the multiplication factor for PLLSAI VCO output clock
 735:Libraries/STM32F4xx_StdPeriph_Driver/src/stm32f4xx_rcc.c ****   *         This parameter must be a number between 192 and 432.
 736:Libraries/STM32F4xx_StdPeriph_Driver/src/stm32f4xx_rcc.c ****   * @note   You have to set the PLLSAIN parameter correctly to ensure that the VCO 
 737:Libraries/STM32F4xx_StdPeriph_Driver/src/stm32f4xx_rcc.c ****   *         output frequency is between 192 and 432 MHz.
 738:Libraries/STM32F4xx_StdPeriph_Driver/src/stm32f4xx_rcc.c ****   * 
 739:Libraries/STM32F4xx_StdPeriph_Driver/src/stm32f4xx_rcc.c ****   * @param  PLLSAIP: specifies the division factor for PLL 48Mhz clock output
 740:Libraries/STM32F4xx_StdPeriph_Driver/src/stm32f4xx_rcc.c ****   *         This parameter must be a number in the range {2, 4, 6, or 8}.
 741:Libraries/STM32F4xx_StdPeriph_Driver/src/stm32f4xx_rcc.c ****   *
 742:Libraries/STM32F4xx_StdPeriph_Driver/src/stm32f4xx_rcc.c ****   * @param  PLLSAIQ: specifies the division factor for SAI1 clock
 743:Libraries/STM32F4xx_StdPeriph_Driver/src/stm32f4xx_rcc.c ****   *         This parameter must be a number between 2 and 15.
 744:Libraries/STM32F4xx_StdPeriph_Driver/src/stm32f4xx_rcc.c ****   *   
 745:Libraries/STM32F4xx_StdPeriph_Driver/src/stm32f4xx_rcc.c ****   * @retval None
 746:Libraries/STM32F4xx_StdPeriph_Driver/src/stm32f4xx_rcc.c ****   */
 747:Libraries/STM32F4xx_StdPeriph_Driver/src/stm32f4xx_rcc.c **** void RCC_PLLSAIConfig(uint32_t PLLSAIM, uint32_t PLLSAIN, uint32_t PLLSAIP, uint32_t PLLSAIQ)
 748:Libraries/STM32F4xx_StdPeriph_Driver/src/stm32f4xx_rcc.c **** {
 749:Libraries/STM32F4xx_StdPeriph_Driver/src/stm32f4xx_rcc.c ****   /* Check the parameters */
 750:Libraries/STM32F4xx_StdPeriph_Driver/src/stm32f4xx_rcc.c ****   assert_param(IS_RCC_PLLSAIM_VALUE(PLLSAIM));
 751:Libraries/STM32F4xx_StdPeriph_Driver/src/stm32f4xx_rcc.c ****   assert_param(IS_RCC_PLLSAIN_VALUE(PLLSAIN));
 752:Libraries/STM32F4xx_StdPeriph_Driver/src/stm32f4xx_rcc.c ****   assert_param(IS_RCC_PLLSAIP_VALUE(PLLSAIP));
 753:Libraries/STM32F4xx_StdPeriph_Driver/src/stm32f4xx_rcc.c ****   assert_param(IS_RCC_PLLSAIQ_VALUE(PLLSAIQ));
 754:Libraries/STM32F4xx_StdPeriph_Driver/src/stm32f4xx_rcc.c **** 
 755:Libraries/STM32F4xx_StdPeriph_Driver/src/stm32f4xx_rcc.c ****   RCC->PLLSAICFGR = PLLSAIM | (PLLSAIN << 6) | (((PLLSAIP >> 1) -1) << 16)  | (PLLSAIQ << 24);
 756:Libraries/STM32F4xx_StdPeriph_Driver/src/stm32f4xx_rcc.c **** }
 757:Libraries/STM32F4xx_StdPeriph_Driver/src/stm32f4xx_rcc.c **** #endif /* STM32F446xx */
 758:Libraries/STM32F4xx_StdPeriph_Driver/src/stm32f4xx_rcc.c **** 
 759:Libraries/STM32F4xx_StdPeriph_Driver/src/stm32f4xx_rcc.c **** #if defined(STM32F40_41xxx) || defined(STM32F427_437xx) || defined(STM32F429_439xx) || defined(STM3
 760:Libraries/STM32F4xx_StdPeriph_Driver/src/stm32f4xx_rcc.c **** /**
 761:Libraries/STM32F4xx_StdPeriph_Driver/src/stm32f4xx_rcc.c ****   * @brief  Configures the PLLSAI clock multiplication and division factors.
 762:Libraries/STM32F4xx_StdPeriph_Driver/src/stm32f4xx_rcc.c ****   *
 763:Libraries/STM32F4xx_StdPeriph_Driver/src/stm32f4xx_rcc.c ****   * @note   This function can be used only for STM32F42xxx/43xxx devices 
 764:Libraries/STM32F4xx_StdPeriph_Driver/src/stm32f4xx_rcc.c ****   *        
 765:Libraries/STM32F4xx_StdPeriph_Driver/src/stm32f4xx_rcc.c ****   * @note   This function must be used only when the PLLSAI is disabled.
 766:Libraries/STM32F4xx_StdPeriph_Driver/src/stm32f4xx_rcc.c ****   * @note   PLLSAI clock source is common with the main PLL (configured in 
 767:Libraries/STM32F4xx_StdPeriph_Driver/src/stm32f4xx_rcc.c ****   *         RCC_PLLConfig function )  
 768:Libraries/STM32F4xx_StdPeriph_Driver/src/stm32f4xx_rcc.c ****   *             
 769:Libraries/STM32F4xx_StdPeriph_Driver/src/stm32f4xx_rcc.c ****   * @param  PLLSAIN: specifies the multiplication factor for PLLSAI VCO output clock
 770:Libraries/STM32F4xx_StdPeriph_Driver/src/stm32f4xx_rcc.c ****   *          This parameter must be a number between 192 and 432.
 771:Libraries/STM32F4xx_StdPeriph_Driver/src/stm32f4xx_rcc.c ****   * @note   You have to set the PLLSAIN parameter correctly to ensure that the VCO 
 772:Libraries/STM32F4xx_StdPeriph_Driver/src/stm32f4xx_rcc.c ****   *         output frequency is between 192 and 432 MHz.
 773:Libraries/STM32F4xx_StdPeriph_Driver/src/stm32f4xx_rcc.c ****   *           
 774:Libraries/STM32F4xx_StdPeriph_Driver/src/stm32f4xx_rcc.c ****   * @param  PLLSAIQ: specifies the division factor for SAI1 clock
 775:Libraries/STM32F4xx_StdPeriph_Driver/src/stm32f4xx_rcc.c ****   *          This parameter must be a number between 2 and 15.
 776:Libraries/STM32F4xx_StdPeriph_Driver/src/stm32f4xx_rcc.c ****   *            
 777:Libraries/STM32F4xx_StdPeriph_Driver/src/stm32f4xx_rcc.c ****   * @param  PLLSAIR: specifies the division factor for LTDC clock
 778:Libraries/STM32F4xx_StdPeriph_Driver/src/stm32f4xx_rcc.c ****   *          This parameter must be a number between 2 and 7.
 779:Libraries/STM32F4xx_StdPeriph_Driver/src/stm32f4xx_rcc.c ****   *   
 780:Libraries/STM32F4xx_StdPeriph_Driver/src/stm32f4xx_rcc.c ****   * @retval None
 781:Libraries/STM32F4xx_StdPeriph_Driver/src/stm32f4xx_rcc.c ****   */
 782:Libraries/STM32F4xx_StdPeriph_Driver/src/stm32f4xx_rcc.c **** void RCC_PLLSAIConfig(uint32_t PLLSAIN, uint32_t PLLSAIQ, uint32_t PLLSAIR)
 783:Libraries/STM32F4xx_StdPeriph_Driver/src/stm32f4xx_rcc.c **** {
 784:Libraries/STM32F4xx_StdPeriph_Driver/src/stm32f4xx_rcc.c ****   /* Check the parameters */
 785:Libraries/STM32F4xx_StdPeriph_Driver/src/stm32f4xx_rcc.c ****   assert_param(IS_RCC_PLLSAIN_VALUE(PLLSAIN));
 786:Libraries/STM32F4xx_StdPeriph_Driver/src/stm32f4xx_rcc.c ****   assert_param(IS_RCC_PLLSAIR_VALUE(PLLSAIR));
 787:Libraries/STM32F4xx_StdPeriph_Driver/src/stm32f4xx_rcc.c ****   assert_param(IS_RCC_PLLSAIQ_VALUE(PLLSAIQ));
 788:Libraries/STM32F4xx_StdPeriph_Driver/src/stm32f4xx_rcc.c ****   
 789:Libraries/STM32F4xx_StdPeriph_Driver/src/stm32f4xx_rcc.c ****   RCC->PLLSAICFGR = (PLLSAIN << 6) | (PLLSAIQ << 24) | (PLLSAIR << 28);
 790:Libraries/STM32F4xx_StdPeriph_Driver/src/stm32f4xx_rcc.c **** }
 791:Libraries/STM32F4xx_StdPeriph_Driver/src/stm32f4xx_rcc.c **** #endif /* STM32F40_41xxx || STM32F427_437xx || STM32F429_439xx || STM32F401xx || STM32F411xE */
 792:Libraries/STM32F4xx_StdPeriph_Driver/src/stm32f4xx_rcc.c **** 
 793:Libraries/STM32F4xx_StdPeriph_Driver/src/stm32f4xx_rcc.c **** /**
 794:Libraries/STM32F4xx_StdPeriph_Driver/src/stm32f4xx_rcc.c ****   * @brief  Enables or disables the PLLSAI. 
 795:Libraries/STM32F4xx_StdPeriph_Driver/src/stm32f4xx_rcc.c ****   * 
 796:Libraries/STM32F4xx_StdPeriph_Driver/src/stm32f4xx_rcc.c ****   * @note   This function can be used only for STM32F42xxx/43xxx devices 
 797:Libraries/STM32F4xx_StdPeriph_Driver/src/stm32f4xx_rcc.c ****   *       
 798:Libraries/STM32F4xx_StdPeriph_Driver/src/stm32f4xx_rcc.c ****   * @note   The PLLSAI is disabled by hardware when entering STOP and STANDBY modes.  
 799:Libraries/STM32F4xx_StdPeriph_Driver/src/stm32f4xx_rcc.c ****   * @param  NewState: new state of the PLLSAI. This parameter can be: ENABLE or DISABLE.
 800:Libraries/STM32F4xx_StdPeriph_Driver/src/stm32f4xx_rcc.c ****   * @retval None
 801:Libraries/STM32F4xx_StdPeriph_Driver/src/stm32f4xx_rcc.c ****   */
 802:Libraries/STM32F4xx_StdPeriph_Driver/src/stm32f4xx_rcc.c **** void RCC_PLLSAICmd(FunctionalState NewState)
 803:Libraries/STM32F4xx_StdPeriph_Driver/src/stm32f4xx_rcc.c **** {
 804:Libraries/STM32F4xx_StdPeriph_Driver/src/stm32f4xx_rcc.c ****   /* Check the parameters */
 805:Libraries/STM32F4xx_StdPeriph_Driver/src/stm32f4xx_rcc.c ****   assert_param(IS_FUNCTIONAL_STATE(NewState));
 806:Libraries/STM32F4xx_StdPeriph_Driver/src/stm32f4xx_rcc.c ****   *(__IO uint32_t *) CR_PLLSAION_BB = (uint32_t)NewState;
 807:Libraries/STM32F4xx_StdPeriph_Driver/src/stm32f4xx_rcc.c **** }
 808:Libraries/STM32F4xx_StdPeriph_Driver/src/stm32f4xx_rcc.c **** 
 809:Libraries/STM32F4xx_StdPeriph_Driver/src/stm32f4xx_rcc.c **** /**
 810:Libraries/STM32F4xx_StdPeriph_Driver/src/stm32f4xx_rcc.c ****   * @brief  Enables or disables the Clock Security System.
 811:Libraries/STM32F4xx_StdPeriph_Driver/src/stm32f4xx_rcc.c ****   * @note   If a failure is detected on the HSE oscillator clock, this oscillator
 812:Libraries/STM32F4xx_StdPeriph_Driver/src/stm32f4xx_rcc.c ****   *         is automatically disabled and an interrupt is generated to inform the
 813:Libraries/STM32F4xx_StdPeriph_Driver/src/stm32f4xx_rcc.c ****   *         software about the failure (Clock Security System Interrupt, CSSI),
 814:Libraries/STM32F4xx_StdPeriph_Driver/src/stm32f4xx_rcc.c ****   *         allowing the MCU to perform rescue operations. The CSSI is linked to 
 815:Libraries/STM32F4xx_StdPeriph_Driver/src/stm32f4xx_rcc.c ****   *         the Cortex-M4 NMI (Non-Maskable Interrupt) exception vector.  
 816:Libraries/STM32F4xx_StdPeriph_Driver/src/stm32f4xx_rcc.c ****   * @param  NewState: new state of the Clock Security System.
 817:Libraries/STM32F4xx_StdPeriph_Driver/src/stm32f4xx_rcc.c ****   *         This parameter can be: ENABLE or DISABLE.
 818:Libraries/STM32F4xx_StdPeriph_Driver/src/stm32f4xx_rcc.c ****   * @retval None
 819:Libraries/STM32F4xx_StdPeriph_Driver/src/stm32f4xx_rcc.c ****   */
 820:Libraries/STM32F4xx_StdPeriph_Driver/src/stm32f4xx_rcc.c **** void RCC_ClockSecuritySystemCmd(FunctionalState NewState)
 821:Libraries/STM32F4xx_StdPeriph_Driver/src/stm32f4xx_rcc.c **** {
 822:Libraries/STM32F4xx_StdPeriph_Driver/src/stm32f4xx_rcc.c ****   /* Check the parameters */
 823:Libraries/STM32F4xx_StdPeriph_Driver/src/stm32f4xx_rcc.c ****   assert_param(IS_FUNCTIONAL_STATE(NewState));
 824:Libraries/STM32F4xx_StdPeriph_Driver/src/stm32f4xx_rcc.c ****   *(__IO uint32_t *) CR_CSSON_BB = (uint32_t)NewState;
 825:Libraries/STM32F4xx_StdPeriph_Driver/src/stm32f4xx_rcc.c **** }
 826:Libraries/STM32F4xx_StdPeriph_Driver/src/stm32f4xx_rcc.c **** 
 827:Libraries/STM32F4xx_StdPeriph_Driver/src/stm32f4xx_rcc.c **** /**
 828:Libraries/STM32F4xx_StdPeriph_Driver/src/stm32f4xx_rcc.c ****   * @brief  Selects the clock source to output on MCO1 pin(PA8).
 829:Libraries/STM32F4xx_StdPeriph_Driver/src/stm32f4xx_rcc.c ****   * @note   PA8 should be configured in alternate function mode.
 830:Libraries/STM32F4xx_StdPeriph_Driver/src/stm32f4xx_rcc.c ****   * @param  RCC_MCO1Source: specifies the clock source to output.
 831:Libraries/STM32F4xx_StdPeriph_Driver/src/stm32f4xx_rcc.c ****   *          This parameter can be one of the following values:
 832:Libraries/STM32F4xx_StdPeriph_Driver/src/stm32f4xx_rcc.c ****   *            @arg RCC_MCO1Source_HSI: HSI clock selected as MCO1 source
 833:Libraries/STM32F4xx_StdPeriph_Driver/src/stm32f4xx_rcc.c ****   *            @arg RCC_MCO1Source_LSE: LSE clock selected as MCO1 source
 834:Libraries/STM32F4xx_StdPeriph_Driver/src/stm32f4xx_rcc.c ****   *            @arg RCC_MCO1Source_HSE: HSE clock selected as MCO1 source
 835:Libraries/STM32F4xx_StdPeriph_Driver/src/stm32f4xx_rcc.c ****   *            @arg RCC_MCO1Source_PLLCLK: main PLL clock selected as MCO1 source
 836:Libraries/STM32F4xx_StdPeriph_Driver/src/stm32f4xx_rcc.c ****   * @param  RCC_MCO1Div: specifies the MCO1 prescaler.
 837:Libraries/STM32F4xx_StdPeriph_Driver/src/stm32f4xx_rcc.c ****   *          This parameter can be one of the following values:
 838:Libraries/STM32F4xx_StdPeriph_Driver/src/stm32f4xx_rcc.c ****   *            @arg RCC_MCO1Div_1: no division applied to MCO1 clock
 839:Libraries/STM32F4xx_StdPeriph_Driver/src/stm32f4xx_rcc.c ****   *            @arg RCC_MCO1Div_2: division by 2 applied to MCO1 clock
 840:Libraries/STM32F4xx_StdPeriph_Driver/src/stm32f4xx_rcc.c ****   *            @arg RCC_MCO1Div_3: division by 3 applied to MCO1 clock
 841:Libraries/STM32F4xx_StdPeriph_Driver/src/stm32f4xx_rcc.c ****   *            @arg RCC_MCO1Div_4: division by 4 applied to MCO1 clock
 842:Libraries/STM32F4xx_StdPeriph_Driver/src/stm32f4xx_rcc.c ****   *            @arg RCC_MCO1Div_5: division by 5 applied to MCO1 clock
 843:Libraries/STM32F4xx_StdPeriph_Driver/src/stm32f4xx_rcc.c ****   * @retval None
 844:Libraries/STM32F4xx_StdPeriph_Driver/src/stm32f4xx_rcc.c ****   */
 845:Libraries/STM32F4xx_StdPeriph_Driver/src/stm32f4xx_rcc.c **** void RCC_MCO1Config(uint32_t RCC_MCO1Source, uint32_t RCC_MCO1Div)
 846:Libraries/STM32F4xx_StdPeriph_Driver/src/stm32f4xx_rcc.c **** {
 847:Libraries/STM32F4xx_StdPeriph_Driver/src/stm32f4xx_rcc.c ****   uint32_t tmpreg = 0;
 848:Libraries/STM32F4xx_StdPeriph_Driver/src/stm32f4xx_rcc.c ****   
 849:Libraries/STM32F4xx_StdPeriph_Driver/src/stm32f4xx_rcc.c ****   /* Check the parameters */
 850:Libraries/STM32F4xx_StdPeriph_Driver/src/stm32f4xx_rcc.c ****   assert_param(IS_RCC_MCO1SOURCE(RCC_MCO1Source));
 851:Libraries/STM32F4xx_StdPeriph_Driver/src/stm32f4xx_rcc.c ****   assert_param(IS_RCC_MCO1DIV(RCC_MCO1Div));  
 852:Libraries/STM32F4xx_StdPeriph_Driver/src/stm32f4xx_rcc.c **** 
 853:Libraries/STM32F4xx_StdPeriph_Driver/src/stm32f4xx_rcc.c ****   tmpreg = RCC->CFGR;
 854:Libraries/STM32F4xx_StdPeriph_Driver/src/stm32f4xx_rcc.c **** 
 855:Libraries/STM32F4xx_StdPeriph_Driver/src/stm32f4xx_rcc.c ****   /* Clear MCO1[1:0] and MCO1PRE[2:0] bits */
 856:Libraries/STM32F4xx_StdPeriph_Driver/src/stm32f4xx_rcc.c ****   tmpreg &= CFGR_MCO1_RESET_MASK;
 857:Libraries/STM32F4xx_StdPeriph_Driver/src/stm32f4xx_rcc.c **** 
 858:Libraries/STM32F4xx_StdPeriph_Driver/src/stm32f4xx_rcc.c ****   /* Select MCO1 clock source and prescaler */
 859:Libraries/STM32F4xx_StdPeriph_Driver/src/stm32f4xx_rcc.c ****   tmpreg |= RCC_MCO1Source | RCC_MCO1Div;
 860:Libraries/STM32F4xx_StdPeriph_Driver/src/stm32f4xx_rcc.c **** 
 861:Libraries/STM32F4xx_StdPeriph_Driver/src/stm32f4xx_rcc.c ****   /* Store the new value */
 862:Libraries/STM32F4xx_StdPeriph_Driver/src/stm32f4xx_rcc.c ****   RCC->CFGR = tmpreg;  
 863:Libraries/STM32F4xx_StdPeriph_Driver/src/stm32f4xx_rcc.c **** }
 864:Libraries/STM32F4xx_StdPeriph_Driver/src/stm32f4xx_rcc.c **** 
 865:Libraries/STM32F4xx_StdPeriph_Driver/src/stm32f4xx_rcc.c **** /**
 866:Libraries/STM32F4xx_StdPeriph_Driver/src/stm32f4xx_rcc.c ****   * @brief  Selects the clock source to output on MCO2 pin(PC9).
 867:Libraries/STM32F4xx_StdPeriph_Driver/src/stm32f4xx_rcc.c ****   * @note   PC9 should be configured in alternate function mode.
 868:Libraries/STM32F4xx_StdPeriph_Driver/src/stm32f4xx_rcc.c ****   * @param  RCC_MCO2Source: specifies the clock source to output.
 869:Libraries/STM32F4xx_StdPeriph_Driver/src/stm32f4xx_rcc.c ****   *          This parameter can be one of the following values:
 870:Libraries/STM32F4xx_StdPeriph_Driver/src/stm32f4xx_rcc.c ****   *            @arg RCC_MCO2Source_SYSCLK: System clock (SYSCLK) selected as MCO2 source
 871:Libraries/STM32F4xx_StdPeriph_Driver/src/stm32f4xx_rcc.c ****   *            @arg RCC_MCO2Source_PLLI2SCLK: PLLI2S clock selected as MCO2 source
 872:Libraries/STM32F4xx_StdPeriph_Driver/src/stm32f4xx_rcc.c ****   *            @arg RCC_MCO2Source_HSE: HSE clock selected as MCO2 source
 873:Libraries/STM32F4xx_StdPeriph_Driver/src/stm32f4xx_rcc.c ****   *            @arg RCC_MCO2Source_PLLCLK: main PLL clock selected as MCO2 source
 874:Libraries/STM32F4xx_StdPeriph_Driver/src/stm32f4xx_rcc.c ****   * @param  RCC_MCO2Div: specifies the MCO2 prescaler.
 875:Libraries/STM32F4xx_StdPeriph_Driver/src/stm32f4xx_rcc.c ****   *          This parameter can be one of the following values:
 876:Libraries/STM32F4xx_StdPeriph_Driver/src/stm32f4xx_rcc.c ****   *            @arg RCC_MCO2Div_1: no division applied to MCO2 clock
 877:Libraries/STM32F4xx_StdPeriph_Driver/src/stm32f4xx_rcc.c ****   *            @arg RCC_MCO2Div_2: division by 2 applied to MCO2 clock
 878:Libraries/STM32F4xx_StdPeriph_Driver/src/stm32f4xx_rcc.c ****   *            @arg RCC_MCO2Div_3: division by 3 applied to MCO2 clock
 879:Libraries/STM32F4xx_StdPeriph_Driver/src/stm32f4xx_rcc.c ****   *            @arg RCC_MCO2Div_4: division by 4 applied to MCO2 clock
 880:Libraries/STM32F4xx_StdPeriph_Driver/src/stm32f4xx_rcc.c ****   *            @arg RCC_MCO2Div_5: division by 5 applied to MCO2 clock
 881:Libraries/STM32F4xx_StdPeriph_Driver/src/stm32f4xx_rcc.c ****   * @retval None
 882:Libraries/STM32F4xx_StdPeriph_Driver/src/stm32f4xx_rcc.c ****   */
 883:Libraries/STM32F4xx_StdPeriph_Driver/src/stm32f4xx_rcc.c **** void RCC_MCO2Config(uint32_t RCC_MCO2Source, uint32_t RCC_MCO2Div)
 884:Libraries/STM32F4xx_StdPeriph_Driver/src/stm32f4xx_rcc.c **** {
 885:Libraries/STM32F4xx_StdPeriph_Driver/src/stm32f4xx_rcc.c ****   uint32_t tmpreg = 0;
 886:Libraries/STM32F4xx_StdPeriph_Driver/src/stm32f4xx_rcc.c ****   
 887:Libraries/STM32F4xx_StdPeriph_Driver/src/stm32f4xx_rcc.c ****   /* Check the parameters */
 888:Libraries/STM32F4xx_StdPeriph_Driver/src/stm32f4xx_rcc.c ****   assert_param(IS_RCC_MCO2SOURCE(RCC_MCO2Source));
 889:Libraries/STM32F4xx_StdPeriph_Driver/src/stm32f4xx_rcc.c ****   assert_param(IS_RCC_MCO2DIV(RCC_MCO2Div));
 890:Libraries/STM32F4xx_StdPeriph_Driver/src/stm32f4xx_rcc.c ****   
 891:Libraries/STM32F4xx_StdPeriph_Driver/src/stm32f4xx_rcc.c ****   tmpreg = RCC->CFGR;
 892:Libraries/STM32F4xx_StdPeriph_Driver/src/stm32f4xx_rcc.c ****   
 893:Libraries/STM32F4xx_StdPeriph_Driver/src/stm32f4xx_rcc.c ****   /* Clear MCO2 and MCO2PRE[2:0] bits */
 894:Libraries/STM32F4xx_StdPeriph_Driver/src/stm32f4xx_rcc.c ****   tmpreg &= CFGR_MCO2_RESET_MASK;
 895:Libraries/STM32F4xx_StdPeriph_Driver/src/stm32f4xx_rcc.c **** 
 896:Libraries/STM32F4xx_StdPeriph_Driver/src/stm32f4xx_rcc.c ****   /* Select MCO2 clock source and prescaler */
 897:Libraries/STM32F4xx_StdPeriph_Driver/src/stm32f4xx_rcc.c ****   tmpreg |= RCC_MCO2Source | RCC_MCO2Div;
 898:Libraries/STM32F4xx_StdPeriph_Driver/src/stm32f4xx_rcc.c **** 
 899:Libraries/STM32F4xx_StdPeriph_Driver/src/stm32f4xx_rcc.c ****   /* Store the new value */
 900:Libraries/STM32F4xx_StdPeriph_Driver/src/stm32f4xx_rcc.c ****   RCC->CFGR = tmpreg;  
 901:Libraries/STM32F4xx_StdPeriph_Driver/src/stm32f4xx_rcc.c **** }
 902:Libraries/STM32F4xx_StdPeriph_Driver/src/stm32f4xx_rcc.c **** 
 903:Libraries/STM32F4xx_StdPeriph_Driver/src/stm32f4xx_rcc.c **** /**
 904:Libraries/STM32F4xx_StdPeriph_Driver/src/stm32f4xx_rcc.c ****   * @}
 905:Libraries/STM32F4xx_StdPeriph_Driver/src/stm32f4xx_rcc.c ****   */
 906:Libraries/STM32F4xx_StdPeriph_Driver/src/stm32f4xx_rcc.c **** 
 907:Libraries/STM32F4xx_StdPeriph_Driver/src/stm32f4xx_rcc.c **** /** @defgroup RCC_Group2 System AHB and APB busses clocks configuration functions
 908:Libraries/STM32F4xx_StdPeriph_Driver/src/stm32f4xx_rcc.c ****  *  @brief   System, AHB and APB busses clocks configuration functions
 909:Libraries/STM32F4xx_StdPeriph_Driver/src/stm32f4xx_rcc.c ****  *
 910:Libraries/STM32F4xx_StdPeriph_Driver/src/stm32f4xx_rcc.c **** @verbatim   
 911:Libraries/STM32F4xx_StdPeriph_Driver/src/stm32f4xx_rcc.c ****  ===============================================================================
 912:Libraries/STM32F4xx_StdPeriph_Driver/src/stm32f4xx_rcc.c ****       ##### System, AHB and APB busses clocks configuration functions #####
 913:Libraries/STM32F4xx_StdPeriph_Driver/src/stm32f4xx_rcc.c ****  ===============================================================================  
 914:Libraries/STM32F4xx_StdPeriph_Driver/src/stm32f4xx_rcc.c ****     [..]
 915:Libraries/STM32F4xx_StdPeriph_Driver/src/stm32f4xx_rcc.c ****       This section provide functions allowing to configure the System, AHB, APB1 and 
 916:Libraries/STM32F4xx_StdPeriph_Driver/src/stm32f4xx_rcc.c ****       APB2 busses clocks.
 917:Libraries/STM32F4xx_StdPeriph_Driver/src/stm32f4xx_rcc.c ****   
 918:Libraries/STM32F4xx_StdPeriph_Driver/src/stm32f4xx_rcc.c ****       (#) Several clock sources can be used to drive the System clock (SYSCLK): HSI,
 919:Libraries/STM32F4xx_StdPeriph_Driver/src/stm32f4xx_rcc.c ****           HSE and PLL.
 920:Libraries/STM32F4xx_StdPeriph_Driver/src/stm32f4xx_rcc.c ****           The AHB clock (HCLK) is derived from System clock through configurable 
 921:Libraries/STM32F4xx_StdPeriph_Driver/src/stm32f4xx_rcc.c ****           prescaler and used to clock the CPU, memory and peripherals mapped 
 922:Libraries/STM32F4xx_StdPeriph_Driver/src/stm32f4xx_rcc.c ****           on AHB bus (DMA, GPIO...). APB1 (PCLK1) and APB2 (PCLK2) clocks are derived 
 923:Libraries/STM32F4xx_StdPeriph_Driver/src/stm32f4xx_rcc.c ****           from AHB clock through configurable prescalers and used to clock 
 924:Libraries/STM32F4xx_StdPeriph_Driver/src/stm32f4xx_rcc.c ****           the peripherals mapped on these busses. You can use 
 925:Libraries/STM32F4xx_StdPeriph_Driver/src/stm32f4xx_rcc.c ****           "RCC_GetClocksFreq()" function to retrieve the frequencies of these clocks.  
 926:Libraries/STM32F4xx_StdPeriph_Driver/src/stm32f4xx_rcc.c **** 
 927:Libraries/STM32F4xx_StdPeriph_Driver/src/stm32f4xx_rcc.c ****       -@- All the peripheral clocks are derived from the System clock (SYSCLK) except:
 928:Libraries/STM32F4xx_StdPeriph_Driver/src/stm32f4xx_rcc.c ****         (+@) I2S: the I2S clock can be derived either from a specific PLL (PLLI2S) or
 929:Libraries/STM32F4xx_StdPeriph_Driver/src/stm32f4xx_rcc.c ****              from an external clock mapped on the I2S_CKIN pin. 
 930:Libraries/STM32F4xx_StdPeriph_Driver/src/stm32f4xx_rcc.c ****              You have to use RCC_I2SCLKConfig() function to configure this clock. 
 931:Libraries/STM32F4xx_StdPeriph_Driver/src/stm32f4xx_rcc.c ****         (+@) RTC: the RTC clock can be derived either from the LSI, LSE or HSE clock
 932:Libraries/STM32F4xx_StdPeriph_Driver/src/stm32f4xx_rcc.c ****              divided by 2 to 31. You have to use RCC_RTCCLKConfig() and RCC_RTCCLKCmd()
 933:Libraries/STM32F4xx_StdPeriph_Driver/src/stm32f4xx_rcc.c ****              functions to configure this clock. 
 934:Libraries/STM32F4xx_StdPeriph_Driver/src/stm32f4xx_rcc.c ****         (+@) USB OTG FS, SDIO and RTC: USB OTG FS require a frequency equal to 48 MHz
 935:Libraries/STM32F4xx_StdPeriph_Driver/src/stm32f4xx_rcc.c ****              to work correctly, while the SDIO require a frequency equal or lower than
 936:Libraries/STM32F4xx_StdPeriph_Driver/src/stm32f4xx_rcc.c ****              to 48. This clock is derived of the main PLL through PLLQ divider.
 937:Libraries/STM32F4xx_StdPeriph_Driver/src/stm32f4xx_rcc.c ****         (+@) IWDG clock which is always the LSI clock.
 938:Libraries/STM32F4xx_StdPeriph_Driver/src/stm32f4xx_rcc.c ****        
 939:Libraries/STM32F4xx_StdPeriph_Driver/src/stm32f4xx_rcc.c ****       (#) For STM32F405xx/407xx and STM32F415xx/417xx devices, the maximum frequency 
 940:Libraries/STM32F4xx_StdPeriph_Driver/src/stm32f4xx_rcc.c ****          of the SYSCLK and HCLK is 168 MHz, PCLK2 84 MHz and PCLK1 42 MHz. Depending 
 941:Libraries/STM32F4xx_StdPeriph_Driver/src/stm32f4xx_rcc.c ****          on the device voltage range, the maximum frequency should be adapted accordingly:
 942:Libraries/STM32F4xx_StdPeriph_Driver/src/stm32f4xx_rcc.c ****  +-------------------------------------------------------------------------------------+     
 943:Libraries/STM32F4xx_StdPeriph_Driver/src/stm32f4xx_rcc.c ****  | Latency       |                HCLK clock frequency (MHz)                           |
 944:Libraries/STM32F4xx_StdPeriph_Driver/src/stm32f4xx_rcc.c ****  |               |---------------------------------------------------------------------|     
 945:Libraries/STM32F4xx_StdPeriph_Driver/src/stm32f4xx_rcc.c ****  |               | voltage range  | voltage range  | voltage range   | voltage range   |
 946:Libraries/STM32F4xx_StdPeriph_Driver/src/stm32f4xx_rcc.c ****  |               | 2.7 V - 3.6 V  | 2.4 V - 2.7 V  | 2.1 V - 2.4 V   | 1.8 V - 2.1 V   |
 947:Libraries/STM32F4xx_StdPeriph_Driver/src/stm32f4xx_rcc.c ****  |---------------|----------------|----------------|-----------------|-----------------|           
 948:Libraries/STM32F4xx_StdPeriph_Driver/src/stm32f4xx_rcc.c ****  |0WS(1CPU cycle)|0 < HCLK <= 30  |0 < HCLK <= 24  |0 < HCLK <= 22   |0 < HCLK <= 20   |
 949:Libraries/STM32F4xx_StdPeriph_Driver/src/stm32f4xx_rcc.c ****  |---------------|----------------|----------------|-----------------|-----------------|   
 950:Libraries/STM32F4xx_StdPeriph_Driver/src/stm32f4xx_rcc.c ****  |1WS(2CPU cycle)|30 < HCLK <= 60 |24 < HCLK <= 48 |22 < HCLK <= 44  |20 < HCLK <= 40  | 
 951:Libraries/STM32F4xx_StdPeriph_Driver/src/stm32f4xx_rcc.c ****  |---------------|----------------|----------------|-----------------|-----------------|   
 952:Libraries/STM32F4xx_StdPeriph_Driver/src/stm32f4xx_rcc.c ****  |2WS(3CPU cycle)|60 < HCLK <= 90 |48 < HCLK <= 72 |44 < HCLK <= 66  |40 < HCLK <= 60  |
 953:Libraries/STM32F4xx_StdPeriph_Driver/src/stm32f4xx_rcc.c ****  |---------------|----------------|----------------|-----------------|-----------------| 
 954:Libraries/STM32F4xx_StdPeriph_Driver/src/stm32f4xx_rcc.c ****  |3WS(4CPU cycle)|90 < HCLK <= 120|72 < HCLK <= 96 |66 < HCLK <= 88  |60 < HCLK <= 80  |
 955:Libraries/STM32F4xx_StdPeriph_Driver/src/stm32f4xx_rcc.c ****  |---------------|----------------|----------------|-----------------|-----------------| 
 956:Libraries/STM32F4xx_StdPeriph_Driver/src/stm32f4xx_rcc.c ****  |4WS(5CPU cycle)|120< HCLK <= 150|96 < HCLK <= 120|88 < HCLK <= 110 |80 < HCLK <= 100 |
 957:Libraries/STM32F4xx_StdPeriph_Driver/src/stm32f4xx_rcc.c ****  |---------------|----------------|----------------|-----------------|-----------------| 
 958:Libraries/STM32F4xx_StdPeriph_Driver/src/stm32f4xx_rcc.c ****  |5WS(6CPU cycle)|150< HCLK <= 168|120< HCLK <= 144|110 < HCLK <= 132|100 < HCLK <= 120| 
 959:Libraries/STM32F4xx_StdPeriph_Driver/src/stm32f4xx_rcc.c ****  |---------------|----------------|----------------|-----------------|-----------------| 
 960:Libraries/STM32F4xx_StdPeriph_Driver/src/stm32f4xx_rcc.c ****  |6WS(7CPU cycle)|      NA        |144< HCLK <= 168|132 < HCLK <= 154|120 < HCLK <= 140| 
 961:Libraries/STM32F4xx_StdPeriph_Driver/src/stm32f4xx_rcc.c ****  |---------------|----------------|----------------|-----------------|-----------------| 
 962:Libraries/STM32F4xx_StdPeriph_Driver/src/stm32f4xx_rcc.c ****  |7WS(8CPU cycle)|      NA        |      NA        |154 < HCLK <= 168|140 < HCLK <= 160|
 963:Libraries/STM32F4xx_StdPeriph_Driver/src/stm32f4xx_rcc.c ****  +---------------|----------------|----------------|-----------------|-----------------+ 
 964:Libraries/STM32F4xx_StdPeriph_Driver/src/stm32f4xx_rcc.c ****       (#) For STM32F42xxx/43xxx devices, the maximum frequency of the SYSCLK and HCLK is 180 MHz, 
 965:Libraries/STM32F4xx_StdPeriph_Driver/src/stm32f4xx_rcc.c ****           PCLK2 90 MHz and PCLK1 45 MHz. Depending on the device voltage range, the maximum 
 966:Libraries/STM32F4xx_StdPeriph_Driver/src/stm32f4xx_rcc.c ****           frequency should be adapted accordingly:
 967:Libraries/STM32F4xx_StdPeriph_Driver/src/stm32f4xx_rcc.c ****  +-------------------------------------------------------------------------------------+     
 968:Libraries/STM32F4xx_StdPeriph_Driver/src/stm32f4xx_rcc.c ****  | Latency       |                HCLK clock frequency (MHz)                           |
 969:Libraries/STM32F4xx_StdPeriph_Driver/src/stm32f4xx_rcc.c ****  |               |---------------------------------------------------------------------|     
 970:Libraries/STM32F4xx_StdPeriph_Driver/src/stm32f4xx_rcc.c ****  |               | voltage range  | voltage range  | voltage range   | voltage range   |
 971:Libraries/STM32F4xx_StdPeriph_Driver/src/stm32f4xx_rcc.c ****  |               | 2.7 V - 3.6 V  | 2.4 V - 2.7 V  | 2.1 V - 2.4 V   | 1.8 V - 2.1 V   |
 972:Libraries/STM32F4xx_StdPeriph_Driver/src/stm32f4xx_rcc.c ****  |---------------|----------------|----------------|-----------------|-----------------|           
 973:Libraries/STM32F4xx_StdPeriph_Driver/src/stm32f4xx_rcc.c ****  |0WS(1CPU cycle)|0 < HCLK <= 30  |0 < HCLK <= 24  |0 < HCLK <= 22   |0 < HCLK <= 20   |
 974:Libraries/STM32F4xx_StdPeriph_Driver/src/stm32f4xx_rcc.c ****  |---------------|----------------|----------------|-----------------|-----------------|   
 975:Libraries/STM32F4xx_StdPeriph_Driver/src/stm32f4xx_rcc.c ****  |1WS(2CPU cycle)|30 < HCLK <= 60 |24 < HCLK <= 48 |22 < HCLK <= 44  |20 < HCLK <= 40  | 
 976:Libraries/STM32F4xx_StdPeriph_Driver/src/stm32f4xx_rcc.c ****  |---------------|----------------|----------------|-----------------|-----------------|   
 977:Libraries/STM32F4xx_StdPeriph_Driver/src/stm32f4xx_rcc.c ****  |2WS(3CPU cycle)|60 < HCLK <= 90 |48 < HCLK <= 72 |44 < HCLK <= 66  |40 < HCLK <= 60  |
 978:Libraries/STM32F4xx_StdPeriph_Driver/src/stm32f4xx_rcc.c ****  |---------------|----------------|----------------|-----------------|-----------------| 
 979:Libraries/STM32F4xx_StdPeriph_Driver/src/stm32f4xx_rcc.c ****  |3WS(4CPU cycle)|90 < HCLK <= 120|72 < HCLK <= 96 |66 < HCLK <= 88  |60 < HCLK <= 80  |
 980:Libraries/STM32F4xx_StdPeriph_Driver/src/stm32f4xx_rcc.c ****  |---------------|----------------|----------------|-----------------|-----------------| 
 981:Libraries/STM32F4xx_StdPeriph_Driver/src/stm32f4xx_rcc.c ****  |4WS(5CPU cycle)|120< HCLK <= 150|96 < HCLK <= 120|88 < HCLK <= 110 |80 < HCLK <= 100 |
 982:Libraries/STM32F4xx_StdPeriph_Driver/src/stm32f4xx_rcc.c ****  |---------------|----------------|----------------|-----------------|-----------------| 
 983:Libraries/STM32F4xx_StdPeriph_Driver/src/stm32f4xx_rcc.c ****  |5WS(6CPU cycle)|120< HCLK <= 180|120< HCLK <= 144|110 < HCLK <= 132|100 < HCLK <= 120| 
 984:Libraries/STM32F4xx_StdPeriph_Driver/src/stm32f4xx_rcc.c ****  |---------------|----------------|----------------|-----------------|-----------------| 
 985:Libraries/STM32F4xx_StdPeriph_Driver/src/stm32f4xx_rcc.c ****  |6WS(7CPU cycle)|      NA        |144< HCLK <= 168|132 < HCLK <= 154|120 < HCLK <= 140| 
 986:Libraries/STM32F4xx_StdPeriph_Driver/src/stm32f4xx_rcc.c ****  |---------------|----------------|----------------|-----------------|-----------------| 
 987:Libraries/STM32F4xx_StdPeriph_Driver/src/stm32f4xx_rcc.c ****  |7WS(8CPU cycle)|      NA        |168< HCLK <= 180|154 < HCLK <= 176|140 < HCLK <= 160|
 988:Libraries/STM32F4xx_StdPeriph_Driver/src/stm32f4xx_rcc.c ****  |---------------|----------------|----------------|-----------------|-----------------| 
 989:Libraries/STM32F4xx_StdPeriph_Driver/src/stm32f4xx_rcc.c ****  |8WS(9CPU cycle)|      NA        |      NA        |176 < HCLK <= 180|160 < HCLK <= 168|
 990:Libraries/STM32F4xx_StdPeriph_Driver/src/stm32f4xx_rcc.c ****  +-------------------------------------------------------------------------------------+
 991:Libraries/STM32F4xx_StdPeriph_Driver/src/stm32f4xx_rcc.c ****    
 992:Libraries/STM32F4xx_StdPeriph_Driver/src/stm32f4xx_rcc.c ****       (#) For STM32F401xx devices, the maximum frequency of the SYSCLK and HCLK is 84 MHz, 
 993:Libraries/STM32F4xx_StdPeriph_Driver/src/stm32f4xx_rcc.c ****           PCLK2 84 MHz and PCLK1 42 MHz. Depending on the device voltage range, the maximum 
 994:Libraries/STM32F4xx_StdPeriph_Driver/src/stm32f4xx_rcc.c ****           frequency should be adapted accordingly:
 995:Libraries/STM32F4xx_StdPeriph_Driver/src/stm32f4xx_rcc.c ****  +-------------------------------------------------------------------------------------+     
 996:Libraries/STM32F4xx_StdPeriph_Driver/src/stm32f4xx_rcc.c ****  | Latency       |                HCLK clock frequency (MHz)                           |
 997:Libraries/STM32F4xx_StdPeriph_Driver/src/stm32f4xx_rcc.c ****  |               |---------------------------------------------------------------------|     
 998:Libraries/STM32F4xx_StdPeriph_Driver/src/stm32f4xx_rcc.c ****  |               | voltage range  | voltage range  | voltage range   | voltage range   |
 999:Libraries/STM32F4xx_StdPeriph_Driver/src/stm32f4xx_rcc.c ****  |               | 2.7 V - 3.6 V  | 2.4 V - 2.7 V  | 2.1 V - 2.4 V   | 1.8 V - 2.1 V   |
1000:Libraries/STM32F4xx_StdPeriph_Driver/src/stm32f4xx_rcc.c ****  |---------------|----------------|----------------|-----------------|-----------------|           
1001:Libraries/STM32F4xx_StdPeriph_Driver/src/stm32f4xx_rcc.c ****  |0WS(1CPU cycle)|0 < HCLK <= 30  |0 < HCLK <= 24  |0 < HCLK <= 22   |0 < HCLK <= 20   |
1002:Libraries/STM32F4xx_StdPeriph_Driver/src/stm32f4xx_rcc.c ****  |---------------|----------------|----------------|-----------------|-----------------|   
1003:Libraries/STM32F4xx_StdPeriph_Driver/src/stm32f4xx_rcc.c ****  |1WS(2CPU cycle)|30 < HCLK <= 60 |24 < HCLK <= 48 |22 < HCLK <= 44  |20 < HCLK <= 40  | 
1004:Libraries/STM32F4xx_StdPeriph_Driver/src/stm32f4xx_rcc.c ****  |---------------|----------------|----------------|-----------------|-----------------|   
1005:Libraries/STM32F4xx_StdPeriph_Driver/src/stm32f4xx_rcc.c ****  |2WS(3CPU cycle)|60 < HCLK <= 84 |48 < HCLK <= 72 |44 < HCLK <= 66  |40 < HCLK <= 60  |
1006:Libraries/STM32F4xx_StdPeriph_Driver/src/stm32f4xx_rcc.c ****  |---------------|----------------|----------------|-----------------|-----------------| 
1007:Libraries/STM32F4xx_StdPeriph_Driver/src/stm32f4xx_rcc.c ****  |3WS(4CPU cycle)|      NA        |72 < HCLK <= 84 |66 < HCLK <= 84  |60 < HCLK <= 80  |
1008:Libraries/STM32F4xx_StdPeriph_Driver/src/stm32f4xx_rcc.c ****  |---------------|----------------|----------------|-----------------|-----------------| 
1009:Libraries/STM32F4xx_StdPeriph_Driver/src/stm32f4xx_rcc.c ****  |4WS(5CPU cycle)|      NA        |      NA        |      NA         |80 < HCLK <= 84  | 
1010:Libraries/STM32F4xx_StdPeriph_Driver/src/stm32f4xx_rcc.c ****  +-------------------------------------------------------------------------------------+
1011:Libraries/STM32F4xx_StdPeriph_Driver/src/stm32f4xx_rcc.c **** 
1012:Libraries/STM32F4xx_StdPeriph_Driver/src/stm32f4xx_rcc.c ****       (#) For STM32F411xE devices, the maximum frequency of the SYSCLK and HCLK is 100 MHz, 
1013:Libraries/STM32F4xx_StdPeriph_Driver/src/stm32f4xx_rcc.c ****           PCLK2 100 MHz and PCLK1 50 MHz. Depending on the device voltage range, the maximum 
1014:Libraries/STM32F4xx_StdPeriph_Driver/src/stm32f4xx_rcc.c ****           frequency should be adapted accordingly:
1015:Libraries/STM32F4xx_StdPeriph_Driver/src/stm32f4xx_rcc.c ****  +-------------------------------------------------------------------------------------+
1016:Libraries/STM32F4xx_StdPeriph_Driver/src/stm32f4xx_rcc.c ****  | Latency       |                HCLK clock frequency (MHz)                           |
1017:Libraries/STM32F4xx_StdPeriph_Driver/src/stm32f4xx_rcc.c ****  |               |---------------------------------------------------------------------|
1018:Libraries/STM32F4xx_StdPeriph_Driver/src/stm32f4xx_rcc.c ****  |               | voltage range  | voltage range  | voltage range   | voltage range   |
1019:Libraries/STM32F4xx_StdPeriph_Driver/src/stm32f4xx_rcc.c ****  |               | 2.7 V - 3.6 V  | 2.4 V - 2.7 V  | 2.1 V - 2.4 V   | 1.8 V - 2.1 V   |
1020:Libraries/STM32F4xx_StdPeriph_Driver/src/stm32f4xx_rcc.c ****  |---------------|----------------|----------------|-----------------|-----------------|
1021:Libraries/STM32F4xx_StdPeriph_Driver/src/stm32f4xx_rcc.c ****  |0WS(1CPU cycle)|0 < HCLK <= 30  |0 < HCLK <= 24  |0 < HCLK <= 18   |0 < HCLK <= 16   |
1022:Libraries/STM32F4xx_StdPeriph_Driver/src/stm32f4xx_rcc.c ****  |---------------|----------------|----------------|-----------------|-----------------|
1023:Libraries/STM32F4xx_StdPeriph_Driver/src/stm32f4xx_rcc.c ****  |1WS(2CPU cycle)|30 < HCLK <= 64 |24 < HCLK <= 48 |18 < HCLK <= 36  |16 < HCLK <= 32  |
1024:Libraries/STM32F4xx_StdPeriph_Driver/src/stm32f4xx_rcc.c ****  |---------------|----------------|----------------|-----------------|-----------------|
1025:Libraries/STM32F4xx_StdPeriph_Driver/src/stm32f4xx_rcc.c ****  |2WS(3CPU cycle)|64 < HCLK <= 90 |48 < HCLK <= 72 |36 < HCLK <= 54  |32 < HCLK <= 48  |
1026:Libraries/STM32F4xx_StdPeriph_Driver/src/stm32f4xx_rcc.c ****  |---------------|----------------|----------------|-----------------|-----------------|
1027:Libraries/STM32F4xx_StdPeriph_Driver/src/stm32f4xx_rcc.c ****  |3WS(4CPU cycle)|90 < HCLK <= 100|72 < HCLK <= 96 |54 < HCLK <= 72  |48 < HCLK <= 64  |
1028:Libraries/STM32F4xx_StdPeriph_Driver/src/stm32f4xx_rcc.c ****  |---------------|----------------|----------------|-----------------|-----------------|
1029:Libraries/STM32F4xx_StdPeriph_Driver/src/stm32f4xx_rcc.c ****  |4WS(5CPU cycle)|      NA        |96 < HCLK <= 100|72 < HCLK <= 90  |64 < HCLK <= 80  |
1030:Libraries/STM32F4xx_StdPeriph_Driver/src/stm32f4xx_rcc.c ****  |---------------|----------------|----------------|-----------------|-----------------|
1031:Libraries/STM32F4xx_StdPeriph_Driver/src/stm32f4xx_rcc.c ****  |5WS(6CPU cycle)|      NA        |       NA       |90 < HCLK <= 100 |80 < HCLK <= 96  |
1032:Libraries/STM32F4xx_StdPeriph_Driver/src/stm32f4xx_rcc.c ****  |---------------|----------------|----------------|-----------------|-----------------|
1033:Libraries/STM32F4xx_StdPeriph_Driver/src/stm32f4xx_rcc.c ****  |6WS(7CPU cycle)|      NA        |       NA       |        NA       |96 < HCLK <= 100 |
1034:Libraries/STM32F4xx_StdPeriph_Driver/src/stm32f4xx_rcc.c ****  +-------------------------------------------------------------------------------------+
1035:Libraries/STM32F4xx_StdPeriph_Driver/src/stm32f4xx_rcc.c ****   
1036:Libraries/STM32F4xx_StdPeriph_Driver/src/stm32f4xx_rcc.c ****       -@- On STM32F405xx/407xx and STM32F415xx/417xx devices: 
1037:Libraries/STM32F4xx_StdPeriph_Driver/src/stm32f4xx_rcc.c ****            (++) when VOS = '0', the maximum value of fHCLK = 144MHz. 
1038:Libraries/STM32F4xx_StdPeriph_Driver/src/stm32f4xx_rcc.c ****            (++) when VOS = '1', the maximum value of fHCLK = 168MHz. 
1039:Libraries/STM32F4xx_StdPeriph_Driver/src/stm32f4xx_rcc.c ****           [..] 
1040:Libraries/STM32F4xx_StdPeriph_Driver/src/stm32f4xx_rcc.c ****           On STM32F42xxx/43xxx devices:
1041:Libraries/STM32F4xx_StdPeriph_Driver/src/stm32f4xx_rcc.c ****            (++) when VOS[1:0] = '0x01', the maximum value of fHCLK is 120MHz.
1042:Libraries/STM32F4xx_StdPeriph_Driver/src/stm32f4xx_rcc.c ****            (++) when VOS[1:0] = '0x10', the maximum value of fHCLK is 144MHz.
1043:Libraries/STM32F4xx_StdPeriph_Driver/src/stm32f4xx_rcc.c ****            (++) when VOS[1:0] = '0x11', the maximum value of f  is 168MHz 
1044:Libraries/STM32F4xx_StdPeriph_Driver/src/stm32f4xx_rcc.c ****           [..]  
1045:Libraries/STM32F4xx_StdPeriph_Driver/src/stm32f4xx_rcc.c ****           On STM32F401x devices:
1046:Libraries/STM32F4xx_StdPeriph_Driver/src/stm32f4xx_rcc.c ****            (++) when VOS[1:0] = '0x01', the maximum value of fHCLK is 64MHz.
1047:Libraries/STM32F4xx_StdPeriph_Driver/src/stm32f4xx_rcc.c ****            (++) when VOS[1:0] = '0x10', the maximum value of fHCLK is 84MHz.
1048:Libraries/STM32F4xx_StdPeriph_Driver/src/stm32f4xx_rcc.c ****           On STM32F411xE devices:
1049:Libraries/STM32F4xx_StdPeriph_Driver/src/stm32f4xx_rcc.c ****            (++) when VOS[1:0] = '0x01' the maximum value of fHCLK is 64MHz.
1050:Libraries/STM32F4xx_StdPeriph_Driver/src/stm32f4xx_rcc.c ****            (++) when VOS[1:0] = '0x10' the maximum value of fHCLK is 84MHz.
1051:Libraries/STM32F4xx_StdPeriph_Driver/src/stm32f4xx_rcc.c ****            (++) when VOS[1:0] = '0x11' the maximum value of fHCLK is 100MHz.
1052:Libraries/STM32F4xx_StdPeriph_Driver/src/stm32f4xx_rcc.c **** 
1053:Libraries/STM32F4xx_StdPeriph_Driver/src/stm32f4xx_rcc.c ****        You can use PWR_MainRegulatorModeConfig() function to control VOS bits.
1054:Libraries/STM32F4xx_StdPeriph_Driver/src/stm32f4xx_rcc.c **** 
1055:Libraries/STM32F4xx_StdPeriph_Driver/src/stm32f4xx_rcc.c **** @endverbatim
1056:Libraries/STM32F4xx_StdPeriph_Driver/src/stm32f4xx_rcc.c ****   * @{
1057:Libraries/STM32F4xx_StdPeriph_Driver/src/stm32f4xx_rcc.c ****   */
1058:Libraries/STM32F4xx_StdPeriph_Driver/src/stm32f4xx_rcc.c **** 
1059:Libraries/STM32F4xx_StdPeriph_Driver/src/stm32f4xx_rcc.c **** /**
1060:Libraries/STM32F4xx_StdPeriph_Driver/src/stm32f4xx_rcc.c ****   * @brief  Configures the system clock (SYSCLK).
1061:Libraries/STM32F4xx_StdPeriph_Driver/src/stm32f4xx_rcc.c ****   * @note   The HSI is used (enabled by hardware) as system clock source after
1062:Libraries/STM32F4xx_StdPeriph_Driver/src/stm32f4xx_rcc.c ****   *         startup from Reset, wake-up from STOP and STANDBY mode, or in case
1063:Libraries/STM32F4xx_StdPeriph_Driver/src/stm32f4xx_rcc.c ****   *         of failure of the HSE used directly or indirectly as system clock
1064:Libraries/STM32F4xx_StdPeriph_Driver/src/stm32f4xx_rcc.c ****   *         (if the Clock Security System CSS is enabled).
1065:Libraries/STM32F4xx_StdPeriph_Driver/src/stm32f4xx_rcc.c ****   * @note   A switch from one clock source to another occurs only if the target
1066:Libraries/STM32F4xx_StdPeriph_Driver/src/stm32f4xx_rcc.c ****   *         clock source is ready (clock stable after startup delay or PLL locked). 
1067:Libraries/STM32F4xx_StdPeriph_Driver/src/stm32f4xx_rcc.c ****   *         If a clock source which is not yet ready is selected, the switch will
1068:Libraries/STM32F4xx_StdPeriph_Driver/src/stm32f4xx_rcc.c ****   *         occur when the clock source will be ready. 
1069:Libraries/STM32F4xx_StdPeriph_Driver/src/stm32f4xx_rcc.c ****   *         You can use RCC_GetSYSCLKSource() function to know which clock is
1070:Libraries/STM32F4xx_StdPeriph_Driver/src/stm32f4xx_rcc.c ****   *         currently used as system clock source. 
1071:Libraries/STM32F4xx_StdPeriph_Driver/src/stm32f4xx_rcc.c ****   * @param  RCC_SYSCLKSource: specifies the clock source used as system clock.
1072:Libraries/STM32F4xx_StdPeriph_Driver/src/stm32f4xx_rcc.c ****   *          This parameter can be one of the following values:
1073:Libraries/STM32F4xx_StdPeriph_Driver/src/stm32f4xx_rcc.c ****   *            @arg RCC_SYSCLKSource_HSI: HSI selected as system clock source
1074:Libraries/STM32F4xx_StdPeriph_Driver/src/stm32f4xx_rcc.c ****   *            @arg RCC_SYSCLKSource_HSE: HSE selected as system clock source
1075:Libraries/STM32F4xx_StdPeriph_Driver/src/stm32f4xx_rcc.c ****   *            @arg RCC_SYSCLKSource_PLLCLK: PLL selected as system clock source (RCC_SYSCLKSource_
1076:Libraries/STM32F4xx_StdPeriph_Driver/src/stm32f4xx_rcc.c ****   *            @arg RCC_SYSCLKSource_PLLRCLK: PLL R selected as system clock source only for STM32F
1077:Libraries/STM32F4xx_StdPeriph_Driver/src/stm32f4xx_rcc.c ****   * @retval None
1078:Libraries/STM32F4xx_StdPeriph_Driver/src/stm32f4xx_rcc.c ****   */
1079:Libraries/STM32F4xx_StdPeriph_Driver/src/stm32f4xx_rcc.c **** void RCC_SYSCLKConfig(uint32_t RCC_SYSCLKSource)
1080:Libraries/STM32F4xx_StdPeriph_Driver/src/stm32f4xx_rcc.c **** {
1081:Libraries/STM32F4xx_StdPeriph_Driver/src/stm32f4xx_rcc.c ****   uint32_t tmpreg = 0;
1082:Libraries/STM32F4xx_StdPeriph_Driver/src/stm32f4xx_rcc.c **** 
1083:Libraries/STM32F4xx_StdPeriph_Driver/src/stm32f4xx_rcc.c ****   /* Check the parameters */
1084:Libraries/STM32F4xx_StdPeriph_Driver/src/stm32f4xx_rcc.c ****   assert_param(IS_RCC_SYSCLK_SOURCE(RCC_SYSCLKSource));
1085:Libraries/STM32F4xx_StdPeriph_Driver/src/stm32f4xx_rcc.c **** 
1086:Libraries/STM32F4xx_StdPeriph_Driver/src/stm32f4xx_rcc.c ****   tmpreg = RCC->CFGR;
1087:Libraries/STM32F4xx_StdPeriph_Driver/src/stm32f4xx_rcc.c **** 
1088:Libraries/STM32F4xx_StdPeriph_Driver/src/stm32f4xx_rcc.c ****   /* Clear SW[1:0] bits */
1089:Libraries/STM32F4xx_StdPeriph_Driver/src/stm32f4xx_rcc.c ****   tmpreg &= ~RCC_CFGR_SW;
1090:Libraries/STM32F4xx_StdPeriph_Driver/src/stm32f4xx_rcc.c **** 
1091:Libraries/STM32F4xx_StdPeriph_Driver/src/stm32f4xx_rcc.c ****   /* Set SW[1:0] bits according to RCC_SYSCLKSource value */
1092:Libraries/STM32F4xx_StdPeriph_Driver/src/stm32f4xx_rcc.c ****   tmpreg |= RCC_SYSCLKSource;
1093:Libraries/STM32F4xx_StdPeriph_Driver/src/stm32f4xx_rcc.c **** 
1094:Libraries/STM32F4xx_StdPeriph_Driver/src/stm32f4xx_rcc.c ****   /* Store the new value */
1095:Libraries/STM32F4xx_StdPeriph_Driver/src/stm32f4xx_rcc.c ****   RCC->CFGR = tmpreg;
1096:Libraries/STM32F4xx_StdPeriph_Driver/src/stm32f4xx_rcc.c **** }
1097:Libraries/STM32F4xx_StdPeriph_Driver/src/stm32f4xx_rcc.c **** 
1098:Libraries/STM32F4xx_StdPeriph_Driver/src/stm32f4xx_rcc.c **** /**
1099:Libraries/STM32F4xx_StdPeriph_Driver/src/stm32f4xx_rcc.c ****   * @brief  Returns the clock source used as system clock.
1100:Libraries/STM32F4xx_StdPeriph_Driver/src/stm32f4xx_rcc.c ****   * @param  None
1101:Libraries/STM32F4xx_StdPeriph_Driver/src/stm32f4xx_rcc.c ****   * @retval The clock source used as system clock. The returned value can be one
1102:Libraries/STM32F4xx_StdPeriph_Driver/src/stm32f4xx_rcc.c ****   *         of the following:
1103:Libraries/STM32F4xx_StdPeriph_Driver/src/stm32f4xx_rcc.c ****   *              - 0x00: HSI used as system clock
1104:Libraries/STM32F4xx_StdPeriph_Driver/src/stm32f4xx_rcc.c ****   *              - 0x04: HSE used as system clock
1105:Libraries/STM32F4xx_StdPeriph_Driver/src/stm32f4xx_rcc.c ****   *              - 0x08: PLL used as system clock (PLL P for STM32F446xx devices)
1106:Libraries/STM32F4xx_StdPeriph_Driver/src/stm32f4xx_rcc.c ****   *              - 0x0C: PLL R used as system clock (only for STM32F446xx devices)
1107:Libraries/STM32F4xx_StdPeriph_Driver/src/stm32f4xx_rcc.c ****   */
1108:Libraries/STM32F4xx_StdPeriph_Driver/src/stm32f4xx_rcc.c **** uint8_t RCC_GetSYSCLKSource(void)
1109:Libraries/STM32F4xx_StdPeriph_Driver/src/stm32f4xx_rcc.c **** {
1110:Libraries/STM32F4xx_StdPeriph_Driver/src/stm32f4xx_rcc.c ****   return ((uint8_t)(RCC->CFGR & RCC_CFGR_SWS));
1111:Libraries/STM32F4xx_StdPeriph_Driver/src/stm32f4xx_rcc.c **** }
1112:Libraries/STM32F4xx_StdPeriph_Driver/src/stm32f4xx_rcc.c **** 
1113:Libraries/STM32F4xx_StdPeriph_Driver/src/stm32f4xx_rcc.c **** /**
1114:Libraries/STM32F4xx_StdPeriph_Driver/src/stm32f4xx_rcc.c ****   * @brief  Configures the AHB clock (HCLK).
1115:Libraries/STM32F4xx_StdPeriph_Driver/src/stm32f4xx_rcc.c ****   * @note   Depending on the device voltage range, the software has to set correctly
1116:Libraries/STM32F4xx_StdPeriph_Driver/src/stm32f4xx_rcc.c ****   *         these bits to ensure that HCLK not exceed the maximum allowed frequency
1117:Libraries/STM32F4xx_StdPeriph_Driver/src/stm32f4xx_rcc.c ****   *         (for more details refer to section above
1118:Libraries/STM32F4xx_StdPeriph_Driver/src/stm32f4xx_rcc.c ****   *           "CPU, AHB and APB busses clocks configuration functions")
1119:Libraries/STM32F4xx_StdPeriph_Driver/src/stm32f4xx_rcc.c ****   * @param  RCC_SYSCLK: defines the AHB clock divider. This clock is derived from 
1120:Libraries/STM32F4xx_StdPeriph_Driver/src/stm32f4xx_rcc.c ****   *         the system clock (SYSCLK).
1121:Libraries/STM32F4xx_StdPeriph_Driver/src/stm32f4xx_rcc.c ****   *          This parameter can be one of the following values:
1122:Libraries/STM32F4xx_StdPeriph_Driver/src/stm32f4xx_rcc.c ****   *            @arg RCC_SYSCLK_Div1: AHB clock = SYSCLK
1123:Libraries/STM32F4xx_StdPeriph_Driver/src/stm32f4xx_rcc.c ****   *            @arg RCC_SYSCLK_Div2: AHB clock = SYSCLK/2
1124:Libraries/STM32F4xx_StdPeriph_Driver/src/stm32f4xx_rcc.c ****   *            @arg RCC_SYSCLK_Div4: AHB clock = SYSCLK/4
1125:Libraries/STM32F4xx_StdPeriph_Driver/src/stm32f4xx_rcc.c ****   *            @arg RCC_SYSCLK_Div8: AHB clock = SYSCLK/8
1126:Libraries/STM32F4xx_StdPeriph_Driver/src/stm32f4xx_rcc.c ****   *            @arg RCC_SYSCLK_Div16: AHB clock = SYSCLK/16
1127:Libraries/STM32F4xx_StdPeriph_Driver/src/stm32f4xx_rcc.c ****   *            @arg RCC_SYSCLK_Div64: AHB clock = SYSCLK/64
1128:Libraries/STM32F4xx_StdPeriph_Driver/src/stm32f4xx_rcc.c ****   *            @arg RCC_SYSCLK_Div128: AHB clock = SYSCLK/128
1129:Libraries/STM32F4xx_StdPeriph_Driver/src/stm32f4xx_rcc.c ****   *            @arg RCC_SYSCLK_Div256: AHB clock = SYSCLK/256
1130:Libraries/STM32F4xx_StdPeriph_Driver/src/stm32f4xx_rcc.c ****   *            @arg RCC_SYSCLK_Div512: AHB clock = SYSCLK/512
1131:Libraries/STM32F4xx_StdPeriph_Driver/src/stm32f4xx_rcc.c ****   * @retval None
1132:Libraries/STM32F4xx_StdPeriph_Driver/src/stm32f4xx_rcc.c ****   */
1133:Libraries/STM32F4xx_StdPeriph_Driver/src/stm32f4xx_rcc.c **** void RCC_HCLKConfig(uint32_t RCC_SYSCLK)
1134:Libraries/STM32F4xx_StdPeriph_Driver/src/stm32f4xx_rcc.c **** {
1135:Libraries/STM32F4xx_StdPeriph_Driver/src/stm32f4xx_rcc.c ****   uint32_t tmpreg = 0;
1136:Libraries/STM32F4xx_StdPeriph_Driver/src/stm32f4xx_rcc.c ****   
1137:Libraries/STM32F4xx_StdPeriph_Driver/src/stm32f4xx_rcc.c ****   /* Check the parameters */
1138:Libraries/STM32F4xx_StdPeriph_Driver/src/stm32f4xx_rcc.c ****   assert_param(IS_RCC_HCLK(RCC_SYSCLK));
1139:Libraries/STM32F4xx_StdPeriph_Driver/src/stm32f4xx_rcc.c **** 
1140:Libraries/STM32F4xx_StdPeriph_Driver/src/stm32f4xx_rcc.c ****   tmpreg = RCC->CFGR;
1141:Libraries/STM32F4xx_StdPeriph_Driver/src/stm32f4xx_rcc.c **** 
1142:Libraries/STM32F4xx_StdPeriph_Driver/src/stm32f4xx_rcc.c ****   /* Clear HPRE[3:0] bits */
1143:Libraries/STM32F4xx_StdPeriph_Driver/src/stm32f4xx_rcc.c ****   tmpreg &= ~RCC_CFGR_HPRE;
1144:Libraries/STM32F4xx_StdPeriph_Driver/src/stm32f4xx_rcc.c **** 
1145:Libraries/STM32F4xx_StdPeriph_Driver/src/stm32f4xx_rcc.c ****   /* Set HPRE[3:0] bits according to RCC_SYSCLK value */
1146:Libraries/STM32F4xx_StdPeriph_Driver/src/stm32f4xx_rcc.c ****   tmpreg |= RCC_SYSCLK;
1147:Libraries/STM32F4xx_StdPeriph_Driver/src/stm32f4xx_rcc.c **** 
1148:Libraries/STM32F4xx_StdPeriph_Driver/src/stm32f4xx_rcc.c ****   /* Store the new value */
1149:Libraries/STM32F4xx_StdPeriph_Driver/src/stm32f4xx_rcc.c ****   RCC->CFGR = tmpreg;
1150:Libraries/STM32F4xx_StdPeriph_Driver/src/stm32f4xx_rcc.c **** }
1151:Libraries/STM32F4xx_StdPeriph_Driver/src/stm32f4xx_rcc.c **** 
1152:Libraries/STM32F4xx_StdPeriph_Driver/src/stm32f4xx_rcc.c **** 
1153:Libraries/STM32F4xx_StdPeriph_Driver/src/stm32f4xx_rcc.c **** /**
1154:Libraries/STM32F4xx_StdPeriph_Driver/src/stm32f4xx_rcc.c ****   * @brief  Configures the Low Speed APB clock (PCLK1).
1155:Libraries/STM32F4xx_StdPeriph_Driver/src/stm32f4xx_rcc.c ****   * @param  RCC_HCLK: defines the APB1 clock divider. This clock is derived from 
1156:Libraries/STM32F4xx_StdPeriph_Driver/src/stm32f4xx_rcc.c ****   *         the AHB clock (HCLK).
1157:Libraries/STM32F4xx_StdPeriph_Driver/src/stm32f4xx_rcc.c ****   *          This parameter can be one of the following values:
1158:Libraries/STM32F4xx_StdPeriph_Driver/src/stm32f4xx_rcc.c ****   *            @arg RCC_HCLK_Div1:  APB1 clock = HCLK
1159:Libraries/STM32F4xx_StdPeriph_Driver/src/stm32f4xx_rcc.c ****   *            @arg RCC_HCLK_Div2:  APB1 clock = HCLK/2
1160:Libraries/STM32F4xx_StdPeriph_Driver/src/stm32f4xx_rcc.c ****   *            @arg RCC_HCLK_Div4:  APB1 clock = HCLK/4
1161:Libraries/STM32F4xx_StdPeriph_Driver/src/stm32f4xx_rcc.c ****   *            @arg RCC_HCLK_Div8:  APB1 clock = HCLK/8
1162:Libraries/STM32F4xx_StdPeriph_Driver/src/stm32f4xx_rcc.c ****   *            @arg RCC_HCLK_Div16: APB1 clock = HCLK/16
1163:Libraries/STM32F4xx_StdPeriph_Driver/src/stm32f4xx_rcc.c ****   * @retval None
1164:Libraries/STM32F4xx_StdPeriph_Driver/src/stm32f4xx_rcc.c ****   */
1165:Libraries/STM32F4xx_StdPeriph_Driver/src/stm32f4xx_rcc.c **** void RCC_PCLK1Config(uint32_t RCC_HCLK)
1166:Libraries/STM32F4xx_StdPeriph_Driver/src/stm32f4xx_rcc.c **** {
1167:Libraries/STM32F4xx_StdPeriph_Driver/src/stm32f4xx_rcc.c ****   uint32_t tmpreg = 0;
1168:Libraries/STM32F4xx_StdPeriph_Driver/src/stm32f4xx_rcc.c **** 
1169:Libraries/STM32F4xx_StdPeriph_Driver/src/stm32f4xx_rcc.c ****   /* Check the parameters */
1170:Libraries/STM32F4xx_StdPeriph_Driver/src/stm32f4xx_rcc.c ****   assert_param(IS_RCC_PCLK(RCC_HCLK));
1171:Libraries/STM32F4xx_StdPeriph_Driver/src/stm32f4xx_rcc.c **** 
1172:Libraries/STM32F4xx_StdPeriph_Driver/src/stm32f4xx_rcc.c ****   tmpreg = RCC->CFGR;
1173:Libraries/STM32F4xx_StdPeriph_Driver/src/stm32f4xx_rcc.c **** 
1174:Libraries/STM32F4xx_StdPeriph_Driver/src/stm32f4xx_rcc.c ****   /* Clear PPRE1[2:0] bits */
1175:Libraries/STM32F4xx_StdPeriph_Driver/src/stm32f4xx_rcc.c ****   tmpreg &= ~RCC_CFGR_PPRE1;
1176:Libraries/STM32F4xx_StdPeriph_Driver/src/stm32f4xx_rcc.c **** 
1177:Libraries/STM32F4xx_StdPeriph_Driver/src/stm32f4xx_rcc.c ****   /* Set PPRE1[2:0] bits according to RCC_HCLK value */
1178:Libraries/STM32F4xx_StdPeriph_Driver/src/stm32f4xx_rcc.c ****   tmpreg |= RCC_HCLK;
1179:Libraries/STM32F4xx_StdPeriph_Driver/src/stm32f4xx_rcc.c **** 
1180:Libraries/STM32F4xx_StdPeriph_Driver/src/stm32f4xx_rcc.c ****   /* Store the new value */
1181:Libraries/STM32F4xx_StdPeriph_Driver/src/stm32f4xx_rcc.c ****   RCC->CFGR = tmpreg;
1182:Libraries/STM32F4xx_StdPeriph_Driver/src/stm32f4xx_rcc.c **** }
1183:Libraries/STM32F4xx_StdPeriph_Driver/src/stm32f4xx_rcc.c **** 
1184:Libraries/STM32F4xx_StdPeriph_Driver/src/stm32f4xx_rcc.c **** /**
1185:Libraries/STM32F4xx_StdPeriph_Driver/src/stm32f4xx_rcc.c ****   * @brief  Configures the High Speed APB clock (PCLK2).
1186:Libraries/STM32F4xx_StdPeriph_Driver/src/stm32f4xx_rcc.c ****   * @param  RCC_HCLK: defines the APB2 clock divider. This clock is derived from 
1187:Libraries/STM32F4xx_StdPeriph_Driver/src/stm32f4xx_rcc.c ****   *         the AHB clock (HCLK).
1188:Libraries/STM32F4xx_StdPeriph_Driver/src/stm32f4xx_rcc.c ****   *          This parameter can be one of the following values:
1189:Libraries/STM32F4xx_StdPeriph_Driver/src/stm32f4xx_rcc.c ****   *            @arg RCC_HCLK_Div1:  APB2 clock = HCLK
1190:Libraries/STM32F4xx_StdPeriph_Driver/src/stm32f4xx_rcc.c ****   *            @arg RCC_HCLK_Div2:  APB2 clock = HCLK/2
1191:Libraries/STM32F4xx_StdPeriph_Driver/src/stm32f4xx_rcc.c ****   *            @arg RCC_HCLK_Div4:  APB2 clock = HCLK/4
1192:Libraries/STM32F4xx_StdPeriph_Driver/src/stm32f4xx_rcc.c ****   *            @arg RCC_HCLK_Div8:  APB2 clock = HCLK/8
1193:Libraries/STM32F4xx_StdPeriph_Driver/src/stm32f4xx_rcc.c ****   *            @arg RCC_HCLK_Div16: APB2 clock = HCLK/16
1194:Libraries/STM32F4xx_StdPeriph_Driver/src/stm32f4xx_rcc.c ****   * @retval None
1195:Libraries/STM32F4xx_StdPeriph_Driver/src/stm32f4xx_rcc.c ****   */
1196:Libraries/STM32F4xx_StdPeriph_Driver/src/stm32f4xx_rcc.c **** void RCC_PCLK2Config(uint32_t RCC_HCLK)
1197:Libraries/STM32F4xx_StdPeriph_Driver/src/stm32f4xx_rcc.c **** {
1198:Libraries/STM32F4xx_StdPeriph_Driver/src/stm32f4xx_rcc.c ****   uint32_t tmpreg = 0;
1199:Libraries/STM32F4xx_StdPeriph_Driver/src/stm32f4xx_rcc.c **** 
1200:Libraries/STM32F4xx_StdPeriph_Driver/src/stm32f4xx_rcc.c ****   /* Check the parameters */
1201:Libraries/STM32F4xx_StdPeriph_Driver/src/stm32f4xx_rcc.c ****   assert_param(IS_RCC_PCLK(RCC_HCLK));
1202:Libraries/STM32F4xx_StdPeriph_Driver/src/stm32f4xx_rcc.c **** 
1203:Libraries/STM32F4xx_StdPeriph_Driver/src/stm32f4xx_rcc.c ****   tmpreg = RCC->CFGR;
1204:Libraries/STM32F4xx_StdPeriph_Driver/src/stm32f4xx_rcc.c **** 
1205:Libraries/STM32F4xx_StdPeriph_Driver/src/stm32f4xx_rcc.c ****   /* Clear PPRE2[2:0] bits */
1206:Libraries/STM32F4xx_StdPeriph_Driver/src/stm32f4xx_rcc.c ****   tmpreg &= ~RCC_CFGR_PPRE2;
1207:Libraries/STM32F4xx_StdPeriph_Driver/src/stm32f4xx_rcc.c **** 
1208:Libraries/STM32F4xx_StdPeriph_Driver/src/stm32f4xx_rcc.c ****   /* Set PPRE2[2:0] bits according to RCC_HCLK value */
1209:Libraries/STM32F4xx_StdPeriph_Driver/src/stm32f4xx_rcc.c ****   tmpreg |= RCC_HCLK << 3;
1210:Libraries/STM32F4xx_StdPeriph_Driver/src/stm32f4xx_rcc.c **** 
1211:Libraries/STM32F4xx_StdPeriph_Driver/src/stm32f4xx_rcc.c ****   /* Store the new value */
1212:Libraries/STM32F4xx_StdPeriph_Driver/src/stm32f4xx_rcc.c ****   RCC->CFGR = tmpreg;
1213:Libraries/STM32F4xx_StdPeriph_Driver/src/stm32f4xx_rcc.c **** }
1214:Libraries/STM32F4xx_StdPeriph_Driver/src/stm32f4xx_rcc.c **** 
1215:Libraries/STM32F4xx_StdPeriph_Driver/src/stm32f4xx_rcc.c **** /**
1216:Libraries/STM32F4xx_StdPeriph_Driver/src/stm32f4xx_rcc.c ****   * @brief  Returns the frequencies of different on chip clocks; SYSCLK, HCLK, 
1217:Libraries/STM32F4xx_StdPeriph_Driver/src/stm32f4xx_rcc.c ****   *         PCLK1 and PCLK2.       
1218:Libraries/STM32F4xx_StdPeriph_Driver/src/stm32f4xx_rcc.c ****   * 
1219:Libraries/STM32F4xx_StdPeriph_Driver/src/stm32f4xx_rcc.c ****   * @note   The system frequency computed by this function is not the real 
1220:Libraries/STM32F4xx_StdPeriph_Driver/src/stm32f4xx_rcc.c ****   *         frequency in the chip. It is calculated based on the predefined 
1221:Libraries/STM32F4xx_StdPeriph_Driver/src/stm32f4xx_rcc.c ****   *         constant and the selected clock source:
1222:Libraries/STM32F4xx_StdPeriph_Driver/src/stm32f4xx_rcc.c ****   * @note     If SYSCLK source is HSI, function returns values based on HSI_VALUE(*)
1223:Libraries/STM32F4xx_StdPeriph_Driver/src/stm32f4xx_rcc.c ****   * @note     If SYSCLK source is HSE, function returns values based on HSE_VALUE(**)
1224:Libraries/STM32F4xx_StdPeriph_Driver/src/stm32f4xx_rcc.c ****   * @note     If SYSCLK source is PLL, function returns values based on HSE_VALUE(**) 
1225:Libraries/STM32F4xx_StdPeriph_Driver/src/stm32f4xx_rcc.c ****   *           or HSI_VALUE(*) multiplied/divided by the PLL factors.         
1226:Libraries/STM32F4xx_StdPeriph_Driver/src/stm32f4xx_rcc.c ****   * @note     (*) HSI_VALUE is a constant defined in stm32f4xx.h file (default value
1227:Libraries/STM32F4xx_StdPeriph_Driver/src/stm32f4xx_rcc.c ****   *               16 MHz) but the real value may vary depending on the variations
1228:Libraries/STM32F4xx_StdPeriph_Driver/src/stm32f4xx_rcc.c ****   *               in voltage and temperature.
1229:Libraries/STM32F4xx_StdPeriph_Driver/src/stm32f4xx_rcc.c ****   * @note     (**) HSE_VALUE is a constant defined in stm32f4xx.h file (default value
1230:Libraries/STM32F4xx_StdPeriph_Driver/src/stm32f4xx_rcc.c ****   *                25 MHz), user has to ensure that HSE_VALUE is same as the real
1231:Libraries/STM32F4xx_StdPeriph_Driver/src/stm32f4xx_rcc.c ****   *                frequency of the crystal used. Otherwise, this function may
1232:Libraries/STM32F4xx_StdPeriph_Driver/src/stm32f4xx_rcc.c ****   *                have wrong result.
1233:Libraries/STM32F4xx_StdPeriph_Driver/src/stm32f4xx_rcc.c ****   *                
1234:Libraries/STM32F4xx_StdPeriph_Driver/src/stm32f4xx_rcc.c ****   * @note   The result of this function could be not correct when using fractional
1235:Libraries/STM32F4xx_StdPeriph_Driver/src/stm32f4xx_rcc.c ****   *         value for HSE crystal.
1236:Libraries/STM32F4xx_StdPeriph_Driver/src/stm32f4xx_rcc.c ****   *   
1237:Libraries/STM32F4xx_StdPeriph_Driver/src/stm32f4xx_rcc.c ****   * @param  RCC_Clocks: pointer to a RCC_ClocksTypeDef structure which will hold
1238:Libraries/STM32F4xx_StdPeriph_Driver/src/stm32f4xx_rcc.c ****   *          the clocks frequencies.
1239:Libraries/STM32F4xx_StdPeriph_Driver/src/stm32f4xx_rcc.c ****   *     
1240:Libraries/STM32F4xx_StdPeriph_Driver/src/stm32f4xx_rcc.c ****   * @note   This function can be used by the user application to compute the 
1241:Libraries/STM32F4xx_StdPeriph_Driver/src/stm32f4xx_rcc.c ****   *         baudrate for the communication peripherals or configure other parameters.
1242:Libraries/STM32F4xx_StdPeriph_Driver/src/stm32f4xx_rcc.c ****   * @note   Each time SYSCLK, HCLK, PCLK1 and/or PCLK2 clock changes, this function
1243:Libraries/STM32F4xx_StdPeriph_Driver/src/stm32f4xx_rcc.c ****   *         must be called to update the structure's field. Otherwise, any
1244:Libraries/STM32F4xx_StdPeriph_Driver/src/stm32f4xx_rcc.c ****   *         configuration based on this function will be incorrect.
1245:Libraries/STM32F4xx_StdPeriph_Driver/src/stm32f4xx_rcc.c ****   *    
1246:Libraries/STM32F4xx_StdPeriph_Driver/src/stm32f4xx_rcc.c ****   * @retval None
1247:Libraries/STM32F4xx_StdPeriph_Driver/src/stm32f4xx_rcc.c ****   */
1248:Libraries/STM32F4xx_StdPeriph_Driver/src/stm32f4xx_rcc.c **** void RCC_GetClocksFreq(RCC_ClocksTypeDef* RCC_Clocks)
1249:Libraries/STM32F4xx_StdPeriph_Driver/src/stm32f4xx_rcc.c **** {
1250:Libraries/STM32F4xx_StdPeriph_Driver/src/stm32f4xx_rcc.c ****   uint32_t tmp = 0, presc = 0, pllvco = 0, pllp = 2, pllsource = 0, pllm = 2;
1251:Libraries/STM32F4xx_StdPeriph_Driver/src/stm32f4xx_rcc.c **** #if defined(STM32F446xx)  
1252:Libraries/STM32F4xx_StdPeriph_Driver/src/stm32f4xx_rcc.c ****   uint32_t pllr = 2;
1253:Libraries/STM32F4xx_StdPeriph_Driver/src/stm32f4xx_rcc.c **** #endif /* STM32F446xx */
1254:Libraries/STM32F4xx_StdPeriph_Driver/src/stm32f4xx_rcc.c ****   
1255:Libraries/STM32F4xx_StdPeriph_Driver/src/stm32f4xx_rcc.c ****   /* Get SYSCLK source -------------------------------------------------------*/
1256:Libraries/STM32F4xx_StdPeriph_Driver/src/stm32f4xx_rcc.c ****   tmp = RCC->CFGR & RCC_CFGR_SWS;
1257:Libraries/STM32F4xx_StdPeriph_Driver/src/stm32f4xx_rcc.c ****   
1258:Libraries/STM32F4xx_StdPeriph_Driver/src/stm32f4xx_rcc.c ****   switch (tmp)
1259:Libraries/STM32F4xx_StdPeriph_Driver/src/stm32f4xx_rcc.c ****   {
1260:Libraries/STM32F4xx_StdPeriph_Driver/src/stm32f4xx_rcc.c ****   case 0x00:  /* HSI used as system clock source */
1261:Libraries/STM32F4xx_StdPeriph_Driver/src/stm32f4xx_rcc.c ****     RCC_Clocks->SYSCLK_Frequency = HSI_VALUE;
1262:Libraries/STM32F4xx_StdPeriph_Driver/src/stm32f4xx_rcc.c ****     break;
1263:Libraries/STM32F4xx_StdPeriph_Driver/src/stm32f4xx_rcc.c ****   case 0x04:  /* HSE used as system clock  source */
1264:Libraries/STM32F4xx_StdPeriph_Driver/src/stm32f4xx_rcc.c ****     RCC_Clocks->SYSCLK_Frequency = HSE_VALUE;
1265:Libraries/STM32F4xx_StdPeriph_Driver/src/stm32f4xx_rcc.c ****     break;
1266:Libraries/STM32F4xx_StdPeriph_Driver/src/stm32f4xx_rcc.c ****   case 0x08:  /* PLL P used as system clock  source */
1267:Libraries/STM32F4xx_StdPeriph_Driver/src/stm32f4xx_rcc.c ****     
1268:Libraries/STM32F4xx_StdPeriph_Driver/src/stm32f4xx_rcc.c ****     /* PLL_VCO = (HSE_VALUE or HSI_VALUE / PLLM) * PLLN
1269:Libraries/STM32F4xx_StdPeriph_Driver/src/stm32f4xx_rcc.c ****     SYSCLK = PLL_VCO / PLLP
1270:Libraries/STM32F4xx_StdPeriph_Driver/src/stm32f4xx_rcc.c ****     */    
1271:Libraries/STM32F4xx_StdPeriph_Driver/src/stm32f4xx_rcc.c ****     pllsource = (RCC->PLLCFGR & RCC_PLLCFGR_PLLSRC) >> 22;
1272:Libraries/STM32F4xx_StdPeriph_Driver/src/stm32f4xx_rcc.c ****     pllm = RCC->PLLCFGR & RCC_PLLCFGR_PLLM;
1273:Libraries/STM32F4xx_StdPeriph_Driver/src/stm32f4xx_rcc.c ****     
1274:Libraries/STM32F4xx_StdPeriph_Driver/src/stm32f4xx_rcc.c ****     if (pllsource != 0)
1275:Libraries/STM32F4xx_StdPeriph_Driver/src/stm32f4xx_rcc.c ****     {
1276:Libraries/STM32F4xx_StdPeriph_Driver/src/stm32f4xx_rcc.c ****       /* HSE used as PLL clock source */
1277:Libraries/STM32F4xx_StdPeriph_Driver/src/stm32f4xx_rcc.c ****       pllvco = (HSE_VALUE / pllm) * ((RCC->PLLCFGR & RCC_PLLCFGR_PLLN) >> 6);
1278:Libraries/STM32F4xx_StdPeriph_Driver/src/stm32f4xx_rcc.c ****     }
1279:Libraries/STM32F4xx_StdPeriph_Driver/src/stm32f4xx_rcc.c ****     else
1280:Libraries/STM32F4xx_StdPeriph_Driver/src/stm32f4xx_rcc.c ****     {
1281:Libraries/STM32F4xx_StdPeriph_Driver/src/stm32f4xx_rcc.c ****       /* HSI used as PLL clock source */
1282:Libraries/STM32F4xx_StdPeriph_Driver/src/stm32f4xx_rcc.c ****       pllvco = (HSI_VALUE / pllm) * ((RCC->PLLCFGR & RCC_PLLCFGR_PLLN) >> 6);      
1283:Libraries/STM32F4xx_StdPeriph_Driver/src/stm32f4xx_rcc.c ****     }
1284:Libraries/STM32F4xx_StdPeriph_Driver/src/stm32f4xx_rcc.c ****     
1285:Libraries/STM32F4xx_StdPeriph_Driver/src/stm32f4xx_rcc.c ****     pllp = (((RCC->PLLCFGR & RCC_PLLCFGR_PLLP) >>16) + 1 ) *2;
1286:Libraries/STM32F4xx_StdPeriph_Driver/src/stm32f4xx_rcc.c ****     RCC_Clocks->SYSCLK_Frequency = pllvco/pllp;
1287:Libraries/STM32F4xx_StdPeriph_Driver/src/stm32f4xx_rcc.c ****     break;
1288:Libraries/STM32F4xx_StdPeriph_Driver/src/stm32f4xx_rcc.c **** 
1289:Libraries/STM32F4xx_StdPeriph_Driver/src/stm32f4xx_rcc.c **** #if defined(STM32F446xx)
1290:Libraries/STM32F4xx_StdPeriph_Driver/src/stm32f4xx_rcc.c ****   case 0x0C:  /* PLL R used as system clock  source */
1291:Libraries/STM32F4xx_StdPeriph_Driver/src/stm32f4xx_rcc.c ****     /* PLL_VCO = (HSE_VALUE or HSI_VALUE / PLLM) * PLLN
1292:Libraries/STM32F4xx_StdPeriph_Driver/src/stm32f4xx_rcc.c ****     SYSCLK = PLL_VCO / PLLR
1293:Libraries/STM32F4xx_StdPeriph_Driver/src/stm32f4xx_rcc.c ****     */    
1294:Libraries/STM32F4xx_StdPeriph_Driver/src/stm32f4xx_rcc.c ****     pllsource = (RCC->PLLCFGR & RCC_PLLCFGR_PLLSRC) >> 22;
1295:Libraries/STM32F4xx_StdPeriph_Driver/src/stm32f4xx_rcc.c ****     pllm = RCC->PLLCFGR & RCC_PLLCFGR_PLLM;
1296:Libraries/STM32F4xx_StdPeriph_Driver/src/stm32f4xx_rcc.c ****     
1297:Libraries/STM32F4xx_StdPeriph_Driver/src/stm32f4xx_rcc.c ****     if (pllsource != 0)
1298:Libraries/STM32F4xx_StdPeriph_Driver/src/stm32f4xx_rcc.c ****     {
1299:Libraries/STM32F4xx_StdPeriph_Driver/src/stm32f4xx_rcc.c ****       /* HSE used as PLL clock source */
1300:Libraries/STM32F4xx_StdPeriph_Driver/src/stm32f4xx_rcc.c ****       pllvco = (HSE_VALUE / pllm) * ((RCC->PLLCFGR & RCC_PLLCFGR_PLLN) >> 6);
1301:Libraries/STM32F4xx_StdPeriph_Driver/src/stm32f4xx_rcc.c ****     }
1302:Libraries/STM32F4xx_StdPeriph_Driver/src/stm32f4xx_rcc.c ****     else
1303:Libraries/STM32F4xx_StdPeriph_Driver/src/stm32f4xx_rcc.c ****     {
1304:Libraries/STM32F4xx_StdPeriph_Driver/src/stm32f4xx_rcc.c ****       /* HSI used as PLL clock source */
1305:Libraries/STM32F4xx_StdPeriph_Driver/src/stm32f4xx_rcc.c ****       pllvco = (HSI_VALUE / pllm) * ((RCC->PLLCFGR & RCC_PLLCFGR_PLLN) >> 6);      
1306:Libraries/STM32F4xx_StdPeriph_Driver/src/stm32f4xx_rcc.c ****     }
1307:Libraries/STM32F4xx_StdPeriph_Driver/src/stm32f4xx_rcc.c ****     
1308:Libraries/STM32F4xx_StdPeriph_Driver/src/stm32f4xx_rcc.c ****     pllr = (((RCC->PLLCFGR & RCC_PLLCFGR_PLLR) >>28) + 1 ) *2;
1309:Libraries/STM32F4xx_StdPeriph_Driver/src/stm32f4xx_rcc.c ****     RCC_Clocks->SYSCLK_Frequency = pllvco/pllr;    
1310:Libraries/STM32F4xx_StdPeriph_Driver/src/stm32f4xx_rcc.c ****     break;
1311:Libraries/STM32F4xx_StdPeriph_Driver/src/stm32f4xx_rcc.c **** #endif /* STM32F446xx */
1312:Libraries/STM32F4xx_StdPeriph_Driver/src/stm32f4xx_rcc.c ****     
1313:Libraries/STM32F4xx_StdPeriph_Driver/src/stm32f4xx_rcc.c ****   default:
1314:Libraries/STM32F4xx_StdPeriph_Driver/src/stm32f4xx_rcc.c ****     RCC_Clocks->SYSCLK_Frequency = HSI_VALUE;
1315:Libraries/STM32F4xx_StdPeriph_Driver/src/stm32f4xx_rcc.c ****     break;
1316:Libraries/STM32F4xx_StdPeriph_Driver/src/stm32f4xx_rcc.c ****   }
1317:Libraries/STM32F4xx_StdPeriph_Driver/src/stm32f4xx_rcc.c ****   /* Compute HCLK, PCLK1 and PCLK2 clocks frequencies ------------------------*/
1318:Libraries/STM32F4xx_StdPeriph_Driver/src/stm32f4xx_rcc.c ****   
1319:Libraries/STM32F4xx_StdPeriph_Driver/src/stm32f4xx_rcc.c ****   /* Get HCLK prescaler */
1320:Libraries/STM32F4xx_StdPeriph_Driver/src/stm32f4xx_rcc.c ****   tmp = RCC->CFGR & RCC_CFGR_HPRE;
1321:Libraries/STM32F4xx_StdPeriph_Driver/src/stm32f4xx_rcc.c ****   tmp = tmp >> 4;
1322:Libraries/STM32F4xx_StdPeriph_Driver/src/stm32f4xx_rcc.c ****   presc = APBAHBPrescTable[tmp];
1323:Libraries/STM32F4xx_StdPeriph_Driver/src/stm32f4xx_rcc.c ****   /* HCLK clock frequency */
1324:Libraries/STM32F4xx_StdPeriph_Driver/src/stm32f4xx_rcc.c ****   RCC_Clocks->HCLK_Frequency = RCC_Clocks->SYSCLK_Frequency >> presc;
1325:Libraries/STM32F4xx_StdPeriph_Driver/src/stm32f4xx_rcc.c **** 
1326:Libraries/STM32F4xx_StdPeriph_Driver/src/stm32f4xx_rcc.c ****   /* Get PCLK1 prescaler */
1327:Libraries/STM32F4xx_StdPeriph_Driver/src/stm32f4xx_rcc.c ****   tmp = RCC->CFGR & RCC_CFGR_PPRE1;
1328:Libraries/STM32F4xx_StdPeriph_Driver/src/stm32f4xx_rcc.c ****   tmp = tmp >> 10;
1329:Libraries/STM32F4xx_StdPeriph_Driver/src/stm32f4xx_rcc.c ****   presc = APBAHBPrescTable[tmp];
1330:Libraries/STM32F4xx_StdPeriph_Driver/src/stm32f4xx_rcc.c ****   /* PCLK1 clock frequency */
1331:Libraries/STM32F4xx_StdPeriph_Driver/src/stm32f4xx_rcc.c ****   RCC_Clocks->PCLK1_Frequency = RCC_Clocks->HCLK_Frequency >> presc;
1332:Libraries/STM32F4xx_StdPeriph_Driver/src/stm32f4xx_rcc.c **** 
1333:Libraries/STM32F4xx_StdPeriph_Driver/src/stm32f4xx_rcc.c ****   /* Get PCLK2 prescaler */
1334:Libraries/STM32F4xx_StdPeriph_Driver/src/stm32f4xx_rcc.c ****   tmp = RCC->CFGR & RCC_CFGR_PPRE2;
1335:Libraries/STM32F4xx_StdPeriph_Driver/src/stm32f4xx_rcc.c ****   tmp = tmp >> 13;
1336:Libraries/STM32F4xx_StdPeriph_Driver/src/stm32f4xx_rcc.c ****   presc = APBAHBPrescTable[tmp];
1337:Libraries/STM32F4xx_StdPeriph_Driver/src/stm32f4xx_rcc.c ****   /* PCLK2 clock frequency */
1338:Libraries/STM32F4xx_StdPeriph_Driver/src/stm32f4xx_rcc.c ****   RCC_Clocks->PCLK2_Frequency = RCC_Clocks->HCLK_Frequency >> presc;
1339:Libraries/STM32F4xx_StdPeriph_Driver/src/stm32f4xx_rcc.c **** }
1340:Libraries/STM32F4xx_StdPeriph_Driver/src/stm32f4xx_rcc.c **** 
1341:Libraries/STM32F4xx_StdPeriph_Driver/src/stm32f4xx_rcc.c **** /**
1342:Libraries/STM32F4xx_StdPeriph_Driver/src/stm32f4xx_rcc.c ****   * @}
1343:Libraries/STM32F4xx_StdPeriph_Driver/src/stm32f4xx_rcc.c ****   */
1344:Libraries/STM32F4xx_StdPeriph_Driver/src/stm32f4xx_rcc.c **** 
1345:Libraries/STM32F4xx_StdPeriph_Driver/src/stm32f4xx_rcc.c **** /** @defgroup RCC_Group3 Peripheral clocks configuration functions
1346:Libraries/STM32F4xx_StdPeriph_Driver/src/stm32f4xx_rcc.c ****  *  @brief   Peripheral clocks configuration functions 
1347:Libraries/STM32F4xx_StdPeriph_Driver/src/stm32f4xx_rcc.c ****  *
1348:Libraries/STM32F4xx_StdPeriph_Driver/src/stm32f4xx_rcc.c **** @verbatim   
1349:Libraries/STM32F4xx_StdPeriph_Driver/src/stm32f4xx_rcc.c ****  ===============================================================================
1350:Libraries/STM32F4xx_StdPeriph_Driver/src/stm32f4xx_rcc.c ****               ##### Peripheral clocks configuration functions #####
1351:Libraries/STM32F4xx_StdPeriph_Driver/src/stm32f4xx_rcc.c ****  ===============================================================================  
1352:Libraries/STM32F4xx_StdPeriph_Driver/src/stm32f4xx_rcc.c ****     [..] This section provide functions allowing to configure the Peripheral clocks. 
1353:Libraries/STM32F4xx_StdPeriph_Driver/src/stm32f4xx_rcc.c ****   
1354:Libraries/STM32F4xx_StdPeriph_Driver/src/stm32f4xx_rcc.c ****       (#) The RTC clock which is derived from the LSI, LSE or HSE clock divided 
1355:Libraries/STM32F4xx_StdPeriph_Driver/src/stm32f4xx_rcc.c ****           by 2 to 31.
1356:Libraries/STM32F4xx_StdPeriph_Driver/src/stm32f4xx_rcc.c ****      
1357:Libraries/STM32F4xx_StdPeriph_Driver/src/stm32f4xx_rcc.c ****       (#) After restart from Reset or wakeup from STANDBY, all peripherals are off
1358:Libraries/STM32F4xx_StdPeriph_Driver/src/stm32f4xx_rcc.c ****           except internal SRAM, Flash and JTAG. Before to start using a peripheral 
1359:Libraries/STM32F4xx_StdPeriph_Driver/src/stm32f4xx_rcc.c ****           you have to enable its interface clock. You can do this using 
1360:Libraries/STM32F4xx_StdPeriph_Driver/src/stm32f4xx_rcc.c ****           RCC_AHBPeriphClockCmd(), RCC_APB2PeriphClockCmd() and RCC_APB1PeriphClockCmd() functions.
1361:Libraries/STM32F4xx_StdPeriph_Driver/src/stm32f4xx_rcc.c **** 
1362:Libraries/STM32F4xx_StdPeriph_Driver/src/stm32f4xx_rcc.c ****       (#) To reset the peripherals configuration (to the default state after device reset)
1363:Libraries/STM32F4xx_StdPeriph_Driver/src/stm32f4xx_rcc.c ****           you can use RCC_AHBPeriphResetCmd(), RCC_APB2PeriphResetCmd() and 
1364:Libraries/STM32F4xx_StdPeriph_Driver/src/stm32f4xx_rcc.c ****           RCC_APB1PeriphResetCmd() functions.
1365:Libraries/STM32F4xx_StdPeriph_Driver/src/stm32f4xx_rcc.c ****      
1366:Libraries/STM32F4xx_StdPeriph_Driver/src/stm32f4xx_rcc.c ****       (#) To further reduce power consumption in SLEEP mode the peripheral clocks 
1367:Libraries/STM32F4xx_StdPeriph_Driver/src/stm32f4xx_rcc.c ****           can be disabled prior to executing the WFI or WFE instructions. 
1368:Libraries/STM32F4xx_StdPeriph_Driver/src/stm32f4xx_rcc.c ****           You can do this using RCC_AHBPeriphClockLPModeCmd(), 
1369:Libraries/STM32F4xx_StdPeriph_Driver/src/stm32f4xx_rcc.c ****           RCC_APB2PeriphClockLPModeCmd() and RCC_APB1PeriphClockLPModeCmd() functions.  
1370:Libraries/STM32F4xx_StdPeriph_Driver/src/stm32f4xx_rcc.c **** 
1371:Libraries/STM32F4xx_StdPeriph_Driver/src/stm32f4xx_rcc.c **** @endverbatim
1372:Libraries/STM32F4xx_StdPeriph_Driver/src/stm32f4xx_rcc.c ****   * @{
1373:Libraries/STM32F4xx_StdPeriph_Driver/src/stm32f4xx_rcc.c ****   */
1374:Libraries/STM32F4xx_StdPeriph_Driver/src/stm32f4xx_rcc.c **** 
1375:Libraries/STM32F4xx_StdPeriph_Driver/src/stm32f4xx_rcc.c **** /**
1376:Libraries/STM32F4xx_StdPeriph_Driver/src/stm32f4xx_rcc.c ****   * @brief  Configures the RTC clock (RTCCLK).
1377:Libraries/STM32F4xx_StdPeriph_Driver/src/stm32f4xx_rcc.c ****   * @note   As the RTC clock configuration bits are in the Backup domain and write
1378:Libraries/STM32F4xx_StdPeriph_Driver/src/stm32f4xx_rcc.c ****   *         access is denied to this domain after reset, you have to enable write
1379:Libraries/STM32F4xx_StdPeriph_Driver/src/stm32f4xx_rcc.c ****   *         access using PWR_BackupAccessCmd(ENABLE) function before to configure
1380:Libraries/STM32F4xx_StdPeriph_Driver/src/stm32f4xx_rcc.c ****   *         the RTC clock source (to be done once after reset).    
1381:Libraries/STM32F4xx_StdPeriph_Driver/src/stm32f4xx_rcc.c ****   * @note   Once the RTC clock is configured it can't be changed unless the  
1382:Libraries/STM32F4xx_StdPeriph_Driver/src/stm32f4xx_rcc.c ****   *         Backup domain is reset using RCC_BackupResetCmd() function, or by
1383:Libraries/STM32F4xx_StdPeriph_Driver/src/stm32f4xx_rcc.c ****   *         a Power On Reset (POR).
1384:Libraries/STM32F4xx_StdPeriph_Driver/src/stm32f4xx_rcc.c ****   *    
1385:Libraries/STM32F4xx_StdPeriph_Driver/src/stm32f4xx_rcc.c ****   * @param  RCC_RTCCLKSource: specifies the RTC clock source.
1386:Libraries/STM32F4xx_StdPeriph_Driver/src/stm32f4xx_rcc.c ****   *          This parameter can be one of the following values:
1387:Libraries/STM32F4xx_StdPeriph_Driver/src/stm32f4xx_rcc.c ****   *            @arg RCC_RTCCLKSource_LSE: LSE selected as RTC clock
1388:Libraries/STM32F4xx_StdPeriph_Driver/src/stm32f4xx_rcc.c ****   *            @arg RCC_RTCCLKSource_LSI: LSI selected as RTC clock
1389:Libraries/STM32F4xx_StdPeriph_Driver/src/stm32f4xx_rcc.c ****   *            @arg RCC_RTCCLKSource_HSE_Divx: HSE clock divided by x selected
1390:Libraries/STM32F4xx_StdPeriph_Driver/src/stm32f4xx_rcc.c ****   *                                            as RTC clock, where x:[2,31]
1391:Libraries/STM32F4xx_StdPeriph_Driver/src/stm32f4xx_rcc.c ****   *  
1392:Libraries/STM32F4xx_StdPeriph_Driver/src/stm32f4xx_rcc.c ****   * @note   If the LSE or LSI is used as RTC clock source, the RTC continues to
1393:Libraries/STM32F4xx_StdPeriph_Driver/src/stm32f4xx_rcc.c ****   *         work in STOP and STANDBY modes, and can be used as wakeup source.
1394:Libraries/STM32F4xx_StdPeriph_Driver/src/stm32f4xx_rcc.c ****   *         However, when the HSE clock is used as RTC clock source, the RTC
1395:Libraries/STM32F4xx_StdPeriph_Driver/src/stm32f4xx_rcc.c ****   *         cannot be used in STOP and STANDBY modes.    
1396:Libraries/STM32F4xx_StdPeriph_Driver/src/stm32f4xx_rcc.c ****   * @note   The maximum input clock frequency for RTC is 1MHz (when using HSE as
1397:Libraries/STM32F4xx_StdPeriph_Driver/src/stm32f4xx_rcc.c ****   *         RTC clock source).
1398:Libraries/STM32F4xx_StdPeriph_Driver/src/stm32f4xx_rcc.c ****   *  
1399:Libraries/STM32F4xx_StdPeriph_Driver/src/stm32f4xx_rcc.c ****   * @retval None
1400:Libraries/STM32F4xx_StdPeriph_Driver/src/stm32f4xx_rcc.c ****   */
1401:Libraries/STM32F4xx_StdPeriph_Driver/src/stm32f4xx_rcc.c **** void RCC_RTCCLKConfig(uint32_t RCC_RTCCLKSource)
1402:Libraries/STM32F4xx_StdPeriph_Driver/src/stm32f4xx_rcc.c **** {
1403:Libraries/STM32F4xx_StdPeriph_Driver/src/stm32f4xx_rcc.c ****   uint32_t tmpreg = 0;
1404:Libraries/STM32F4xx_StdPeriph_Driver/src/stm32f4xx_rcc.c **** 
1405:Libraries/STM32F4xx_StdPeriph_Driver/src/stm32f4xx_rcc.c ****   /* Check the parameters */
1406:Libraries/STM32F4xx_StdPeriph_Driver/src/stm32f4xx_rcc.c ****   assert_param(IS_RCC_RTCCLK_SOURCE(RCC_RTCCLKSource));
1407:Libraries/STM32F4xx_StdPeriph_Driver/src/stm32f4xx_rcc.c **** 
1408:Libraries/STM32F4xx_StdPeriph_Driver/src/stm32f4xx_rcc.c ****   if ((RCC_RTCCLKSource & 0x00000300) == 0x00000300)
1409:Libraries/STM32F4xx_StdPeriph_Driver/src/stm32f4xx_rcc.c ****   { /* If HSE is selected as RTC clock source, configure HSE division factor for RTC clock */
1410:Libraries/STM32F4xx_StdPeriph_Driver/src/stm32f4xx_rcc.c ****     tmpreg = RCC->CFGR;
1411:Libraries/STM32F4xx_StdPeriph_Driver/src/stm32f4xx_rcc.c **** 
1412:Libraries/STM32F4xx_StdPeriph_Driver/src/stm32f4xx_rcc.c ****     /* Clear RTCPRE[4:0] bits */
1413:Libraries/STM32F4xx_StdPeriph_Driver/src/stm32f4xx_rcc.c ****     tmpreg &= ~RCC_CFGR_RTCPRE;
1414:Libraries/STM32F4xx_StdPeriph_Driver/src/stm32f4xx_rcc.c **** 
1415:Libraries/STM32F4xx_StdPeriph_Driver/src/stm32f4xx_rcc.c ****     /* Configure HSE division factor for RTC clock */
1416:Libraries/STM32F4xx_StdPeriph_Driver/src/stm32f4xx_rcc.c ****     tmpreg |= (RCC_RTCCLKSource & 0xFFFFCFF);
1417:Libraries/STM32F4xx_StdPeriph_Driver/src/stm32f4xx_rcc.c **** 
1418:Libraries/STM32F4xx_StdPeriph_Driver/src/stm32f4xx_rcc.c ****     /* Store the new value */
1419:Libraries/STM32F4xx_StdPeriph_Driver/src/stm32f4xx_rcc.c ****     RCC->CFGR = tmpreg;
1420:Libraries/STM32F4xx_StdPeriph_Driver/src/stm32f4xx_rcc.c ****   }
1421:Libraries/STM32F4xx_StdPeriph_Driver/src/stm32f4xx_rcc.c ****     
1422:Libraries/STM32F4xx_StdPeriph_Driver/src/stm32f4xx_rcc.c ****   /* Select the RTC clock source */
1423:Libraries/STM32F4xx_StdPeriph_Driver/src/stm32f4xx_rcc.c ****   RCC->BDCR |= (RCC_RTCCLKSource & 0x00000FFF);
1424:Libraries/STM32F4xx_StdPeriph_Driver/src/stm32f4xx_rcc.c **** }
1425:Libraries/STM32F4xx_StdPeriph_Driver/src/stm32f4xx_rcc.c **** 
1426:Libraries/STM32F4xx_StdPeriph_Driver/src/stm32f4xx_rcc.c **** /**
1427:Libraries/STM32F4xx_StdPeriph_Driver/src/stm32f4xx_rcc.c ****   * @brief  Enables or disables the RTC clock.
1428:Libraries/STM32F4xx_StdPeriph_Driver/src/stm32f4xx_rcc.c ****   * @note   This function must be used only after the RTC clock source was selected
1429:Libraries/STM32F4xx_StdPeriph_Driver/src/stm32f4xx_rcc.c ****   *         using the RCC_RTCCLKConfig function.
1430:Libraries/STM32F4xx_StdPeriph_Driver/src/stm32f4xx_rcc.c ****   * @param  NewState: new state of the RTC clock. This parameter can be: ENABLE or DISABLE.
1431:Libraries/STM32F4xx_StdPeriph_Driver/src/stm32f4xx_rcc.c ****   * @retval None
1432:Libraries/STM32F4xx_StdPeriph_Driver/src/stm32f4xx_rcc.c ****   */
1433:Libraries/STM32F4xx_StdPeriph_Driver/src/stm32f4xx_rcc.c **** void RCC_RTCCLKCmd(FunctionalState NewState)
1434:Libraries/STM32F4xx_StdPeriph_Driver/src/stm32f4xx_rcc.c **** {
1435:Libraries/STM32F4xx_StdPeriph_Driver/src/stm32f4xx_rcc.c ****   /* Check the parameters */
1436:Libraries/STM32F4xx_StdPeriph_Driver/src/stm32f4xx_rcc.c ****   assert_param(IS_FUNCTIONAL_STATE(NewState));
1437:Libraries/STM32F4xx_StdPeriph_Driver/src/stm32f4xx_rcc.c **** 
1438:Libraries/STM32F4xx_StdPeriph_Driver/src/stm32f4xx_rcc.c ****   *(__IO uint32_t *) BDCR_RTCEN_BB = (uint32_t)NewState;
1439:Libraries/STM32F4xx_StdPeriph_Driver/src/stm32f4xx_rcc.c **** }
1440:Libraries/STM32F4xx_StdPeriph_Driver/src/stm32f4xx_rcc.c **** 
1441:Libraries/STM32F4xx_StdPeriph_Driver/src/stm32f4xx_rcc.c **** /**
1442:Libraries/STM32F4xx_StdPeriph_Driver/src/stm32f4xx_rcc.c ****   * @brief  Forces or releases the Backup domain reset.
1443:Libraries/STM32F4xx_StdPeriph_Driver/src/stm32f4xx_rcc.c ****   * @note   This function resets the RTC peripheral (including the backup registers)
1444:Libraries/STM32F4xx_StdPeriph_Driver/src/stm32f4xx_rcc.c ****   *         and the RTC clock source selection in RCC_CSR register.
1445:Libraries/STM32F4xx_StdPeriph_Driver/src/stm32f4xx_rcc.c ****   * @note   The BKPSRAM is not affected by this reset.    
1446:Libraries/STM32F4xx_StdPeriph_Driver/src/stm32f4xx_rcc.c ****   * @param  NewState: new state of the Backup domain reset.
1447:Libraries/STM32F4xx_StdPeriph_Driver/src/stm32f4xx_rcc.c ****   *          This parameter can be: ENABLE or DISABLE.
1448:Libraries/STM32F4xx_StdPeriph_Driver/src/stm32f4xx_rcc.c ****   * @retval None
1449:Libraries/STM32F4xx_StdPeriph_Driver/src/stm32f4xx_rcc.c ****   */
1450:Libraries/STM32F4xx_StdPeriph_Driver/src/stm32f4xx_rcc.c **** void RCC_BackupResetCmd(FunctionalState NewState)
1451:Libraries/STM32F4xx_StdPeriph_Driver/src/stm32f4xx_rcc.c **** {
1452:Libraries/STM32F4xx_StdPeriph_Driver/src/stm32f4xx_rcc.c ****   /* Check the parameters */
1453:Libraries/STM32F4xx_StdPeriph_Driver/src/stm32f4xx_rcc.c ****   assert_param(IS_FUNCTIONAL_STATE(NewState));
1454:Libraries/STM32F4xx_StdPeriph_Driver/src/stm32f4xx_rcc.c ****   *(__IO uint32_t *) BDCR_BDRST_BB = (uint32_t)NewState;
1455:Libraries/STM32F4xx_StdPeriph_Driver/src/stm32f4xx_rcc.c **** }
1456:Libraries/STM32F4xx_StdPeriph_Driver/src/stm32f4xx_rcc.c **** 
1457:Libraries/STM32F4xx_StdPeriph_Driver/src/stm32f4xx_rcc.c **** #if defined(STM32F446xx)
1458:Libraries/STM32F4xx_StdPeriph_Driver/src/stm32f4xx_rcc.c **** /**
1459:Libraries/STM32F4xx_StdPeriph_Driver/src/stm32f4xx_rcc.c ****   * @brief  Configures the I2S clock source (I2SCLK).
1460:Libraries/STM32F4xx_StdPeriph_Driver/src/stm32f4xx_rcc.c ****   * @note   This function must be called before enabling the I2S APB clock.
1461:Libraries/STM32F4xx_StdPeriph_Driver/src/stm32f4xx_rcc.c ****   *
1462:Libraries/STM32F4xx_StdPeriph_Driver/src/stm32f4xx_rcc.c ****   * @param  RCC_I2SAPBx: specifies the APBx I2S clock source.
1463:Libraries/STM32F4xx_StdPeriph_Driver/src/stm32f4xx_rcc.c ****   *          This parameter can be one of the following values:
1464:Libraries/STM32F4xx_StdPeriph_Driver/src/stm32f4xx_rcc.c ****   *            @arg RCC_I2SBus_APB1: I2S peripheral instance is on APB1 Bus
1465:Libraries/STM32F4xx_StdPeriph_Driver/src/stm32f4xx_rcc.c ****   *            @arg RCC_I2SBus_APB2: I2S peripheral instance is on APB2 Bus
1466:Libraries/STM32F4xx_StdPeriph_Driver/src/stm32f4xx_rcc.c ****   *
1467:Libraries/STM32F4xx_StdPeriph_Driver/src/stm32f4xx_rcc.c ****   * @param  RCC_I2SCLKSource: specifies the I2S clock source.
1468:Libraries/STM32F4xx_StdPeriph_Driver/src/stm32f4xx_rcc.c ****   *          This parameter can be one of the following values:
1469:Libraries/STM32F4xx_StdPeriph_Driver/src/stm32f4xx_rcc.c ****   *            @arg RCC_I2SCLKSource_PLLI2S: PLLI2S clock used as I2S clock source
1470:Libraries/STM32F4xx_StdPeriph_Driver/src/stm32f4xx_rcc.c ****   *            @arg RCC_I2SCLKSource_Ext: External clock mapped on the I2S_CKIN pin
1471:Libraries/STM32F4xx_StdPeriph_Driver/src/stm32f4xx_rcc.c ****   *                                        used as I2S clock source                                
1472:Libraries/STM32F4xx_StdPeriph_Driver/src/stm32f4xx_rcc.c ****   *            @arg RCC_I2SCLKSource_PLL: PLL clock used as I2S clock source
1473:Libraries/STM32F4xx_StdPeriph_Driver/src/stm32f4xx_rcc.c ****   *            @arg RCC_I2SCLKSource_HSI_HSE: HSI or HSE depends on PLLSRC used as I2S clock source
1474:Libraries/STM32F4xx_StdPeriph_Driver/src/stm32f4xx_rcc.c ****   * @retval None
1475:Libraries/STM32F4xx_StdPeriph_Driver/src/stm32f4xx_rcc.c ****   */
1476:Libraries/STM32F4xx_StdPeriph_Driver/src/stm32f4xx_rcc.c **** void RCC_I2SCLKConfig(uint32_t RCC_I2SAPBx, uint32_t RCC_I2SCLKSource)
1477:Libraries/STM32F4xx_StdPeriph_Driver/src/stm32f4xx_rcc.c **** {
1478:Libraries/STM32F4xx_StdPeriph_Driver/src/stm32f4xx_rcc.c ****   /* Check the parameters */
1479:Libraries/STM32F4xx_StdPeriph_Driver/src/stm32f4xx_rcc.c ****   assert_param(IS_RCC_I2SCLK_SOURCE(RCC_I2SCLKSource));
1480:Libraries/STM32F4xx_StdPeriph_Driver/src/stm32f4xx_rcc.c ****   assert_param(IS_RCC_I2S_APBx(RCC_I2SAPBx));
1481:Libraries/STM32F4xx_StdPeriph_Driver/src/stm32f4xx_rcc.c ****   
1482:Libraries/STM32F4xx_StdPeriph_Driver/src/stm32f4xx_rcc.c ****   if(RCC_I2SAPBx == RCC_I2SBus_APB1)
1483:Libraries/STM32F4xx_StdPeriph_Driver/src/stm32f4xx_rcc.c ****   {
1484:Libraries/STM32F4xx_StdPeriph_Driver/src/stm32f4xx_rcc.c ****     /* Clear APB1 I2Sx clock source selection bits */
1485:Libraries/STM32F4xx_StdPeriph_Driver/src/stm32f4xx_rcc.c ****     RCC->DCKCFGR &= ~RCC_DCKCFGR_I2S1SRC;
1486:Libraries/STM32F4xx_StdPeriph_Driver/src/stm32f4xx_rcc.c ****     /* Set new APB1 I2Sx clock source*/
1487:Libraries/STM32F4xx_StdPeriph_Driver/src/stm32f4xx_rcc.c ****     RCC->DCKCFGR |= RCC_I2SCLKSource;
1488:Libraries/STM32F4xx_StdPeriph_Driver/src/stm32f4xx_rcc.c ****   }
1489:Libraries/STM32F4xx_StdPeriph_Driver/src/stm32f4xx_rcc.c ****   else
1490:Libraries/STM32F4xx_StdPeriph_Driver/src/stm32f4xx_rcc.c ****   {
1491:Libraries/STM32F4xx_StdPeriph_Driver/src/stm32f4xx_rcc.c ****     /* Clear APB2 I2Sx clock source selection  bits */
1492:Libraries/STM32F4xx_StdPeriph_Driver/src/stm32f4xx_rcc.c ****     RCC->DCKCFGR &= ~RCC_DCKCFGR_I2S2SRC;
1493:Libraries/STM32F4xx_StdPeriph_Driver/src/stm32f4xx_rcc.c ****     /* Set new APB2 I2Sx clock source */
1494:Libraries/STM32F4xx_StdPeriph_Driver/src/stm32f4xx_rcc.c ****     RCC->DCKCFGR |= (RCC_I2SCLKSource << 2);
1495:Libraries/STM32F4xx_StdPeriph_Driver/src/stm32f4xx_rcc.c ****   }
1496:Libraries/STM32F4xx_StdPeriph_Driver/src/stm32f4xx_rcc.c **** }
1497:Libraries/STM32F4xx_StdPeriph_Driver/src/stm32f4xx_rcc.c **** 
1498:Libraries/STM32F4xx_StdPeriph_Driver/src/stm32f4xx_rcc.c **** /**
1499:Libraries/STM32F4xx_StdPeriph_Driver/src/stm32f4xx_rcc.c ****   * @brief  Configures the SAIx clock source (SAIxCLK).
1500:Libraries/STM32F4xx_StdPeriph_Driver/src/stm32f4xx_rcc.c ****   * @note   This function must be called before enabling the SAIx APB clock.
1501:Libraries/STM32F4xx_StdPeriph_Driver/src/stm32f4xx_rcc.c ****   *
1502:Libraries/STM32F4xx_StdPeriph_Driver/src/stm32f4xx_rcc.c ****   * @param  RCC_SAIInstance: specifies the SAIx clock source.
1503:Libraries/STM32F4xx_StdPeriph_Driver/src/stm32f4xx_rcc.c ****   *          This parameter can be one of the following values:
1504:Libraries/STM32F4xx_StdPeriph_Driver/src/stm32f4xx_rcc.c ****   *            @arg RCC_SAIInstance_SAI1: SAI1 clock source selection
1505:Libraries/STM32F4xx_StdPeriph_Driver/src/stm32f4xx_rcc.c ****   *            @arg RCC_SAIInstance_SAI2: SAI2 clock source selections
1506:Libraries/STM32F4xx_StdPeriph_Driver/src/stm32f4xx_rcc.c ****   *
1507:Libraries/STM32F4xx_StdPeriph_Driver/src/stm32f4xx_rcc.c ****   * @param  RCC_SAICLKSource: specifies the SAI clock source.
1508:Libraries/STM32F4xx_StdPeriph_Driver/src/stm32f4xx_rcc.c ****   *          This parameter can be one of the following values:
1509:Libraries/STM32F4xx_StdPeriph_Driver/src/stm32f4xx_rcc.c ****   *            @arg RCC_SAICLKSource_PLLSAI: PLLSAI clock used as SAI clock source
1510:Libraries/STM32F4xx_StdPeriph_Driver/src/stm32f4xx_rcc.c ****   *            @arg RCC_SAICLKSource_PLLI2S: PLLI2S clock used as SAI clock source                 
1511:Libraries/STM32F4xx_StdPeriph_Driver/src/stm32f4xx_rcc.c ****   *            @arg RCC_SAICLKSource_PLL: PLL clock used as SAI clock source
1512:Libraries/STM32F4xx_StdPeriph_Driver/src/stm32f4xx_rcc.c ****   *            @arg RCC_SAICLKSource_HSI_HSE: HSI or HSE depends on PLLSRC used as SAI clock source
1513:Libraries/STM32F4xx_StdPeriph_Driver/src/stm32f4xx_rcc.c ****   * @retval None
1514:Libraries/STM32F4xx_StdPeriph_Driver/src/stm32f4xx_rcc.c ****   */
1515:Libraries/STM32F4xx_StdPeriph_Driver/src/stm32f4xx_rcc.c **** void RCC_SAICLKConfig(uint32_t RCC_SAIInstance, uint32_t RCC_SAICLKSource)
1516:Libraries/STM32F4xx_StdPeriph_Driver/src/stm32f4xx_rcc.c **** {
1517:Libraries/STM32F4xx_StdPeriph_Driver/src/stm32f4xx_rcc.c ****   /* Check the parameters */
1518:Libraries/STM32F4xx_StdPeriph_Driver/src/stm32f4xx_rcc.c ****   assert_param(IS_RCC_SAICLK_SOURCE(RCC_SAICLKSource));
1519:Libraries/STM32F4xx_StdPeriph_Driver/src/stm32f4xx_rcc.c ****   assert_param(IS_RCC_SAI_INSTANCE(RCC_SAIInstance));
1520:Libraries/STM32F4xx_StdPeriph_Driver/src/stm32f4xx_rcc.c ****   
1521:Libraries/STM32F4xx_StdPeriph_Driver/src/stm32f4xx_rcc.c ****   if(RCC_SAIInstance == RCC_SAIInstance_SAI1)
1522:Libraries/STM32F4xx_StdPeriph_Driver/src/stm32f4xx_rcc.c ****   {
1523:Libraries/STM32F4xx_StdPeriph_Driver/src/stm32f4xx_rcc.c ****     /* Clear SAI1 clock source selection bits */
1524:Libraries/STM32F4xx_StdPeriph_Driver/src/stm32f4xx_rcc.c ****     RCC->DCKCFGR &= ~RCC_DCKCFGR_SAI1SRC;
1525:Libraries/STM32F4xx_StdPeriph_Driver/src/stm32f4xx_rcc.c ****     /* Set new SAI1 clock source */
1526:Libraries/STM32F4xx_StdPeriph_Driver/src/stm32f4xx_rcc.c ****     RCC->DCKCFGR |= RCC_SAICLKSource;
1527:Libraries/STM32F4xx_StdPeriph_Driver/src/stm32f4xx_rcc.c ****   }
1528:Libraries/STM32F4xx_StdPeriph_Driver/src/stm32f4xx_rcc.c ****   else
1529:Libraries/STM32F4xx_StdPeriph_Driver/src/stm32f4xx_rcc.c ****   {
1530:Libraries/STM32F4xx_StdPeriph_Driver/src/stm32f4xx_rcc.c ****     /* Clear SAI2 clock source selection bits */
1531:Libraries/STM32F4xx_StdPeriph_Driver/src/stm32f4xx_rcc.c ****     RCC->DCKCFGR &= ~RCC_DCKCFGR_SAI2SRC;
1532:Libraries/STM32F4xx_StdPeriph_Driver/src/stm32f4xx_rcc.c ****     /* Set new SAI2 clock source */
1533:Libraries/STM32F4xx_StdPeriph_Driver/src/stm32f4xx_rcc.c ****     RCC->DCKCFGR |= (RCC_SAICLKSource << 2);
1534:Libraries/STM32F4xx_StdPeriph_Driver/src/stm32f4xx_rcc.c ****   }
1535:Libraries/STM32F4xx_StdPeriph_Driver/src/stm32f4xx_rcc.c **** }
1536:Libraries/STM32F4xx_StdPeriph_Driver/src/stm32f4xx_rcc.c **** #endif /* STM32F446xx */
1537:Libraries/STM32F4xx_StdPeriph_Driver/src/stm32f4xx_rcc.c **** 
1538:Libraries/STM32F4xx_StdPeriph_Driver/src/stm32f4xx_rcc.c **** #if defined(STM32F40_41xxx) || defined(STM32F427_437xx) || defined(STM32F429_439xx) || defined(STM3
1539:Libraries/STM32F4xx_StdPeriph_Driver/src/stm32f4xx_rcc.c **** /**
1540:Libraries/STM32F4xx_StdPeriph_Driver/src/stm32f4xx_rcc.c ****   * @brief  Configures the I2S clock source (I2SCLK).
1541:Libraries/STM32F4xx_StdPeriph_Driver/src/stm32f4xx_rcc.c ****   * @note   This function must be called before enabling the I2S APB clock.
1542:Libraries/STM32F4xx_StdPeriph_Driver/src/stm32f4xx_rcc.c ****   * @param  RCC_I2SCLKSource: specifies the I2S clock source.
1543:Libraries/STM32F4xx_StdPeriph_Driver/src/stm32f4xx_rcc.c ****   *          This parameter can be one of the following values:
1544:Libraries/STM32F4xx_StdPeriph_Driver/src/stm32f4xx_rcc.c ****   *            @arg RCC_I2S2CLKSource_PLLI2S: PLLI2S clock used as I2S clock source
1545:Libraries/STM32F4xx_StdPeriph_Driver/src/stm32f4xx_rcc.c ****   *            @arg RCC_I2S2CLKSource_Ext: External clock mapped on the I2S_CKIN pin
1546:Libraries/STM32F4xx_StdPeriph_Driver/src/stm32f4xx_rcc.c ****   *                                        used as I2S clock source
1547:Libraries/STM32F4xx_StdPeriph_Driver/src/stm32f4xx_rcc.c ****   * @retval None
1548:Libraries/STM32F4xx_StdPeriph_Driver/src/stm32f4xx_rcc.c ****   */
1549:Libraries/STM32F4xx_StdPeriph_Driver/src/stm32f4xx_rcc.c **** void RCC_I2SCLKConfig(uint32_t RCC_I2SCLKSource)
1550:Libraries/STM32F4xx_StdPeriph_Driver/src/stm32f4xx_rcc.c **** {
1551:Libraries/STM32F4xx_StdPeriph_Driver/src/stm32f4xx_rcc.c ****   /* Check the parameters */
1552:Libraries/STM32F4xx_StdPeriph_Driver/src/stm32f4xx_rcc.c ****   assert_param(IS_RCC_I2SCLK_SOURCE(RCC_I2SCLKSource));
1553:Libraries/STM32F4xx_StdPeriph_Driver/src/stm32f4xx_rcc.c **** 
1554:Libraries/STM32F4xx_StdPeriph_Driver/src/stm32f4xx_rcc.c ****   *(__IO uint32_t *) CFGR_I2SSRC_BB = RCC_I2SCLKSource;  
1555:Libraries/STM32F4xx_StdPeriph_Driver/src/stm32f4xx_rcc.c **** }
1556:Libraries/STM32F4xx_StdPeriph_Driver/src/stm32f4xx_rcc.c **** 
1557:Libraries/STM32F4xx_StdPeriph_Driver/src/stm32f4xx_rcc.c **** /**
1558:Libraries/STM32F4xx_StdPeriph_Driver/src/stm32f4xx_rcc.c ****   * @brief  Configures SAI1BlockA clock source selection.
1559:Libraries/STM32F4xx_StdPeriph_Driver/src/stm32f4xx_rcc.c ****   * 
1560:Libraries/STM32F4xx_StdPeriph_Driver/src/stm32f4xx_rcc.c ****   * @note   This function can be used only for STM32F42xxx/43xxx devices.
1561:Libraries/STM32F4xx_StdPeriph_Driver/src/stm32f4xx_rcc.c ****   *       
1562:Libraries/STM32F4xx_StdPeriph_Driver/src/stm32f4xx_rcc.c ****   * @note   This function must be called before enabling PLLSAI, PLLI2S and  
1563:Libraries/STM32F4xx_StdPeriph_Driver/src/stm32f4xx_rcc.c ****   *         the SAI clock.
1564:Libraries/STM32F4xx_StdPeriph_Driver/src/stm32f4xx_rcc.c ****   * @param  RCC_SAIBlockACLKSource: specifies the SAI Block A clock source.
1565:Libraries/STM32F4xx_StdPeriph_Driver/src/stm32f4xx_rcc.c ****   *          This parameter can be one of the following values:
1566:Libraries/STM32F4xx_StdPeriph_Driver/src/stm32f4xx_rcc.c ****   *            @arg RCC_SAIACLKSource_PLLI2S: PLLI2S_Q clock divided by PLLI2SDIVQ used 
1567:Libraries/STM32F4xx_StdPeriph_Driver/src/stm32f4xx_rcc.c ****   *                                           as SAI1 Block A clock 
1568:Libraries/STM32F4xx_StdPeriph_Driver/src/stm32f4xx_rcc.c ****   *            @arg RCC_SAIACLKSource_PLLSAI: PLLISAI_Q clock divided by PLLSAIDIVQ used 
1569:Libraries/STM32F4xx_StdPeriph_Driver/src/stm32f4xx_rcc.c ****   *                                           as SAI1 Block A clock 
1570:Libraries/STM32F4xx_StdPeriph_Driver/src/stm32f4xx_rcc.c ****   *            @arg RCC_SAIACLKSource_Ext: External clock mapped on the I2S_CKIN pin
1571:Libraries/STM32F4xx_StdPeriph_Driver/src/stm32f4xx_rcc.c ****   *                                        used as SAI1 Block A clock
1572:Libraries/STM32F4xx_StdPeriph_Driver/src/stm32f4xx_rcc.c ****   * @retval None
1573:Libraries/STM32F4xx_StdPeriph_Driver/src/stm32f4xx_rcc.c ****   */
1574:Libraries/STM32F4xx_StdPeriph_Driver/src/stm32f4xx_rcc.c **** void RCC_SAIBlockACLKConfig(uint32_t RCC_SAIBlockACLKSource)
1575:Libraries/STM32F4xx_StdPeriph_Driver/src/stm32f4xx_rcc.c **** {
1576:Libraries/STM32F4xx_StdPeriph_Driver/src/stm32f4xx_rcc.c ****   uint32_t tmpreg = 0;
1577:Libraries/STM32F4xx_StdPeriph_Driver/src/stm32f4xx_rcc.c ****   
1578:Libraries/STM32F4xx_StdPeriph_Driver/src/stm32f4xx_rcc.c ****   /* Check the parameters */
1579:Libraries/STM32F4xx_StdPeriph_Driver/src/stm32f4xx_rcc.c ****   assert_param(IS_RCC_SAIACLK_SOURCE(RCC_SAIBlockACLKSource));
1580:Libraries/STM32F4xx_StdPeriph_Driver/src/stm32f4xx_rcc.c ****   
1581:Libraries/STM32F4xx_StdPeriph_Driver/src/stm32f4xx_rcc.c ****   tmpreg = RCC->DCKCFGR;
1582:Libraries/STM32F4xx_StdPeriph_Driver/src/stm32f4xx_rcc.c **** 
1583:Libraries/STM32F4xx_StdPeriph_Driver/src/stm32f4xx_rcc.c ****   /* Clear RCC_DCKCFGR_SAI1ASRC[1:0] bits */
1584:Libraries/STM32F4xx_StdPeriph_Driver/src/stm32f4xx_rcc.c ****   tmpreg &= ~RCC_DCKCFGR_SAI1ASRC;
1585:Libraries/STM32F4xx_StdPeriph_Driver/src/stm32f4xx_rcc.c **** 
1586:Libraries/STM32F4xx_StdPeriph_Driver/src/stm32f4xx_rcc.c ****   /* Set SAI Block A source selection value */
1587:Libraries/STM32F4xx_StdPeriph_Driver/src/stm32f4xx_rcc.c ****   tmpreg |= RCC_SAIBlockACLKSource;
1588:Libraries/STM32F4xx_StdPeriph_Driver/src/stm32f4xx_rcc.c **** 
1589:Libraries/STM32F4xx_StdPeriph_Driver/src/stm32f4xx_rcc.c ****   /* Store the new value */
1590:Libraries/STM32F4xx_StdPeriph_Driver/src/stm32f4xx_rcc.c ****   RCC->DCKCFGR = tmpreg;
1591:Libraries/STM32F4xx_StdPeriph_Driver/src/stm32f4xx_rcc.c **** }
1592:Libraries/STM32F4xx_StdPeriph_Driver/src/stm32f4xx_rcc.c **** 
1593:Libraries/STM32F4xx_StdPeriph_Driver/src/stm32f4xx_rcc.c **** /**
1594:Libraries/STM32F4xx_StdPeriph_Driver/src/stm32f4xx_rcc.c ****   * @brief  Configures SAI1BlockB clock source selection.
1595:Libraries/STM32F4xx_StdPeriph_Driver/src/stm32f4xx_rcc.c ****   * 
1596:Libraries/STM32F4xx_StdPeriph_Driver/src/stm32f4xx_rcc.c ****   * @note   This function can be used only for STM32F42xxx/43xxx devices.
1597:Libraries/STM32F4xx_StdPeriph_Driver/src/stm32f4xx_rcc.c ****   *       
1598:Libraries/STM32F4xx_StdPeriph_Driver/src/stm32f4xx_rcc.c ****   * @note   This function must be called before enabling PLLSAI, PLLI2S and  
1599:Libraries/STM32F4xx_StdPeriph_Driver/src/stm32f4xx_rcc.c ****   *         the SAI clock.
1600:Libraries/STM32F4xx_StdPeriph_Driver/src/stm32f4xx_rcc.c ****   * @param  RCC_SAIBlockBCLKSource: specifies the SAI Block B clock source.
1601:Libraries/STM32F4xx_StdPeriph_Driver/src/stm32f4xx_rcc.c ****   *          This parameter can be one of the following values:
1602:Libraries/STM32F4xx_StdPeriph_Driver/src/stm32f4xx_rcc.c ****   *            @arg RCC_SAIBCLKSource_PLLI2S: PLLI2S_Q clock divided by PLLI2SDIVQ used 
1603:Libraries/STM32F4xx_StdPeriph_Driver/src/stm32f4xx_rcc.c ****   *                                           as SAI1 Block B clock 
1604:Libraries/STM32F4xx_StdPeriph_Driver/src/stm32f4xx_rcc.c ****   *            @arg RCC_SAIBCLKSource_PLLSAI: PLLISAI_Q clock divided by PLLSAIDIVQ used 
1605:Libraries/STM32F4xx_StdPeriph_Driver/src/stm32f4xx_rcc.c ****   *                                           as SAI1 Block B clock 
1606:Libraries/STM32F4xx_StdPeriph_Driver/src/stm32f4xx_rcc.c ****   *            @arg RCC_SAIBCLKSource_Ext: External clock mapped on the I2S_CKIN pin
1607:Libraries/STM32F4xx_StdPeriph_Driver/src/stm32f4xx_rcc.c ****   *                                        used as SAI1 Block B clock
1608:Libraries/STM32F4xx_StdPeriph_Driver/src/stm32f4xx_rcc.c ****   * @retval None
1609:Libraries/STM32F4xx_StdPeriph_Driver/src/stm32f4xx_rcc.c ****   */
1610:Libraries/STM32F4xx_StdPeriph_Driver/src/stm32f4xx_rcc.c **** void RCC_SAIBlockBCLKConfig(uint32_t RCC_SAIBlockBCLKSource)
1611:Libraries/STM32F4xx_StdPeriph_Driver/src/stm32f4xx_rcc.c **** {
1612:Libraries/STM32F4xx_StdPeriph_Driver/src/stm32f4xx_rcc.c ****   uint32_t tmpreg = 0;
1613:Libraries/STM32F4xx_StdPeriph_Driver/src/stm32f4xx_rcc.c ****   
1614:Libraries/STM32F4xx_StdPeriph_Driver/src/stm32f4xx_rcc.c ****   /* Check the parameters */
1615:Libraries/STM32F4xx_StdPeriph_Driver/src/stm32f4xx_rcc.c ****   assert_param(IS_RCC_SAIBCLK_SOURCE(RCC_SAIBlockBCLKSource));
1616:Libraries/STM32F4xx_StdPeriph_Driver/src/stm32f4xx_rcc.c ****   
1617:Libraries/STM32F4xx_StdPeriph_Driver/src/stm32f4xx_rcc.c ****   tmpreg = RCC->DCKCFGR;
1618:Libraries/STM32F4xx_StdPeriph_Driver/src/stm32f4xx_rcc.c **** 
1619:Libraries/STM32F4xx_StdPeriph_Driver/src/stm32f4xx_rcc.c ****   /* Clear RCC_DCKCFGR_SAI1BSRC[1:0] bits */
1620:Libraries/STM32F4xx_StdPeriph_Driver/src/stm32f4xx_rcc.c ****   tmpreg &= ~RCC_DCKCFGR_SAI1BSRC;
1621:Libraries/STM32F4xx_StdPeriph_Driver/src/stm32f4xx_rcc.c **** 
1622:Libraries/STM32F4xx_StdPeriph_Driver/src/stm32f4xx_rcc.c ****   /* Set SAI Block B source selection value */
1623:Libraries/STM32F4xx_StdPeriph_Driver/src/stm32f4xx_rcc.c ****   tmpreg |= RCC_SAIBlockBCLKSource;
1624:Libraries/STM32F4xx_StdPeriph_Driver/src/stm32f4xx_rcc.c **** 
1625:Libraries/STM32F4xx_StdPeriph_Driver/src/stm32f4xx_rcc.c ****   /* Store the new value */
1626:Libraries/STM32F4xx_StdPeriph_Driver/src/stm32f4xx_rcc.c ****   RCC->DCKCFGR = tmpreg;
1627:Libraries/STM32F4xx_StdPeriph_Driver/src/stm32f4xx_rcc.c **** }
1628:Libraries/STM32F4xx_StdPeriph_Driver/src/stm32f4xx_rcc.c **** #endif /* STM32F40_41xxx || STM32F427_437xx || STM32F429_439xx || STM32F401xx || STM32F411xE */
1629:Libraries/STM32F4xx_StdPeriph_Driver/src/stm32f4xx_rcc.c **** 
1630:Libraries/STM32F4xx_StdPeriph_Driver/src/stm32f4xx_rcc.c **** /**
1631:Libraries/STM32F4xx_StdPeriph_Driver/src/stm32f4xx_rcc.c ****   * @brief  Configures the SAI clock Divider coming from PLLI2S.
1632:Libraries/STM32F4xx_StdPeriph_Driver/src/stm32f4xx_rcc.c ****   * 
1633:Libraries/STM32F4xx_StdPeriph_Driver/src/stm32f4xx_rcc.c ****   * @note   This function can be used only for STM32F42xxx/43xxx devices.
1634:Libraries/STM32F4xx_StdPeriph_Driver/src/stm32f4xx_rcc.c ****   *   
1635:Libraries/STM32F4xx_StdPeriph_Driver/src/stm32f4xx_rcc.c ****   * @note   This function must be called before enabling the PLLI2S.
1636:Libraries/STM32F4xx_StdPeriph_Driver/src/stm32f4xx_rcc.c ****   *              
1637:Libraries/STM32F4xx_StdPeriph_Driver/src/stm32f4xx_rcc.c ****   * @param  RCC_PLLI2SDivQ: specifies the PLLI2S division factor for SAI1 clock .
1638:Libraries/STM32F4xx_StdPeriph_Driver/src/stm32f4xx_rcc.c ****   *          This parameter must be a number between 1 and 32.
1639:Libraries/STM32F4xx_StdPeriph_Driver/src/stm32f4xx_rcc.c ****   *          SAI1 clock frequency = f(PLLI2S_Q) / RCC_PLLI2SDivQ 
1640:Libraries/STM32F4xx_StdPeriph_Driver/src/stm32f4xx_rcc.c ****   *              
1641:Libraries/STM32F4xx_StdPeriph_Driver/src/stm32f4xx_rcc.c ****   * @retval None
1642:Libraries/STM32F4xx_StdPeriph_Driver/src/stm32f4xx_rcc.c ****   */
1643:Libraries/STM32F4xx_StdPeriph_Driver/src/stm32f4xx_rcc.c **** void RCC_SAIPLLI2SClkDivConfig(uint32_t RCC_PLLI2SDivQ)  
1644:Libraries/STM32F4xx_StdPeriph_Driver/src/stm32f4xx_rcc.c **** {
1645:Libraries/STM32F4xx_StdPeriph_Driver/src/stm32f4xx_rcc.c ****   uint32_t tmpreg = 0;
1646:Libraries/STM32F4xx_StdPeriph_Driver/src/stm32f4xx_rcc.c ****   
1647:Libraries/STM32F4xx_StdPeriph_Driver/src/stm32f4xx_rcc.c ****   /* Check the parameters */
1648:Libraries/STM32F4xx_StdPeriph_Driver/src/stm32f4xx_rcc.c ****   assert_param(IS_RCC_PLLI2S_DIVQ_VALUE(RCC_PLLI2SDivQ));
1649:Libraries/STM32F4xx_StdPeriph_Driver/src/stm32f4xx_rcc.c ****   
1650:Libraries/STM32F4xx_StdPeriph_Driver/src/stm32f4xx_rcc.c ****   tmpreg = RCC->DCKCFGR;
1651:Libraries/STM32F4xx_StdPeriph_Driver/src/stm32f4xx_rcc.c **** 
1652:Libraries/STM32F4xx_StdPeriph_Driver/src/stm32f4xx_rcc.c ****   /* Clear PLLI2SDIVQ[4:0] bits */
1653:Libraries/STM32F4xx_StdPeriph_Driver/src/stm32f4xx_rcc.c ****   tmpreg &= ~(RCC_DCKCFGR_PLLI2SDIVQ);
1654:Libraries/STM32F4xx_StdPeriph_Driver/src/stm32f4xx_rcc.c **** 
1655:Libraries/STM32F4xx_StdPeriph_Driver/src/stm32f4xx_rcc.c ****   /* Set PLLI2SDIVQ values */
1656:Libraries/STM32F4xx_StdPeriph_Driver/src/stm32f4xx_rcc.c ****   tmpreg |= (RCC_PLLI2SDivQ - 1);
1657:Libraries/STM32F4xx_StdPeriph_Driver/src/stm32f4xx_rcc.c **** 
1658:Libraries/STM32F4xx_StdPeriph_Driver/src/stm32f4xx_rcc.c ****   /* Store the new value */
1659:Libraries/STM32F4xx_StdPeriph_Driver/src/stm32f4xx_rcc.c ****   RCC->DCKCFGR = tmpreg;
1660:Libraries/STM32F4xx_StdPeriph_Driver/src/stm32f4xx_rcc.c **** }
1661:Libraries/STM32F4xx_StdPeriph_Driver/src/stm32f4xx_rcc.c **** 
1662:Libraries/STM32F4xx_StdPeriph_Driver/src/stm32f4xx_rcc.c **** /**
1663:Libraries/STM32F4xx_StdPeriph_Driver/src/stm32f4xx_rcc.c ****   * @brief  Configures the SAI clock Divider coming from PLLSAI.
1664:Libraries/STM32F4xx_StdPeriph_Driver/src/stm32f4xx_rcc.c ****   * 
1665:Libraries/STM32F4xx_StdPeriph_Driver/src/stm32f4xx_rcc.c ****   * @note   This function can be used only for STM32F42xxx/43xxx devices.
1666:Libraries/STM32F4xx_StdPeriph_Driver/src/stm32f4xx_rcc.c ****   *        
1667:Libraries/STM32F4xx_StdPeriph_Driver/src/stm32f4xx_rcc.c ****   * @note   This function must be called before enabling the PLLSAI.
1668:Libraries/STM32F4xx_StdPeriph_Driver/src/stm32f4xx_rcc.c ****   *   
1669:Libraries/STM32F4xx_StdPeriph_Driver/src/stm32f4xx_rcc.c ****   * @param  RCC_PLLSAIDivQ: specifies the PLLSAI division factor for SAI1 clock .
1670:Libraries/STM32F4xx_StdPeriph_Driver/src/stm32f4xx_rcc.c ****   *          This parameter must be a number between 1 and 32.
1671:Libraries/STM32F4xx_StdPeriph_Driver/src/stm32f4xx_rcc.c ****   *          SAI1 clock frequency = f(PLLSAI_Q) / RCC_PLLSAIDivQ  
1672:Libraries/STM32F4xx_StdPeriph_Driver/src/stm32f4xx_rcc.c ****   *              
1673:Libraries/STM32F4xx_StdPeriph_Driver/src/stm32f4xx_rcc.c ****   * @retval None
1674:Libraries/STM32F4xx_StdPeriph_Driver/src/stm32f4xx_rcc.c ****   */
1675:Libraries/STM32F4xx_StdPeriph_Driver/src/stm32f4xx_rcc.c **** void RCC_SAIPLLSAIClkDivConfig(uint32_t RCC_PLLSAIDivQ)  
1676:Libraries/STM32F4xx_StdPeriph_Driver/src/stm32f4xx_rcc.c **** {
1677:Libraries/STM32F4xx_StdPeriph_Driver/src/stm32f4xx_rcc.c ****   uint32_t tmpreg = 0;
1678:Libraries/STM32F4xx_StdPeriph_Driver/src/stm32f4xx_rcc.c ****   
1679:Libraries/STM32F4xx_StdPeriph_Driver/src/stm32f4xx_rcc.c ****   /* Check the parameters */
1680:Libraries/STM32F4xx_StdPeriph_Driver/src/stm32f4xx_rcc.c ****   assert_param(IS_RCC_PLLSAI_DIVQ_VALUE(RCC_PLLSAIDivQ));
1681:Libraries/STM32F4xx_StdPeriph_Driver/src/stm32f4xx_rcc.c ****   
1682:Libraries/STM32F4xx_StdPeriph_Driver/src/stm32f4xx_rcc.c ****   tmpreg = RCC->DCKCFGR;
1683:Libraries/STM32F4xx_StdPeriph_Driver/src/stm32f4xx_rcc.c **** 
1684:Libraries/STM32F4xx_StdPeriph_Driver/src/stm32f4xx_rcc.c ****   /* Clear PLLI2SDIVQ[4:0] and PLLSAIDIVQ[4:0] bits */
1685:Libraries/STM32F4xx_StdPeriph_Driver/src/stm32f4xx_rcc.c ****   tmpreg &= ~(RCC_DCKCFGR_PLLSAIDIVQ);
1686:Libraries/STM32F4xx_StdPeriph_Driver/src/stm32f4xx_rcc.c **** 
1687:Libraries/STM32F4xx_StdPeriph_Driver/src/stm32f4xx_rcc.c ****   /* Set PLLSAIDIVQ values */
1688:Libraries/STM32F4xx_StdPeriph_Driver/src/stm32f4xx_rcc.c ****   tmpreg |= ((RCC_PLLSAIDivQ - 1) << 8);
1689:Libraries/STM32F4xx_StdPeriph_Driver/src/stm32f4xx_rcc.c **** 
1690:Libraries/STM32F4xx_StdPeriph_Driver/src/stm32f4xx_rcc.c ****   /* Store the new value */
1691:Libraries/STM32F4xx_StdPeriph_Driver/src/stm32f4xx_rcc.c ****   RCC->DCKCFGR = tmpreg;
1692:Libraries/STM32F4xx_StdPeriph_Driver/src/stm32f4xx_rcc.c **** }
1693:Libraries/STM32F4xx_StdPeriph_Driver/src/stm32f4xx_rcc.c **** 
1694:Libraries/STM32F4xx_StdPeriph_Driver/src/stm32f4xx_rcc.c **** /**
1695:Libraries/STM32F4xx_StdPeriph_Driver/src/stm32f4xx_rcc.c ****   * @brief  Configures the LTDC clock Divider coming from PLLSAI.
1696:Libraries/STM32F4xx_StdPeriph_Driver/src/stm32f4xx_rcc.c ****   * 
1697:Libraries/STM32F4xx_StdPeriph_Driver/src/stm32f4xx_rcc.c ****   * @note   The LTDC peripheral is only available with STM32F429xx/439xx Devices.
1698:Libraries/STM32F4xx_StdPeriph_Driver/src/stm32f4xx_rcc.c ****   *      
1699:Libraries/STM32F4xx_StdPeriph_Driver/src/stm32f4xx_rcc.c ****   * @note   This function must be called before enabling the PLLSAI.
1700:Libraries/STM32F4xx_StdPeriph_Driver/src/stm32f4xx_rcc.c ****   *   
1701:Libraries/STM32F4xx_StdPeriph_Driver/src/stm32f4xx_rcc.c ****   * @param  RCC_PLLSAIDivR: specifies the PLLSAI division factor for LTDC clock .
1702:Libraries/STM32F4xx_StdPeriph_Driver/src/stm32f4xx_rcc.c ****   *          LTDC clock frequency = f(PLLSAI_R) / RCC_PLLSAIDivR  
1703:Libraries/STM32F4xx_StdPeriph_Driver/src/stm32f4xx_rcc.c ****   *          This parameter can be one of the following values:
1704:Libraries/STM32F4xx_StdPeriph_Driver/src/stm32f4xx_rcc.c ****   *            @arg RCC_PLLSAIDivR_Div2: LTDC clock = f(PLLSAI_R)/2
1705:Libraries/STM32F4xx_StdPeriph_Driver/src/stm32f4xx_rcc.c ****   *            @arg RCC_PLLSAIDivR_Div4: LTDC clock = f(PLLSAI_R)/4
1706:Libraries/STM32F4xx_StdPeriph_Driver/src/stm32f4xx_rcc.c ****   *            @arg RCC_PLLSAIDivR_Div8: LTDC clock = f(PLLSAI_R)/8
1707:Libraries/STM32F4xx_StdPeriph_Driver/src/stm32f4xx_rcc.c ****   *            @arg RCC_PLLSAIDivR_Div16: LTDC clock = f(PLLSAI_R)/16
1708:Libraries/STM32F4xx_StdPeriph_Driver/src/stm32f4xx_rcc.c ****   *            
1709:Libraries/STM32F4xx_StdPeriph_Driver/src/stm32f4xx_rcc.c ****   * @retval None
1710:Libraries/STM32F4xx_StdPeriph_Driver/src/stm32f4xx_rcc.c ****   */
1711:Libraries/STM32F4xx_StdPeriph_Driver/src/stm32f4xx_rcc.c **** void RCC_LTDCCLKDivConfig(uint32_t RCC_PLLSAIDivR)
1712:Libraries/STM32F4xx_StdPeriph_Driver/src/stm32f4xx_rcc.c **** {
1713:Libraries/STM32F4xx_StdPeriph_Driver/src/stm32f4xx_rcc.c ****   uint32_t tmpreg = 0;
1714:Libraries/STM32F4xx_StdPeriph_Driver/src/stm32f4xx_rcc.c ****   
1715:Libraries/STM32F4xx_StdPeriph_Driver/src/stm32f4xx_rcc.c ****   /* Check the parameters */
1716:Libraries/STM32F4xx_StdPeriph_Driver/src/stm32f4xx_rcc.c ****   assert_param(IS_RCC_PLLSAI_DIVR_VALUE(RCC_PLLSAIDivR));
1717:Libraries/STM32F4xx_StdPeriph_Driver/src/stm32f4xx_rcc.c ****   
1718:Libraries/STM32F4xx_StdPeriph_Driver/src/stm32f4xx_rcc.c ****   tmpreg = RCC->DCKCFGR;
1719:Libraries/STM32F4xx_StdPeriph_Driver/src/stm32f4xx_rcc.c **** 
1720:Libraries/STM32F4xx_StdPeriph_Driver/src/stm32f4xx_rcc.c ****   /* Clear PLLSAIDIVR[2:0] bits */
1721:Libraries/STM32F4xx_StdPeriph_Driver/src/stm32f4xx_rcc.c ****   tmpreg &= ~RCC_DCKCFGR_PLLSAIDIVR;
1722:Libraries/STM32F4xx_StdPeriph_Driver/src/stm32f4xx_rcc.c **** 
1723:Libraries/STM32F4xx_StdPeriph_Driver/src/stm32f4xx_rcc.c ****   /* Set PLLSAIDIVR values */
1724:Libraries/STM32F4xx_StdPeriph_Driver/src/stm32f4xx_rcc.c ****   tmpreg |= RCC_PLLSAIDivR;
1725:Libraries/STM32F4xx_StdPeriph_Driver/src/stm32f4xx_rcc.c **** 
1726:Libraries/STM32F4xx_StdPeriph_Driver/src/stm32f4xx_rcc.c ****   /* Store the new value */
1727:Libraries/STM32F4xx_StdPeriph_Driver/src/stm32f4xx_rcc.c ****   RCC->DCKCFGR = tmpreg;
1728:Libraries/STM32F4xx_StdPeriph_Driver/src/stm32f4xx_rcc.c **** }
1729:Libraries/STM32F4xx_StdPeriph_Driver/src/stm32f4xx_rcc.c **** 
1730:Libraries/STM32F4xx_StdPeriph_Driver/src/stm32f4xx_rcc.c **** /**
1731:Libraries/STM32F4xx_StdPeriph_Driver/src/stm32f4xx_rcc.c ****   * @brief  Configures the Timers clocks prescalers selection.
1732:Libraries/STM32F4xx_StdPeriph_Driver/src/stm32f4xx_rcc.c ****   * 
1733:Libraries/STM32F4xx_StdPeriph_Driver/src/stm32f4xx_rcc.c ****   * @note   This function can be used only for STM32F42xxx/43xxx and STM32F401xx/411xE devices. 
1734:Libraries/STM32F4xx_StdPeriph_Driver/src/stm32f4xx_rcc.c ****   *   
1735:Libraries/STM32F4xx_StdPeriph_Driver/src/stm32f4xx_rcc.c ****   * @param  RCC_TIMCLKPrescaler : specifies the Timers clocks prescalers selection
1736:Libraries/STM32F4xx_StdPeriph_Driver/src/stm32f4xx_rcc.c ****   *         This parameter can be one of the following values:
1737:Libraries/STM32F4xx_StdPeriph_Driver/src/stm32f4xx_rcc.c ****   *            @arg RCC_TIMPrescDesactivated: The Timers kernels clocks prescaler is 
1738:Libraries/STM32F4xx_StdPeriph_Driver/src/stm32f4xx_rcc.c ****   *                 equal to HPRE if PPREx is corresponding to division by 1 or 2, 
1739:Libraries/STM32F4xx_StdPeriph_Driver/src/stm32f4xx_rcc.c ****   *                 else it is equal to [(HPRE * PPREx) / 2] if PPREx is corresponding to 
1740:Libraries/STM32F4xx_StdPeriph_Driver/src/stm32f4xx_rcc.c ****   *                 division by 4 or more.
1741:Libraries/STM32F4xx_StdPeriph_Driver/src/stm32f4xx_rcc.c ****   *                   
1742:Libraries/STM32F4xx_StdPeriph_Driver/src/stm32f4xx_rcc.c ****   *            @arg RCC_TIMPrescActivated: The Timers kernels clocks prescaler is 
1743:Libraries/STM32F4xx_StdPeriph_Driver/src/stm32f4xx_rcc.c ****   *                 equal to HPRE if PPREx is corresponding to division by 1, 2 or 4, 
1744:Libraries/STM32F4xx_StdPeriph_Driver/src/stm32f4xx_rcc.c ****   *                 else it is equal to [(HPRE * PPREx) / 4] if PPREx is corresponding 
1745:Libraries/STM32F4xx_StdPeriph_Driver/src/stm32f4xx_rcc.c ****   *                 to division by 8 or more.
1746:Libraries/STM32F4xx_StdPeriph_Driver/src/stm32f4xx_rcc.c ****   * @retval None
1747:Libraries/STM32F4xx_StdPeriph_Driver/src/stm32f4xx_rcc.c ****   */
1748:Libraries/STM32F4xx_StdPeriph_Driver/src/stm32f4xx_rcc.c **** void RCC_TIMCLKPresConfig(uint32_t RCC_TIMCLKPrescaler)
1749:Libraries/STM32F4xx_StdPeriph_Driver/src/stm32f4xx_rcc.c **** {
1750:Libraries/STM32F4xx_StdPeriph_Driver/src/stm32f4xx_rcc.c ****   /* Check the parameters */
1751:Libraries/STM32F4xx_StdPeriph_Driver/src/stm32f4xx_rcc.c ****   assert_param(IS_RCC_TIMCLK_PRESCALER(RCC_TIMCLKPrescaler));
1752:Libraries/STM32F4xx_StdPeriph_Driver/src/stm32f4xx_rcc.c **** 
1753:Libraries/STM32F4xx_StdPeriph_Driver/src/stm32f4xx_rcc.c ****   *(__IO uint32_t *) DCKCFGR_TIMPRE_BB = RCC_TIMCLKPrescaler;
1754:Libraries/STM32F4xx_StdPeriph_Driver/src/stm32f4xx_rcc.c **** }
1755:Libraries/STM32F4xx_StdPeriph_Driver/src/stm32f4xx_rcc.c **** 
1756:Libraries/STM32F4xx_StdPeriph_Driver/src/stm32f4xx_rcc.c **** /**
1757:Libraries/STM32F4xx_StdPeriph_Driver/src/stm32f4xx_rcc.c ****   * @brief  Enables or disables the AHB1 peripheral clock.
1758:Libraries/STM32F4xx_StdPeriph_Driver/src/stm32f4xx_rcc.c ****   * @note   After reset, the peripheral clock (used for registers read/write access)
1759:Libraries/STM32F4xx_StdPeriph_Driver/src/stm32f4xx_rcc.c ****   *         is disabled and the application software has to enable this clock before 
1760:Libraries/STM32F4xx_StdPeriph_Driver/src/stm32f4xx_rcc.c ****   *         using it.   
1761:Libraries/STM32F4xx_StdPeriph_Driver/src/stm32f4xx_rcc.c ****   * @param  RCC_AHBPeriph: specifies the AHB1 peripheral to gates its clock.
1762:Libraries/STM32F4xx_StdPeriph_Driver/src/stm32f4xx_rcc.c ****   *          This parameter can be any combination of the following values:
1763:Libraries/STM32F4xx_StdPeriph_Driver/src/stm32f4xx_rcc.c ****   *            @arg RCC_AHB1Periph_GPIOA:       GPIOA clock
1764:Libraries/STM32F4xx_StdPeriph_Driver/src/stm32f4xx_rcc.c ****   *            @arg RCC_AHB1Periph_GPIOB:       GPIOB clock 
1765:Libraries/STM32F4xx_StdPeriph_Driver/src/stm32f4xx_rcc.c ****   *            @arg RCC_AHB1Periph_GPIOC:       GPIOC clock
1766:Libraries/STM32F4xx_StdPeriph_Driver/src/stm32f4xx_rcc.c ****   *            @arg RCC_AHB1Periph_GPIOD:       GPIOD clock
1767:Libraries/STM32F4xx_StdPeriph_Driver/src/stm32f4xx_rcc.c ****   *            @arg RCC_AHB1Periph_GPIOE:       GPIOE clock
1768:Libraries/STM32F4xx_StdPeriph_Driver/src/stm32f4xx_rcc.c ****   *            @arg RCC_AHB1Periph_GPIOF:       GPIOF clock
1769:Libraries/STM32F4xx_StdPeriph_Driver/src/stm32f4xx_rcc.c ****   *            @arg RCC_AHB1Periph_GPIOG:       GPIOG clock
1770:Libraries/STM32F4xx_StdPeriph_Driver/src/stm32f4xx_rcc.c ****   *            @arg RCC_AHB1Periph_GPIOG:       GPIOG clock
1771:Libraries/STM32F4xx_StdPeriph_Driver/src/stm32f4xx_rcc.c ****   *            @arg RCC_AHB1Periph_GPIOI:       GPIOI clock
1772:Libraries/STM32F4xx_StdPeriph_Driver/src/stm32f4xx_rcc.c ****   *            @arg RCC_AHB1Periph_GPIOJ:       GPIOJ clock (STM32F42xxx/43xxx devices) 
1773:Libraries/STM32F4xx_StdPeriph_Driver/src/stm32f4xx_rcc.c ****   *            @arg RCC_AHB1Periph_GPIOK:       GPIOK clock (STM32F42xxx/43xxx devices)  
1774:Libraries/STM32F4xx_StdPeriph_Driver/src/stm32f4xx_rcc.c ****   *            @arg RCC_AHB1Periph_CRC:         CRC clock
1775:Libraries/STM32F4xx_StdPeriph_Driver/src/stm32f4xx_rcc.c ****   *            @arg RCC_AHB1Periph_BKPSRAM:     BKPSRAM interface clock
1776:Libraries/STM32F4xx_StdPeriph_Driver/src/stm32f4xx_rcc.c ****   *            @arg RCC_AHB1Periph_CCMDATARAMEN CCM data RAM interface clock
1777:Libraries/STM32F4xx_StdPeriph_Driver/src/stm32f4xx_rcc.c ****   *            @arg RCC_AHB1Periph_DMA1:        DMA1 clock
1778:Libraries/STM32F4xx_StdPeriph_Driver/src/stm32f4xx_rcc.c ****   *            @arg RCC_AHB1Periph_DMA2:        DMA2 clock
1779:Libraries/STM32F4xx_StdPeriph_Driver/src/stm32f4xx_rcc.c ****   *            @arg RCC_AHB1Periph_DMA2D:       DMA2D clock (STM32F429xx/439xx devices)  
1780:Libraries/STM32F4xx_StdPeriph_Driver/src/stm32f4xx_rcc.c ****   *            @arg RCC_AHB1Periph_ETH_MAC:     Ethernet MAC clock
1781:Libraries/STM32F4xx_StdPeriph_Driver/src/stm32f4xx_rcc.c ****   *            @arg RCC_AHB1Periph_ETH_MAC_Tx:  Ethernet Transmission clock
1782:Libraries/STM32F4xx_StdPeriph_Driver/src/stm32f4xx_rcc.c ****   *            @arg RCC_AHB1Periph_ETH_MAC_Rx:  Ethernet Reception clock
1783:Libraries/STM32F4xx_StdPeriph_Driver/src/stm32f4xx_rcc.c ****   *            @arg RCC_AHB1Periph_ETH_MAC_PTP: Ethernet PTP clock
1784:Libraries/STM32F4xx_StdPeriph_Driver/src/stm32f4xx_rcc.c ****   *            @arg RCC_AHB1Periph_OTG_HS:      USB OTG HS clock
1785:Libraries/STM32F4xx_StdPeriph_Driver/src/stm32f4xx_rcc.c ****   *            @arg RCC_AHB1Periph_OTG_HS_ULPI: USB OTG HS ULPI clock
1786:Libraries/STM32F4xx_StdPeriph_Driver/src/stm32f4xx_rcc.c ****   * @param  NewState: new state of the specified peripheral clock.
1787:Libraries/STM32F4xx_StdPeriph_Driver/src/stm32f4xx_rcc.c ****   *          This parameter can be: ENABLE or DISABLE.
1788:Libraries/STM32F4xx_StdPeriph_Driver/src/stm32f4xx_rcc.c ****   * @retval None
1789:Libraries/STM32F4xx_StdPeriph_Driver/src/stm32f4xx_rcc.c ****   */
1790:Libraries/STM32F4xx_StdPeriph_Driver/src/stm32f4xx_rcc.c **** void RCC_AHB1PeriphClockCmd(uint32_t RCC_AHB1Periph, FunctionalState NewState)
1791:Libraries/STM32F4xx_StdPeriph_Driver/src/stm32f4xx_rcc.c **** {
1792:Libraries/STM32F4xx_StdPeriph_Driver/src/stm32f4xx_rcc.c ****   /* Check the parameters */
1793:Libraries/STM32F4xx_StdPeriph_Driver/src/stm32f4xx_rcc.c ****   assert_param(IS_RCC_AHB1_CLOCK_PERIPH(RCC_AHB1Periph));
1794:Libraries/STM32F4xx_StdPeriph_Driver/src/stm32f4xx_rcc.c **** 
1795:Libraries/STM32F4xx_StdPeriph_Driver/src/stm32f4xx_rcc.c ****   assert_param(IS_FUNCTIONAL_STATE(NewState));
1796:Libraries/STM32F4xx_StdPeriph_Driver/src/stm32f4xx_rcc.c ****   if (NewState != DISABLE)
1797:Libraries/STM32F4xx_StdPeriph_Driver/src/stm32f4xx_rcc.c ****   {
1798:Libraries/STM32F4xx_StdPeriph_Driver/src/stm32f4xx_rcc.c ****     RCC->AHB1ENR |= RCC_AHB1Periph;
1799:Libraries/STM32F4xx_StdPeriph_Driver/src/stm32f4xx_rcc.c ****   }
1800:Libraries/STM32F4xx_StdPeriph_Driver/src/stm32f4xx_rcc.c ****   else
1801:Libraries/STM32F4xx_StdPeriph_Driver/src/stm32f4xx_rcc.c ****   {
1802:Libraries/STM32F4xx_StdPeriph_Driver/src/stm32f4xx_rcc.c ****     RCC->AHB1ENR &= ~RCC_AHB1Periph;
1803:Libraries/STM32F4xx_StdPeriph_Driver/src/stm32f4xx_rcc.c ****   }
1804:Libraries/STM32F4xx_StdPeriph_Driver/src/stm32f4xx_rcc.c **** }
1805:Libraries/STM32F4xx_StdPeriph_Driver/src/stm32f4xx_rcc.c **** 
1806:Libraries/STM32F4xx_StdPeriph_Driver/src/stm32f4xx_rcc.c **** /**
1807:Libraries/STM32F4xx_StdPeriph_Driver/src/stm32f4xx_rcc.c ****   * @brief  Enables or disables the AHB2 peripheral clock.
1808:Libraries/STM32F4xx_StdPeriph_Driver/src/stm32f4xx_rcc.c ****   * @note   After reset, the peripheral clock (used for registers read/write access)
1809:Libraries/STM32F4xx_StdPeriph_Driver/src/stm32f4xx_rcc.c ****   *         is disabled and the application software has to enable this clock before 
1810:Libraries/STM32F4xx_StdPeriph_Driver/src/stm32f4xx_rcc.c ****   *         using it. 
1811:Libraries/STM32F4xx_StdPeriph_Driver/src/stm32f4xx_rcc.c ****   * @param  RCC_AHBPeriph: specifies the AHB2 peripheral to gates its clock.
1812:Libraries/STM32F4xx_StdPeriph_Driver/src/stm32f4xx_rcc.c ****   *          This parameter can be any combination of the following values:
1813:Libraries/STM32F4xx_StdPeriph_Driver/src/stm32f4xx_rcc.c ****   *            @arg RCC_AHB2Periph_DCMI:   DCMI clock
1814:Libraries/STM32F4xx_StdPeriph_Driver/src/stm32f4xx_rcc.c ****   *            @arg RCC_AHB2Periph_CRYP:   CRYP clock
1815:Libraries/STM32F4xx_StdPeriph_Driver/src/stm32f4xx_rcc.c ****   *            @arg RCC_AHB2Periph_HASH:   HASH clock
1816:Libraries/STM32F4xx_StdPeriph_Driver/src/stm32f4xx_rcc.c ****   *            @arg RCC_AHB2Periph_RNG:    RNG clock
1817:Libraries/STM32F4xx_StdPeriph_Driver/src/stm32f4xx_rcc.c ****   *            @arg RCC_AHB2Periph_OTG_FS: USB OTG FS clock
1818:Libraries/STM32F4xx_StdPeriph_Driver/src/stm32f4xx_rcc.c ****   * @param  NewState: new state of the specified peripheral clock.
1819:Libraries/STM32F4xx_StdPeriph_Driver/src/stm32f4xx_rcc.c ****   *          This parameter can be: ENABLE or DISABLE.
1820:Libraries/STM32F4xx_StdPeriph_Driver/src/stm32f4xx_rcc.c ****   * @retval None
1821:Libraries/STM32F4xx_StdPeriph_Driver/src/stm32f4xx_rcc.c ****   */
1822:Libraries/STM32F4xx_StdPeriph_Driver/src/stm32f4xx_rcc.c **** void RCC_AHB2PeriphClockCmd(uint32_t RCC_AHB2Periph, FunctionalState NewState)
1823:Libraries/STM32F4xx_StdPeriph_Driver/src/stm32f4xx_rcc.c **** {
1824:Libraries/STM32F4xx_StdPeriph_Driver/src/stm32f4xx_rcc.c ****   /* Check the parameters */
1825:Libraries/STM32F4xx_StdPeriph_Driver/src/stm32f4xx_rcc.c ****   assert_param(IS_RCC_AHB2_PERIPH(RCC_AHB2Periph));
1826:Libraries/STM32F4xx_StdPeriph_Driver/src/stm32f4xx_rcc.c ****   assert_param(IS_FUNCTIONAL_STATE(NewState));
1827:Libraries/STM32F4xx_StdPeriph_Driver/src/stm32f4xx_rcc.c **** 
1828:Libraries/STM32F4xx_StdPeriph_Driver/src/stm32f4xx_rcc.c ****   if (NewState != DISABLE)
1829:Libraries/STM32F4xx_StdPeriph_Driver/src/stm32f4xx_rcc.c ****   {
1830:Libraries/STM32F4xx_StdPeriph_Driver/src/stm32f4xx_rcc.c ****     RCC->AHB2ENR |= RCC_AHB2Periph;
1831:Libraries/STM32F4xx_StdPeriph_Driver/src/stm32f4xx_rcc.c ****   }
1832:Libraries/STM32F4xx_StdPeriph_Driver/src/stm32f4xx_rcc.c ****   else
1833:Libraries/STM32F4xx_StdPeriph_Driver/src/stm32f4xx_rcc.c ****   {
1834:Libraries/STM32F4xx_StdPeriph_Driver/src/stm32f4xx_rcc.c ****     RCC->AHB2ENR &= ~RCC_AHB2Periph;
1835:Libraries/STM32F4xx_StdPeriph_Driver/src/stm32f4xx_rcc.c ****   }
1836:Libraries/STM32F4xx_StdPeriph_Driver/src/stm32f4xx_rcc.c **** }
1837:Libraries/STM32F4xx_StdPeriph_Driver/src/stm32f4xx_rcc.c **** 
1838:Libraries/STM32F4xx_StdPeriph_Driver/src/stm32f4xx_rcc.c **** #if defined(STM32F40_41xxx) || defined(STM32F427_437xx) || defined(STM32F429_439xx) || defined(STM3
1839:Libraries/STM32F4xx_StdPeriph_Driver/src/stm32f4xx_rcc.c **** /**
1840:Libraries/STM32F4xx_StdPeriph_Driver/src/stm32f4xx_rcc.c ****   * @brief  Enables or disables the AHB3 peripheral clock.
1841:Libraries/STM32F4xx_StdPeriph_Driver/src/stm32f4xx_rcc.c ****   * @note   After reset, the peripheral clock (used for registers read/write access)
1842:Libraries/STM32F4xx_StdPeriph_Driver/src/stm32f4xx_rcc.c ****   *         is disabled and the application software has to enable this clock before 
1843:Libraries/STM32F4xx_StdPeriph_Driver/src/stm32f4xx_rcc.c ****   *         using it. 
1844:Libraries/STM32F4xx_StdPeriph_Driver/src/stm32f4xx_rcc.c ****   * @param  RCC_AHBPeriph: specifies the AHB3 peripheral to gates its clock.
1845:Libraries/STM32F4xx_StdPeriph_Driver/src/stm32f4xx_rcc.c ****   *          This parameter must be: 
1846:Libraries/STM32F4xx_StdPeriph_Driver/src/stm32f4xx_rcc.c ****   *           - RCC_AHB3Periph_FSMC or RCC_AHB3Periph_FMC (STM32F429x/439x devices)
1847:Libraries/STM32F4xx_StdPeriph_Driver/src/stm32f4xx_rcc.c ****   *           - RCC_AHB3Periph_QSPI (STM32F446xx devices)
1848:Libraries/STM32F4xx_StdPeriph_Driver/src/stm32f4xx_rcc.c ****   * @param  NewState: new state of the specified peripheral clock.
1849:Libraries/STM32F4xx_StdPeriph_Driver/src/stm32f4xx_rcc.c ****   *          This parameter can be: ENABLE or DISABLE.
1850:Libraries/STM32F4xx_StdPeriph_Driver/src/stm32f4xx_rcc.c ****   * @retval None
1851:Libraries/STM32F4xx_StdPeriph_Driver/src/stm32f4xx_rcc.c ****   */
1852:Libraries/STM32F4xx_StdPeriph_Driver/src/stm32f4xx_rcc.c **** void RCC_AHB3PeriphClockCmd(uint32_t RCC_AHB3Periph, FunctionalState NewState)
1853:Libraries/STM32F4xx_StdPeriph_Driver/src/stm32f4xx_rcc.c **** {
1854:Libraries/STM32F4xx_StdPeriph_Driver/src/stm32f4xx_rcc.c ****   /* Check the parameters */
1855:Libraries/STM32F4xx_StdPeriph_Driver/src/stm32f4xx_rcc.c ****   assert_param(IS_RCC_AHB3_PERIPH(RCC_AHB3Periph));  
1856:Libraries/STM32F4xx_StdPeriph_Driver/src/stm32f4xx_rcc.c ****   assert_param(IS_FUNCTIONAL_STATE(NewState));
1857:Libraries/STM32F4xx_StdPeriph_Driver/src/stm32f4xx_rcc.c **** 
1858:Libraries/STM32F4xx_StdPeriph_Driver/src/stm32f4xx_rcc.c ****   if (NewState != DISABLE)
1859:Libraries/STM32F4xx_StdPeriph_Driver/src/stm32f4xx_rcc.c ****   {
1860:Libraries/STM32F4xx_StdPeriph_Driver/src/stm32f4xx_rcc.c ****     RCC->AHB3ENR |= RCC_AHB3Periph;
1861:Libraries/STM32F4xx_StdPeriph_Driver/src/stm32f4xx_rcc.c ****   }
1862:Libraries/STM32F4xx_StdPeriph_Driver/src/stm32f4xx_rcc.c ****   else
1863:Libraries/STM32F4xx_StdPeriph_Driver/src/stm32f4xx_rcc.c ****   {
1864:Libraries/STM32F4xx_StdPeriph_Driver/src/stm32f4xx_rcc.c ****     RCC->AHB3ENR &= ~RCC_AHB3Periph;
1865:Libraries/STM32F4xx_StdPeriph_Driver/src/stm32f4xx_rcc.c ****   }
1866:Libraries/STM32F4xx_StdPeriph_Driver/src/stm32f4xx_rcc.c **** }
1867:Libraries/STM32F4xx_StdPeriph_Driver/src/stm32f4xx_rcc.c **** #endif /* STM32F40_41xxx || STM32F427_437xx || STM32F429_439xx || STM32F446xx */
1868:Libraries/STM32F4xx_StdPeriph_Driver/src/stm32f4xx_rcc.c **** 
1869:Libraries/STM32F4xx_StdPeriph_Driver/src/stm32f4xx_rcc.c **** /**
1870:Libraries/STM32F4xx_StdPeriph_Driver/src/stm32f4xx_rcc.c ****   * @brief  Enables or disables the Low Speed APB (APB1) peripheral clock.
1871:Libraries/STM32F4xx_StdPeriph_Driver/src/stm32f4xx_rcc.c ****   * @note   After reset, the peripheral clock (used for registers read/write access)
1872:Libraries/STM32F4xx_StdPeriph_Driver/src/stm32f4xx_rcc.c ****   *         is disabled and the application software has to enable this clock before 
1873:Libraries/STM32F4xx_StdPeriph_Driver/src/stm32f4xx_rcc.c ****   *         using it. 
1874:Libraries/STM32F4xx_StdPeriph_Driver/src/stm32f4xx_rcc.c ****   * @param  RCC_APB1Periph: specifies the APB1 peripheral to gates its clock.
1875:Libraries/STM32F4xx_StdPeriph_Driver/src/stm32f4xx_rcc.c ****   *          This parameter can be any combination of the following values:
1876:Libraries/STM32F4xx_StdPeriph_Driver/src/stm32f4xx_rcc.c ****   *            @arg RCC_APB1Periph_TIM2:   TIM2 clock
1877:Libraries/STM32F4xx_StdPeriph_Driver/src/stm32f4xx_rcc.c ****   *            @arg RCC_APB1Periph_TIM3:   TIM3 clock
1878:Libraries/STM32F4xx_StdPeriph_Driver/src/stm32f4xx_rcc.c ****   *            @arg RCC_APB1Periph_TIM4:   TIM4 clock
1879:Libraries/STM32F4xx_StdPeriph_Driver/src/stm32f4xx_rcc.c ****   *            @arg RCC_APB1Periph_TIM5:   TIM5 clock
1880:Libraries/STM32F4xx_StdPeriph_Driver/src/stm32f4xx_rcc.c ****   *            @arg RCC_APB1Periph_TIM6:   TIM6 clock
1881:Libraries/STM32F4xx_StdPeriph_Driver/src/stm32f4xx_rcc.c ****   *            @arg RCC_APB1Periph_TIM7:   TIM7 clock
1882:Libraries/STM32F4xx_StdPeriph_Driver/src/stm32f4xx_rcc.c ****   *            @arg RCC_APB1Periph_TIM12:  TIM12 clock
1883:Libraries/STM32F4xx_StdPeriph_Driver/src/stm32f4xx_rcc.c ****   *            @arg RCC_APB1Periph_TIM13:  TIM13 clock
1884:Libraries/STM32F4xx_StdPeriph_Driver/src/stm32f4xx_rcc.c ****   *            @arg RCC_APB1Periph_TIM14:  TIM14 clock
1885:Libraries/STM32F4xx_StdPeriph_Driver/src/stm32f4xx_rcc.c ****   *            @arg RCC_APB1Periph_WWDG:   WWDG clock
1886:Libraries/STM32F4xx_StdPeriph_Driver/src/stm32f4xx_rcc.c ****   *            @arg RCC_APB1Periph_SPI2:   SPI2 clock
1887:Libraries/STM32F4xx_StdPeriph_Driver/src/stm32f4xx_rcc.c ****   *            @arg RCC_APB1Periph_SPI3:   SPI3 clock
1888:Libraries/STM32F4xx_StdPeriph_Driver/src/stm32f4xx_rcc.c ****   *            @arg RCC_APB1Periph_SPDIF:   SPDIF RX clock (STM32F446xx devices) 
1889:Libraries/STM32F4xx_StdPeriph_Driver/src/stm32f4xx_rcc.c ****   *            @arg RCC_APB1Periph_USART2: USART2 clock
1890:Libraries/STM32F4xx_StdPeriph_Driver/src/stm32f4xx_rcc.c ****   *            @arg RCC_APB1Periph_USART3: USART3 clock
1891:Libraries/STM32F4xx_StdPeriph_Driver/src/stm32f4xx_rcc.c ****   *            @arg RCC_APB1Periph_UART4:  UART4 clock
1892:Libraries/STM32F4xx_StdPeriph_Driver/src/stm32f4xx_rcc.c ****   *            @arg RCC_APB1Periph_UART5:  UART5 clock
1893:Libraries/STM32F4xx_StdPeriph_Driver/src/stm32f4xx_rcc.c ****   *            @arg RCC_APB1Periph_I2C1:   I2C1 clock
1894:Libraries/STM32F4xx_StdPeriph_Driver/src/stm32f4xx_rcc.c ****   *            @arg RCC_APB1Periph_I2C2:   I2C2 clock
1895:Libraries/STM32F4xx_StdPeriph_Driver/src/stm32f4xx_rcc.c ****   *            @arg RCC_APB1Periph_I2C3:   I2C3 clock
1896:Libraries/STM32F4xx_StdPeriph_Driver/src/stm32f4xx_rcc.c ****   *            @arg RCC_APB1Periph_FMPI2C1:   FMPI2C1 clock
1897:Libraries/STM32F4xx_StdPeriph_Driver/src/stm32f4xx_rcc.c ****   *            @arg RCC_APB1Periph_CAN1:   CAN1 clock
1898:Libraries/STM32F4xx_StdPeriph_Driver/src/stm32f4xx_rcc.c ****   *            @arg RCC_APB1Periph_CAN2:   CAN2 clock
1899:Libraries/STM32F4xx_StdPeriph_Driver/src/stm32f4xx_rcc.c ****   *            @arg RCC_APB1Periph_CEC:    CEC clock (STM32F446xx devices)
1900:Libraries/STM32F4xx_StdPeriph_Driver/src/stm32f4xx_rcc.c ****   *            @arg RCC_APB1Periph_PWR:    PWR clock
1901:Libraries/STM32F4xx_StdPeriph_Driver/src/stm32f4xx_rcc.c ****   *            @arg RCC_APB1Periph_DAC:    DAC clock
1902:Libraries/STM32F4xx_StdPeriph_Driver/src/stm32f4xx_rcc.c ****   *            @arg RCC_APB1Periph_UART7:  UART7 clock
1903:Libraries/STM32F4xx_StdPeriph_Driver/src/stm32f4xx_rcc.c ****   *            @arg RCC_APB1Periph_UART8:  UART8 clock
1904:Libraries/STM32F4xx_StdPeriph_Driver/src/stm32f4xx_rcc.c ****   * @param  NewState: new state of the specified peripheral clock.
1905:Libraries/STM32F4xx_StdPeriph_Driver/src/stm32f4xx_rcc.c ****   *          This parameter can be: ENABLE or DISABLE.
1906:Libraries/STM32F4xx_StdPeriph_Driver/src/stm32f4xx_rcc.c ****   * @retval None
1907:Libraries/STM32F4xx_StdPeriph_Driver/src/stm32f4xx_rcc.c ****   */
1908:Libraries/STM32F4xx_StdPeriph_Driver/src/stm32f4xx_rcc.c **** void RCC_APB1PeriphClockCmd(uint32_t RCC_APB1Periph, FunctionalState NewState)
1909:Libraries/STM32F4xx_StdPeriph_Driver/src/stm32f4xx_rcc.c **** {
1910:Libraries/STM32F4xx_StdPeriph_Driver/src/stm32f4xx_rcc.c ****   /* Check the parameters */
1911:Libraries/STM32F4xx_StdPeriph_Driver/src/stm32f4xx_rcc.c ****   assert_param(IS_RCC_APB1_PERIPH(RCC_APB1Periph));  
1912:Libraries/STM32F4xx_StdPeriph_Driver/src/stm32f4xx_rcc.c ****   assert_param(IS_FUNCTIONAL_STATE(NewState));
1913:Libraries/STM32F4xx_StdPeriph_Driver/src/stm32f4xx_rcc.c **** 
1914:Libraries/STM32F4xx_StdPeriph_Driver/src/stm32f4xx_rcc.c ****   if (NewState != DISABLE)
1915:Libraries/STM32F4xx_StdPeriph_Driver/src/stm32f4xx_rcc.c ****   {
1916:Libraries/STM32F4xx_StdPeriph_Driver/src/stm32f4xx_rcc.c ****     RCC->APB1ENR |= RCC_APB1Periph;
1917:Libraries/STM32F4xx_StdPeriph_Driver/src/stm32f4xx_rcc.c ****   }
1918:Libraries/STM32F4xx_StdPeriph_Driver/src/stm32f4xx_rcc.c ****   else
1919:Libraries/STM32F4xx_StdPeriph_Driver/src/stm32f4xx_rcc.c ****   {
1920:Libraries/STM32F4xx_StdPeriph_Driver/src/stm32f4xx_rcc.c ****     RCC->APB1ENR &= ~RCC_APB1Periph;
1921:Libraries/STM32F4xx_StdPeriph_Driver/src/stm32f4xx_rcc.c ****   }
1922:Libraries/STM32F4xx_StdPeriph_Driver/src/stm32f4xx_rcc.c **** }
1923:Libraries/STM32F4xx_StdPeriph_Driver/src/stm32f4xx_rcc.c **** 
1924:Libraries/STM32F4xx_StdPeriph_Driver/src/stm32f4xx_rcc.c **** /**
1925:Libraries/STM32F4xx_StdPeriph_Driver/src/stm32f4xx_rcc.c ****   * @brief  Enables or disables the High Speed APB (APB2) peripheral clock.
1926:Libraries/STM32F4xx_StdPeriph_Driver/src/stm32f4xx_rcc.c ****   * @note   After reset, the peripheral clock (used for registers read/write access)
1927:Libraries/STM32F4xx_StdPeriph_Driver/src/stm32f4xx_rcc.c ****   *         is disabled and the application software has to enable this clock before 
1928:Libraries/STM32F4xx_StdPeriph_Driver/src/stm32f4xx_rcc.c ****   *         using it.
1929:Libraries/STM32F4xx_StdPeriph_Driver/src/stm32f4xx_rcc.c ****   * @param  RCC_APB2Periph: specifies the APB2 peripheral to gates its clock.
1930:Libraries/STM32F4xx_StdPeriph_Driver/src/stm32f4xx_rcc.c ****   *          This parameter can be any combination of the following values:
1931:Libraries/STM32F4xx_StdPeriph_Driver/src/stm32f4xx_rcc.c ****   *            @arg RCC_APB2Periph_TIM1:   TIM1 clock
1932:Libraries/STM32F4xx_StdPeriph_Driver/src/stm32f4xx_rcc.c ****   *            @arg RCC_APB2Periph_TIM8:   TIM8 clock
1933:Libraries/STM32F4xx_StdPeriph_Driver/src/stm32f4xx_rcc.c ****   *            @arg RCC_APB2Periph_USART1: USART1 clock
1934:Libraries/STM32F4xx_StdPeriph_Driver/src/stm32f4xx_rcc.c ****   *            @arg RCC_APB2Periph_USART6: USART6 clock
1935:Libraries/STM32F4xx_StdPeriph_Driver/src/stm32f4xx_rcc.c ****   *            @arg RCC_APB2Periph_ADC1:   ADC1 clock
1936:Libraries/STM32F4xx_StdPeriph_Driver/src/stm32f4xx_rcc.c ****   *            @arg RCC_APB2Periph_ADC2:   ADC2 clock
1937:Libraries/STM32F4xx_StdPeriph_Driver/src/stm32f4xx_rcc.c ****   *            @arg RCC_APB2Periph_ADC3:   ADC3 clock
1938:Libraries/STM32F4xx_StdPeriph_Driver/src/stm32f4xx_rcc.c ****   *            @arg RCC_APB2Periph_SDIO:   SDIO clock
1939:Libraries/STM32F4xx_StdPeriph_Driver/src/stm32f4xx_rcc.c ****   *            @arg RCC_APB2Periph_SPI1:   SPI1 clock
1940:Libraries/STM32F4xx_StdPeriph_Driver/src/stm32f4xx_rcc.c ****   *            @arg RCC_APB2Periph_SPI4:   SPI4 clock
1941:Libraries/STM32F4xx_StdPeriph_Driver/src/stm32f4xx_rcc.c ****   *            @arg RCC_APB2Periph_SYSCFG: SYSCFG clock
1942:Libraries/STM32F4xx_StdPeriph_Driver/src/stm32f4xx_rcc.c ****   *            @arg RCC_APB2Periph_TIM9:   TIM9 clock
1943:Libraries/STM32F4xx_StdPeriph_Driver/src/stm32f4xx_rcc.c ****   *            @arg RCC_APB2Periph_TIM10:  TIM10 clock
1944:Libraries/STM32F4xx_StdPeriph_Driver/src/stm32f4xx_rcc.c ****   *            @arg RCC_APB2Periph_TIM11:  TIM11 clock
1945:Libraries/STM32F4xx_StdPeriph_Driver/src/stm32f4xx_rcc.c ****   *            @arg RCC_APB2Periph_SPI5:   SPI5 clock
1946:Libraries/STM32F4xx_StdPeriph_Driver/src/stm32f4xx_rcc.c ****   *            @arg RCC_APB2Periph_SPI6:   SPI6 clock
1947:Libraries/STM32F4xx_StdPeriph_Driver/src/stm32f4xx_rcc.c ****   *            @arg RCC_APB2Periph_SAI1:   SAI1 clock (STM32F42xxx/43xxx devices)
1948:Libraries/STM32F4xx_StdPeriph_Driver/src/stm32f4xx_rcc.c ****   *            @arg RCC_APB2Periph_SAI2:   SAI2 clock (STM32F446xx devices) 
1949:Libraries/STM32F4xx_StdPeriph_Driver/src/stm32f4xx_rcc.c ****   *            @arg RCC_APB2Periph_LTDC:   LTDC clock (STM32F429xx/439xx devices)
1950:Libraries/STM32F4xx_StdPeriph_Driver/src/stm32f4xx_rcc.c ****   * @param  NewState: new state of the specified peripheral clock.
1951:Libraries/STM32F4xx_StdPeriph_Driver/src/stm32f4xx_rcc.c ****   *          This parameter can be: ENABLE or DISABLE.
1952:Libraries/STM32F4xx_StdPeriph_Driver/src/stm32f4xx_rcc.c ****   * @retval None
1953:Libraries/STM32F4xx_StdPeriph_Driver/src/stm32f4xx_rcc.c ****   */
1954:Libraries/STM32F4xx_StdPeriph_Driver/src/stm32f4xx_rcc.c **** void RCC_APB2PeriphClockCmd(uint32_t RCC_APB2Periph, FunctionalState NewState)
1955:Libraries/STM32F4xx_StdPeriph_Driver/src/stm32f4xx_rcc.c **** {
1956:Libraries/STM32F4xx_StdPeriph_Driver/src/stm32f4xx_rcc.c ****   /* Check the parameters */
1957:Libraries/STM32F4xx_StdPeriph_Driver/src/stm32f4xx_rcc.c ****   assert_param(IS_RCC_APB2_PERIPH(RCC_APB2Periph));
1958:Libraries/STM32F4xx_StdPeriph_Driver/src/stm32f4xx_rcc.c ****   assert_param(IS_FUNCTIONAL_STATE(NewState));
1959:Libraries/STM32F4xx_StdPeriph_Driver/src/stm32f4xx_rcc.c **** 
1960:Libraries/STM32F4xx_StdPeriph_Driver/src/stm32f4xx_rcc.c ****   if (NewState != DISABLE)
1961:Libraries/STM32F4xx_StdPeriph_Driver/src/stm32f4xx_rcc.c ****   {
1962:Libraries/STM32F4xx_StdPeriph_Driver/src/stm32f4xx_rcc.c ****     RCC->APB2ENR |= RCC_APB2Periph;
1963:Libraries/STM32F4xx_StdPeriph_Driver/src/stm32f4xx_rcc.c ****   }
1964:Libraries/STM32F4xx_StdPeriph_Driver/src/stm32f4xx_rcc.c ****   else
1965:Libraries/STM32F4xx_StdPeriph_Driver/src/stm32f4xx_rcc.c ****   {
1966:Libraries/STM32F4xx_StdPeriph_Driver/src/stm32f4xx_rcc.c ****     RCC->APB2ENR &= ~RCC_APB2Periph;
1967:Libraries/STM32F4xx_StdPeriph_Driver/src/stm32f4xx_rcc.c ****   }
1968:Libraries/STM32F4xx_StdPeriph_Driver/src/stm32f4xx_rcc.c **** }
1969:Libraries/STM32F4xx_StdPeriph_Driver/src/stm32f4xx_rcc.c **** 
1970:Libraries/STM32F4xx_StdPeriph_Driver/src/stm32f4xx_rcc.c **** /**
1971:Libraries/STM32F4xx_StdPeriph_Driver/src/stm32f4xx_rcc.c ****   * @brief  Forces or releases AHB1 peripheral reset.
1972:Libraries/STM32F4xx_StdPeriph_Driver/src/stm32f4xx_rcc.c ****   * @param  RCC_AHB1Periph: specifies the AHB1 peripheral to reset.
1973:Libraries/STM32F4xx_StdPeriph_Driver/src/stm32f4xx_rcc.c ****   *          This parameter can be any combination of the following values:
1974:Libraries/STM32F4xx_StdPeriph_Driver/src/stm32f4xx_rcc.c ****   *            @arg RCC_AHB1Periph_GPIOA:   GPIOA clock
1975:Libraries/STM32F4xx_StdPeriph_Driver/src/stm32f4xx_rcc.c ****   *            @arg RCC_AHB1Periph_GPIOB:   GPIOB clock 
1976:Libraries/STM32F4xx_StdPeriph_Driver/src/stm32f4xx_rcc.c ****   *            @arg RCC_AHB1Periph_GPIOC:   GPIOC clock
1977:Libraries/STM32F4xx_StdPeriph_Driver/src/stm32f4xx_rcc.c ****   *            @arg RCC_AHB1Periph_GPIOD:   GPIOD clock
1978:Libraries/STM32F4xx_StdPeriph_Driver/src/stm32f4xx_rcc.c ****   *            @arg RCC_AHB1Periph_GPIOE:   GPIOE clock
1979:Libraries/STM32F4xx_StdPeriph_Driver/src/stm32f4xx_rcc.c ****   *            @arg RCC_AHB1Periph_GPIOF:   GPIOF clock
1980:Libraries/STM32F4xx_StdPeriph_Driver/src/stm32f4xx_rcc.c ****   *            @arg RCC_AHB1Periph_GPIOG:   GPIOG clock
1981:Libraries/STM32F4xx_StdPeriph_Driver/src/stm32f4xx_rcc.c ****   *            @arg RCC_AHB1Periph_GPIOG:   GPIOG clock
1982:Libraries/STM32F4xx_StdPeriph_Driver/src/stm32f4xx_rcc.c ****   *            @arg RCC_AHB1Periph_GPIOI:   GPIOI clock
1983:Libraries/STM32F4xx_StdPeriph_Driver/src/stm32f4xx_rcc.c ****   *            @arg RCC_AHB1Periph_GPIOJ:   GPIOJ clock (STM32F42xxx/43xxx devices) 
1984:Libraries/STM32F4xx_StdPeriph_Driver/src/stm32f4xx_rcc.c ****   *            @arg RCC_AHB1Periph_GPIOK:   GPIOK clock (STM32F42xxx/43xxxdevices)   
1985:Libraries/STM32F4xx_StdPeriph_Driver/src/stm32f4xx_rcc.c ****   *            @arg RCC_AHB1Periph_CRC:     CRC clock
1986:Libraries/STM32F4xx_StdPeriph_Driver/src/stm32f4xx_rcc.c ****   *            @arg RCC_AHB1Periph_DMA1:    DMA1 clock
1987:Libraries/STM32F4xx_StdPeriph_Driver/src/stm32f4xx_rcc.c ****   *            @arg RCC_AHB1Periph_DMA2:    DMA2 clock
1988:Libraries/STM32F4xx_StdPeriph_Driver/src/stm32f4xx_rcc.c ****   *            @arg RCC_AHB1Periph_DMA2D:   DMA2D clock (STM32F429xx/439xx devices)   
1989:Libraries/STM32F4xx_StdPeriph_Driver/src/stm32f4xx_rcc.c ****   *            @arg RCC_AHB1Periph_ETH_MAC: Ethernet MAC clock
1990:Libraries/STM32F4xx_StdPeriph_Driver/src/stm32f4xx_rcc.c ****   *            @arg RCC_AHB1Periph_OTG_HS:  USB OTG HS clock
1991:Libraries/STM32F4xx_StdPeriph_Driver/src/stm32f4xx_rcc.c ****   *                  
1992:Libraries/STM32F4xx_StdPeriph_Driver/src/stm32f4xx_rcc.c ****   * @param  NewState: new state of the specified peripheral reset.
1993:Libraries/STM32F4xx_StdPeriph_Driver/src/stm32f4xx_rcc.c ****   *          This parameter can be: ENABLE or DISABLE.
1994:Libraries/STM32F4xx_StdPeriph_Driver/src/stm32f4xx_rcc.c ****   * @retval None
1995:Libraries/STM32F4xx_StdPeriph_Driver/src/stm32f4xx_rcc.c ****   */
1996:Libraries/STM32F4xx_StdPeriph_Driver/src/stm32f4xx_rcc.c **** void RCC_AHB1PeriphResetCmd(uint32_t RCC_AHB1Periph, FunctionalState NewState)
1997:Libraries/STM32F4xx_StdPeriph_Driver/src/stm32f4xx_rcc.c **** {
1998:Libraries/STM32F4xx_StdPeriph_Driver/src/stm32f4xx_rcc.c ****   /* Check the parameters */
1999:Libraries/STM32F4xx_StdPeriph_Driver/src/stm32f4xx_rcc.c ****   assert_param(IS_RCC_AHB1_RESET_PERIPH(RCC_AHB1Periph));
2000:Libraries/STM32F4xx_StdPeriph_Driver/src/stm32f4xx_rcc.c ****   assert_param(IS_FUNCTIONAL_STATE(NewState));
2001:Libraries/STM32F4xx_StdPeriph_Driver/src/stm32f4xx_rcc.c **** 
2002:Libraries/STM32F4xx_StdPeriph_Driver/src/stm32f4xx_rcc.c ****   if (NewState != DISABLE)
2003:Libraries/STM32F4xx_StdPeriph_Driver/src/stm32f4xx_rcc.c ****   {
2004:Libraries/STM32F4xx_StdPeriph_Driver/src/stm32f4xx_rcc.c ****     RCC->AHB1RSTR |= RCC_AHB1Periph;
2005:Libraries/STM32F4xx_StdPeriph_Driver/src/stm32f4xx_rcc.c ****   }
2006:Libraries/STM32F4xx_StdPeriph_Driver/src/stm32f4xx_rcc.c ****   else
2007:Libraries/STM32F4xx_StdPeriph_Driver/src/stm32f4xx_rcc.c ****   {
2008:Libraries/STM32F4xx_StdPeriph_Driver/src/stm32f4xx_rcc.c ****     RCC->AHB1RSTR &= ~RCC_AHB1Periph;
2009:Libraries/STM32F4xx_StdPeriph_Driver/src/stm32f4xx_rcc.c ****   }
2010:Libraries/STM32F4xx_StdPeriph_Driver/src/stm32f4xx_rcc.c **** }
2011:Libraries/STM32F4xx_StdPeriph_Driver/src/stm32f4xx_rcc.c **** 
2012:Libraries/STM32F4xx_StdPeriph_Driver/src/stm32f4xx_rcc.c **** /**
2013:Libraries/STM32F4xx_StdPeriph_Driver/src/stm32f4xx_rcc.c ****   * @brief  Forces or releases AHB2 peripheral reset.
2014:Libraries/STM32F4xx_StdPeriph_Driver/src/stm32f4xx_rcc.c ****   * @param  RCC_AHB2Periph: specifies the AHB2 peripheral to reset.
2015:Libraries/STM32F4xx_StdPeriph_Driver/src/stm32f4xx_rcc.c ****   *          This parameter can be any combination of the following values:
2016:Libraries/STM32F4xx_StdPeriph_Driver/src/stm32f4xx_rcc.c ****   *            @arg RCC_AHB2Periph_DCMI:   DCMI clock
2017:Libraries/STM32F4xx_StdPeriph_Driver/src/stm32f4xx_rcc.c ****   *            @arg RCC_AHB2Periph_CRYP:   CRYP clock
2018:Libraries/STM32F4xx_StdPeriph_Driver/src/stm32f4xx_rcc.c ****   *            @arg RCC_AHB2Periph_HASH:   HASH clock
2019:Libraries/STM32F4xx_StdPeriph_Driver/src/stm32f4xx_rcc.c ****   *            @arg RCC_AHB2Periph_RNG:    RNG clock
2020:Libraries/STM32F4xx_StdPeriph_Driver/src/stm32f4xx_rcc.c ****   *            @arg RCC_AHB2Periph_OTG_FS: USB OTG FS clock
2021:Libraries/STM32F4xx_StdPeriph_Driver/src/stm32f4xx_rcc.c ****   * @param  NewState: new state of the specified peripheral reset.
2022:Libraries/STM32F4xx_StdPeriph_Driver/src/stm32f4xx_rcc.c ****   *          This parameter can be: ENABLE or DISABLE.
2023:Libraries/STM32F4xx_StdPeriph_Driver/src/stm32f4xx_rcc.c ****   * @retval None
2024:Libraries/STM32F4xx_StdPeriph_Driver/src/stm32f4xx_rcc.c ****   */
2025:Libraries/STM32F4xx_StdPeriph_Driver/src/stm32f4xx_rcc.c **** void RCC_AHB2PeriphResetCmd(uint32_t RCC_AHB2Periph, FunctionalState NewState)
2026:Libraries/STM32F4xx_StdPeriph_Driver/src/stm32f4xx_rcc.c **** {
2027:Libraries/STM32F4xx_StdPeriph_Driver/src/stm32f4xx_rcc.c ****   /* Check the parameters */
2028:Libraries/STM32F4xx_StdPeriph_Driver/src/stm32f4xx_rcc.c ****   assert_param(IS_RCC_AHB2_PERIPH(RCC_AHB2Periph));
2029:Libraries/STM32F4xx_StdPeriph_Driver/src/stm32f4xx_rcc.c ****   assert_param(IS_FUNCTIONAL_STATE(NewState));
2030:Libraries/STM32F4xx_StdPeriph_Driver/src/stm32f4xx_rcc.c **** 
2031:Libraries/STM32F4xx_StdPeriph_Driver/src/stm32f4xx_rcc.c ****   if (NewState != DISABLE)
2032:Libraries/STM32F4xx_StdPeriph_Driver/src/stm32f4xx_rcc.c ****   {
2033:Libraries/STM32F4xx_StdPeriph_Driver/src/stm32f4xx_rcc.c ****     RCC->AHB2RSTR |= RCC_AHB2Periph;
2034:Libraries/STM32F4xx_StdPeriph_Driver/src/stm32f4xx_rcc.c ****   }
2035:Libraries/STM32F4xx_StdPeriph_Driver/src/stm32f4xx_rcc.c ****   else
2036:Libraries/STM32F4xx_StdPeriph_Driver/src/stm32f4xx_rcc.c ****   {
2037:Libraries/STM32F4xx_StdPeriph_Driver/src/stm32f4xx_rcc.c ****     RCC->AHB2RSTR &= ~RCC_AHB2Periph;
2038:Libraries/STM32F4xx_StdPeriph_Driver/src/stm32f4xx_rcc.c ****   }
2039:Libraries/STM32F4xx_StdPeriph_Driver/src/stm32f4xx_rcc.c **** }
2040:Libraries/STM32F4xx_StdPeriph_Driver/src/stm32f4xx_rcc.c **** 
2041:Libraries/STM32F4xx_StdPeriph_Driver/src/stm32f4xx_rcc.c **** #if defined(STM32F40_41xxx) || defined(STM32F427_437xx) || defined(STM32F429_439xx) || defined(STM3
2042:Libraries/STM32F4xx_StdPeriph_Driver/src/stm32f4xx_rcc.c **** /**
2043:Libraries/STM32F4xx_StdPeriph_Driver/src/stm32f4xx_rcc.c ****   * @brief  Forces or releases AHB3 peripheral reset.
2044:Libraries/STM32F4xx_StdPeriph_Driver/src/stm32f4xx_rcc.c ****   * @param  RCC_AHB3Periph: specifies the AHB3 peripheral to reset.
2045:Libraries/STM32F4xx_StdPeriph_Driver/src/stm32f4xx_rcc.c ****   *          This parameter must be: 
2046:Libraries/STM32F4xx_StdPeriph_Driver/src/stm32f4xx_rcc.c ****   *           - RCC_AHB3Periph_FSMC or RCC_AHB3Periph_FMC (STM32F429x/439x devices)
2047:Libraries/STM32F4xx_StdPeriph_Driver/src/stm32f4xx_rcc.c ****   *           - RCC_AHB3Periph_QSPI (STM32F446xx devices)
2048:Libraries/STM32F4xx_StdPeriph_Driver/src/stm32f4xx_rcc.c ****   * @param  NewState: new state of the specified peripheral reset.
2049:Libraries/STM32F4xx_StdPeriph_Driver/src/stm32f4xx_rcc.c ****   *          This parameter can be: ENABLE or DISABLE.
2050:Libraries/STM32F4xx_StdPeriph_Driver/src/stm32f4xx_rcc.c ****   * @retval None
2051:Libraries/STM32F4xx_StdPeriph_Driver/src/stm32f4xx_rcc.c ****   */
2052:Libraries/STM32F4xx_StdPeriph_Driver/src/stm32f4xx_rcc.c **** void RCC_AHB3PeriphResetCmd(uint32_t RCC_AHB3Periph, FunctionalState NewState)
2053:Libraries/STM32F4xx_StdPeriph_Driver/src/stm32f4xx_rcc.c **** {
2054:Libraries/STM32F4xx_StdPeriph_Driver/src/stm32f4xx_rcc.c ****   /* Check the parameters */
2055:Libraries/STM32F4xx_StdPeriph_Driver/src/stm32f4xx_rcc.c ****   assert_param(IS_RCC_AHB3_PERIPH(RCC_AHB3Periph));
2056:Libraries/STM32F4xx_StdPeriph_Driver/src/stm32f4xx_rcc.c ****   assert_param(IS_FUNCTIONAL_STATE(NewState));
2057:Libraries/STM32F4xx_StdPeriph_Driver/src/stm32f4xx_rcc.c **** 
2058:Libraries/STM32F4xx_StdPeriph_Driver/src/stm32f4xx_rcc.c ****   if (NewState != DISABLE)
2059:Libraries/STM32F4xx_StdPeriph_Driver/src/stm32f4xx_rcc.c ****   {
2060:Libraries/STM32F4xx_StdPeriph_Driver/src/stm32f4xx_rcc.c ****     RCC->AHB3RSTR |= RCC_AHB3Periph;
2061:Libraries/STM32F4xx_StdPeriph_Driver/src/stm32f4xx_rcc.c ****   }
2062:Libraries/STM32F4xx_StdPeriph_Driver/src/stm32f4xx_rcc.c ****   else
2063:Libraries/STM32F4xx_StdPeriph_Driver/src/stm32f4xx_rcc.c ****   {
2064:Libraries/STM32F4xx_StdPeriph_Driver/src/stm32f4xx_rcc.c ****     RCC->AHB3RSTR &= ~RCC_AHB3Periph;
2065:Libraries/STM32F4xx_StdPeriph_Driver/src/stm32f4xx_rcc.c ****   }
2066:Libraries/STM32F4xx_StdPeriph_Driver/src/stm32f4xx_rcc.c **** }
2067:Libraries/STM32F4xx_StdPeriph_Driver/src/stm32f4xx_rcc.c **** #endif /* STM32F40_41xxx || STM32F427_437xx || STM32F429_439xx || STM32F446xx */
2068:Libraries/STM32F4xx_StdPeriph_Driver/src/stm32f4xx_rcc.c **** 
2069:Libraries/STM32F4xx_StdPeriph_Driver/src/stm32f4xx_rcc.c **** /**
2070:Libraries/STM32F4xx_StdPeriph_Driver/src/stm32f4xx_rcc.c ****   * @brief  Forces or releases Low Speed APB (APB1) peripheral reset.
2071:Libraries/STM32F4xx_StdPeriph_Driver/src/stm32f4xx_rcc.c ****   * @param  RCC_APB1Periph: specifies the APB1 peripheral to reset.
2072:Libraries/STM32F4xx_StdPeriph_Driver/src/stm32f4xx_rcc.c ****   *          This parameter can be any combination of the following values:
2073:Libraries/STM32F4xx_StdPeriph_Driver/src/stm32f4xx_rcc.c ****   *            @arg RCC_APB1Periph_TIM2:   TIM2 clock
2074:Libraries/STM32F4xx_StdPeriph_Driver/src/stm32f4xx_rcc.c ****   *            @arg RCC_APB1Periph_TIM3:   TIM3 clock
2075:Libraries/STM32F4xx_StdPeriph_Driver/src/stm32f4xx_rcc.c ****   *            @arg RCC_APB1Periph_TIM4:   TIM4 clock
2076:Libraries/STM32F4xx_StdPeriph_Driver/src/stm32f4xx_rcc.c ****   *            @arg RCC_APB1Periph_TIM5:   TIM5 clock
2077:Libraries/STM32F4xx_StdPeriph_Driver/src/stm32f4xx_rcc.c ****   *            @arg RCC_APB1Periph_TIM6:   TIM6 clock
2078:Libraries/STM32F4xx_StdPeriph_Driver/src/stm32f4xx_rcc.c ****   *            @arg RCC_APB1Periph_TIM7:   TIM7 clock
2079:Libraries/STM32F4xx_StdPeriph_Driver/src/stm32f4xx_rcc.c ****   *            @arg RCC_APB1Periph_TIM12:  TIM12 clock
2080:Libraries/STM32F4xx_StdPeriph_Driver/src/stm32f4xx_rcc.c ****   *            @arg RCC_APB1Periph_TIM13:  TIM13 clock
2081:Libraries/STM32F4xx_StdPeriph_Driver/src/stm32f4xx_rcc.c ****   *            @arg RCC_APB1Periph_TIM14:  TIM14 clock
2082:Libraries/STM32F4xx_StdPeriph_Driver/src/stm32f4xx_rcc.c ****   *            @arg RCC_APB1Periph_WWDG:   WWDG clock
2083:Libraries/STM32F4xx_StdPeriph_Driver/src/stm32f4xx_rcc.c ****   *            @arg RCC_APB1Periph_SPI2:   SPI2 clock
2084:Libraries/STM32F4xx_StdPeriph_Driver/src/stm32f4xx_rcc.c ****   *            @arg RCC_APB1Periph_SPI3:   SPI3 clock
2085:Libraries/STM32F4xx_StdPeriph_Driver/src/stm32f4xx_rcc.c ****   *            @arg RCC_APB1Periph_SPDIF:   SPDIF RX clock (STM32F446xx devices) 
2086:Libraries/STM32F4xx_StdPeriph_Driver/src/stm32f4xx_rcc.c ****   *            @arg RCC_APB1Periph_USART2: USART2 clock
2087:Libraries/STM32F4xx_StdPeriph_Driver/src/stm32f4xx_rcc.c ****   *            @arg RCC_APB1Periph_USART3: USART3 clock
2088:Libraries/STM32F4xx_StdPeriph_Driver/src/stm32f4xx_rcc.c ****   *            @arg RCC_APB1Periph_UART4:  UART4 clock
2089:Libraries/STM32F4xx_StdPeriph_Driver/src/stm32f4xx_rcc.c ****   *            @arg RCC_APB1Periph_UART5:  UART5 clock
2090:Libraries/STM32F4xx_StdPeriph_Driver/src/stm32f4xx_rcc.c ****   *            @arg RCC_APB1Periph_I2C1:   I2C1 clock
2091:Libraries/STM32F4xx_StdPeriph_Driver/src/stm32f4xx_rcc.c ****   *            @arg RCC_APB1Periph_I2C2:   I2C2 clock
2092:Libraries/STM32F4xx_StdPeriph_Driver/src/stm32f4xx_rcc.c ****   *            @arg RCC_APB1Periph_I2C3:   I2C3 clock
2093:Libraries/STM32F4xx_StdPeriph_Driver/src/stm32f4xx_rcc.c ****   *            @arg RCC_APB1Periph_FMPI2C1:   FMPI2C1 clock
2094:Libraries/STM32F4xx_StdPeriph_Driver/src/stm32f4xx_rcc.c ****   *            @arg RCC_APB1Periph_CAN1:   CAN1 clock
2095:Libraries/STM32F4xx_StdPeriph_Driver/src/stm32f4xx_rcc.c ****   *            @arg RCC_APB1Periph_CAN2:   CAN2 clock
2096:Libraries/STM32F4xx_StdPeriph_Driver/src/stm32f4xx_rcc.c ****   *            @arg RCC_APB1Periph_CEC:    CEC clock(STM32F446xx devices)
2097:Libraries/STM32F4xx_StdPeriph_Driver/src/stm32f4xx_rcc.c ****   *            @arg RCC_APB1Periph_PWR:    PWR clock
2098:Libraries/STM32F4xx_StdPeriph_Driver/src/stm32f4xx_rcc.c ****   *            @arg RCC_APB1Periph_DAC:    DAC clock
2099:Libraries/STM32F4xx_StdPeriph_Driver/src/stm32f4xx_rcc.c ****   *            @arg RCC_APB1Periph_UART7:  UART7 clock
2100:Libraries/STM32F4xx_StdPeriph_Driver/src/stm32f4xx_rcc.c ****   *            @arg RCC_APB1Periph_UART8:  UART8 clock  
2101:Libraries/STM32F4xx_StdPeriph_Driver/src/stm32f4xx_rcc.c ****   * @param  NewState: new state of the specified peripheral reset.
2102:Libraries/STM32F4xx_StdPeriph_Driver/src/stm32f4xx_rcc.c ****   *          This parameter can be: ENABLE or DISABLE.
2103:Libraries/STM32F4xx_StdPeriph_Driver/src/stm32f4xx_rcc.c ****   * @retval None
2104:Libraries/STM32F4xx_StdPeriph_Driver/src/stm32f4xx_rcc.c ****   */
2105:Libraries/STM32F4xx_StdPeriph_Driver/src/stm32f4xx_rcc.c **** void RCC_APB1PeriphResetCmd(uint32_t RCC_APB1Periph, FunctionalState NewState)
2106:Libraries/STM32F4xx_StdPeriph_Driver/src/stm32f4xx_rcc.c **** {
2107:Libraries/STM32F4xx_StdPeriph_Driver/src/stm32f4xx_rcc.c ****   /* Check the parameters */
2108:Libraries/STM32F4xx_StdPeriph_Driver/src/stm32f4xx_rcc.c ****   assert_param(IS_RCC_APB1_PERIPH(RCC_APB1Periph));
2109:Libraries/STM32F4xx_StdPeriph_Driver/src/stm32f4xx_rcc.c ****   assert_param(IS_FUNCTIONAL_STATE(NewState));
2110:Libraries/STM32F4xx_StdPeriph_Driver/src/stm32f4xx_rcc.c ****   if (NewState != DISABLE)
2111:Libraries/STM32F4xx_StdPeriph_Driver/src/stm32f4xx_rcc.c ****   {
2112:Libraries/STM32F4xx_StdPeriph_Driver/src/stm32f4xx_rcc.c ****     RCC->APB1RSTR |= RCC_APB1Periph;
2113:Libraries/STM32F4xx_StdPeriph_Driver/src/stm32f4xx_rcc.c ****   }
2114:Libraries/STM32F4xx_StdPeriph_Driver/src/stm32f4xx_rcc.c ****   else
2115:Libraries/STM32F4xx_StdPeriph_Driver/src/stm32f4xx_rcc.c ****   {
2116:Libraries/STM32F4xx_StdPeriph_Driver/src/stm32f4xx_rcc.c ****     RCC->APB1RSTR &= ~RCC_APB1Periph;
2117:Libraries/STM32F4xx_StdPeriph_Driver/src/stm32f4xx_rcc.c ****   }
2118:Libraries/STM32F4xx_StdPeriph_Driver/src/stm32f4xx_rcc.c **** }
2119:Libraries/STM32F4xx_StdPeriph_Driver/src/stm32f4xx_rcc.c **** 
2120:Libraries/STM32F4xx_StdPeriph_Driver/src/stm32f4xx_rcc.c **** /**
2121:Libraries/STM32F4xx_StdPeriph_Driver/src/stm32f4xx_rcc.c ****   * @brief  Forces or releases High Speed APB (APB2) peripheral reset.
2122:Libraries/STM32F4xx_StdPeriph_Driver/src/stm32f4xx_rcc.c ****   * @param  RCC_APB2Periph: specifies the APB2 peripheral to reset.
2123:Libraries/STM32F4xx_StdPeriph_Driver/src/stm32f4xx_rcc.c ****   *          This parameter can be any combination of the following values:
2124:Libraries/STM32F4xx_StdPeriph_Driver/src/stm32f4xx_rcc.c ****   *            @arg RCC_APB2Periph_TIM1:   TIM1 clock
2125:Libraries/STM32F4xx_StdPeriph_Driver/src/stm32f4xx_rcc.c ****   *            @arg RCC_APB2Periph_TIM8:   TIM8 clock
2126:Libraries/STM32F4xx_StdPeriph_Driver/src/stm32f4xx_rcc.c ****   *            @arg RCC_APB2Periph_USART1: USART1 clock
2127:Libraries/STM32F4xx_StdPeriph_Driver/src/stm32f4xx_rcc.c ****   *            @arg RCC_APB2Periph_USART6: USART6 clock
2128:Libraries/STM32F4xx_StdPeriph_Driver/src/stm32f4xx_rcc.c ****   *            @arg RCC_APB2Periph_ADC1:   ADC1 clock
2129:Libraries/STM32F4xx_StdPeriph_Driver/src/stm32f4xx_rcc.c ****   *            @arg RCC_APB2Periph_ADC2:   ADC2 clock
2130:Libraries/STM32F4xx_StdPeriph_Driver/src/stm32f4xx_rcc.c ****   *            @arg RCC_APB2Periph_ADC3:   ADC3 clock
2131:Libraries/STM32F4xx_StdPeriph_Driver/src/stm32f4xx_rcc.c ****   *            @arg RCC_APB2Periph_SDIO:   SDIO clock
2132:Libraries/STM32F4xx_StdPeriph_Driver/src/stm32f4xx_rcc.c ****   *            @arg RCC_APB2Periph_SPI1:   SPI1 clock
2133:Libraries/STM32F4xx_StdPeriph_Driver/src/stm32f4xx_rcc.c ****   *            @arg RCC_APB2Periph_SPI4:   SPI4 clock  
2134:Libraries/STM32F4xx_StdPeriph_Driver/src/stm32f4xx_rcc.c ****   *            @arg RCC_APB2Periph_SYSCFG: SYSCFG clock
2135:Libraries/STM32F4xx_StdPeriph_Driver/src/stm32f4xx_rcc.c ****   *            @arg RCC_APB2Periph_TIM9:   TIM9 clock
2136:Libraries/STM32F4xx_StdPeriph_Driver/src/stm32f4xx_rcc.c ****   *            @arg RCC_APB2Periph_TIM10:  TIM10 clock
2137:Libraries/STM32F4xx_StdPeriph_Driver/src/stm32f4xx_rcc.c ****   *            @arg RCC_APB2Periph_TIM11:  TIM11 clock
2138:Libraries/STM32F4xx_StdPeriph_Driver/src/stm32f4xx_rcc.c ****   *            @arg RCC_APB2Periph_SPI5:   SPI5 clock
2139:Libraries/STM32F4xx_StdPeriph_Driver/src/stm32f4xx_rcc.c ****   *            @arg RCC_APB2Periph_SPI6:   SPI6 clock
2140:Libraries/STM32F4xx_StdPeriph_Driver/src/stm32f4xx_rcc.c ****   *            @arg RCC_APB2Periph_SAI1:   SAI1 clock (STM32F42xxx/43xxx devices)
2141:Libraries/STM32F4xx_StdPeriph_Driver/src/stm32f4xx_rcc.c ****   *            @arg RCC_APB2Periph_SAI2:   SAI2 clock (STM32F446xx devices) 
2142:Libraries/STM32F4xx_StdPeriph_Driver/src/stm32f4xx_rcc.c ****   *            @arg RCC_APB2Periph_LTDC:   LTDC clock (STM32F429xx/439xx devices)
2143:Libraries/STM32F4xx_StdPeriph_Driver/src/stm32f4xx_rcc.c ****   * @param  NewState: new state of the specified peripheral reset.
2144:Libraries/STM32F4xx_StdPeriph_Driver/src/stm32f4xx_rcc.c ****   *          This parameter can be: ENABLE or DISABLE.
2145:Libraries/STM32F4xx_StdPeriph_Driver/src/stm32f4xx_rcc.c ****   * @retval None
2146:Libraries/STM32F4xx_StdPeriph_Driver/src/stm32f4xx_rcc.c ****   */
2147:Libraries/STM32F4xx_StdPeriph_Driver/src/stm32f4xx_rcc.c **** void RCC_APB2PeriphResetCmd(uint32_t RCC_APB2Periph, FunctionalState NewState)
2148:Libraries/STM32F4xx_StdPeriph_Driver/src/stm32f4xx_rcc.c **** {
2149:Libraries/STM32F4xx_StdPeriph_Driver/src/stm32f4xx_rcc.c ****   /* Check the parameters */
2150:Libraries/STM32F4xx_StdPeriph_Driver/src/stm32f4xx_rcc.c ****   assert_param(IS_RCC_APB2_RESET_PERIPH(RCC_APB2Periph));
2151:Libraries/STM32F4xx_StdPeriph_Driver/src/stm32f4xx_rcc.c ****   assert_param(IS_FUNCTIONAL_STATE(NewState));
2152:Libraries/STM32F4xx_StdPeriph_Driver/src/stm32f4xx_rcc.c ****   if (NewState != DISABLE)
2153:Libraries/STM32F4xx_StdPeriph_Driver/src/stm32f4xx_rcc.c ****   {
2154:Libraries/STM32F4xx_StdPeriph_Driver/src/stm32f4xx_rcc.c ****     RCC->APB2RSTR |= RCC_APB2Periph;
2155:Libraries/STM32F4xx_StdPeriph_Driver/src/stm32f4xx_rcc.c ****   }
2156:Libraries/STM32F4xx_StdPeriph_Driver/src/stm32f4xx_rcc.c ****   else
2157:Libraries/STM32F4xx_StdPeriph_Driver/src/stm32f4xx_rcc.c ****   {
2158:Libraries/STM32F4xx_StdPeriph_Driver/src/stm32f4xx_rcc.c ****     RCC->APB2RSTR &= ~RCC_APB2Periph;
2159:Libraries/STM32F4xx_StdPeriph_Driver/src/stm32f4xx_rcc.c ****   }
2160:Libraries/STM32F4xx_StdPeriph_Driver/src/stm32f4xx_rcc.c **** }
2161:Libraries/STM32F4xx_StdPeriph_Driver/src/stm32f4xx_rcc.c **** 
2162:Libraries/STM32F4xx_StdPeriph_Driver/src/stm32f4xx_rcc.c **** /**
2163:Libraries/STM32F4xx_StdPeriph_Driver/src/stm32f4xx_rcc.c ****   * @brief  Enables or disables the AHB1 peripheral clock during Low Power (Sleep) mode.
2164:Libraries/STM32F4xx_StdPeriph_Driver/src/stm32f4xx_rcc.c ****   * @note   Peripheral clock gating in SLEEP mode can be used to further reduce
2165:Libraries/STM32F4xx_StdPeriph_Driver/src/stm32f4xx_rcc.c ****   *         power consumption.
2166:Libraries/STM32F4xx_StdPeriph_Driver/src/stm32f4xx_rcc.c ****   * @note   After wakeup from SLEEP mode, the peripheral clock is enabled again.
2167:Libraries/STM32F4xx_StdPeriph_Driver/src/stm32f4xx_rcc.c ****   * @note   By default, all peripheral clocks are enabled during SLEEP mode.
2168:Libraries/STM32F4xx_StdPeriph_Driver/src/stm32f4xx_rcc.c ****   * @param  RCC_AHBPeriph: specifies the AHB1 peripheral to gates its clock.
2169:Libraries/STM32F4xx_StdPeriph_Driver/src/stm32f4xx_rcc.c ****   *          This parameter can be any combination of the following values:
2170:Libraries/STM32F4xx_StdPeriph_Driver/src/stm32f4xx_rcc.c ****   *            @arg RCC_AHB1Periph_GPIOA:       GPIOA clock
2171:Libraries/STM32F4xx_StdPeriph_Driver/src/stm32f4xx_rcc.c ****   *            @arg RCC_AHB1Periph_GPIOB:       GPIOB clock 
2172:Libraries/STM32F4xx_StdPeriph_Driver/src/stm32f4xx_rcc.c ****   *            @arg RCC_AHB1Periph_GPIOC:       GPIOC clock
2173:Libraries/STM32F4xx_StdPeriph_Driver/src/stm32f4xx_rcc.c ****   *            @arg RCC_AHB1Periph_GPIOD:       GPIOD clock
2174:Libraries/STM32F4xx_StdPeriph_Driver/src/stm32f4xx_rcc.c ****   *            @arg RCC_AHB1Periph_GPIOE:       GPIOE clock
2175:Libraries/STM32F4xx_StdPeriph_Driver/src/stm32f4xx_rcc.c ****   *            @arg RCC_AHB1Periph_GPIOF:       GPIOF clock
2176:Libraries/STM32F4xx_StdPeriph_Driver/src/stm32f4xx_rcc.c ****   *            @arg RCC_AHB1Periph_GPIOG:       GPIOG clock
2177:Libraries/STM32F4xx_StdPeriph_Driver/src/stm32f4xx_rcc.c ****   *            @arg RCC_AHB1Periph_GPIOG:       GPIOG clock
2178:Libraries/STM32F4xx_StdPeriph_Driver/src/stm32f4xx_rcc.c ****   *            @arg RCC_AHB1Periph_GPIOI:       GPIOI clock
2179:Libraries/STM32F4xx_StdPeriph_Driver/src/stm32f4xx_rcc.c ****   *            @arg RCC_AHB1Periph_GPIOJ:       GPIOJ clock (STM32F42xxx/43xxx devices) 
2180:Libraries/STM32F4xx_StdPeriph_Driver/src/stm32f4xx_rcc.c ****   *            @arg RCC_AHB1Periph_GPIOK:       GPIOK clock (STM32F42xxx/43xxx devices)   
2181:Libraries/STM32F4xx_StdPeriph_Driver/src/stm32f4xx_rcc.c ****   *            @arg RCC_AHB1Periph_CRC:         CRC clock
2182:Libraries/STM32F4xx_StdPeriph_Driver/src/stm32f4xx_rcc.c ****   *            @arg RCC_AHB1Periph_BKPSRAM:     BKPSRAM interface clock
2183:Libraries/STM32F4xx_StdPeriph_Driver/src/stm32f4xx_rcc.c ****   *            @arg RCC_AHB1Periph_DMA1:        DMA1 clock
2184:Libraries/STM32F4xx_StdPeriph_Driver/src/stm32f4xx_rcc.c ****   *            @arg RCC_AHB1Periph_DMA2:        DMA2 clock
2185:Libraries/STM32F4xx_StdPeriph_Driver/src/stm32f4xx_rcc.c ****   *            @arg RCC_AHB1Periph_DMA2D:       DMA2D clock (STM32F429xx/439xx devices) 
2186:Libraries/STM32F4xx_StdPeriph_Driver/src/stm32f4xx_rcc.c ****   *            @arg RCC_AHB1Periph_ETH_MAC:     Ethernet MAC clock
2187:Libraries/STM32F4xx_StdPeriph_Driver/src/stm32f4xx_rcc.c ****   *            @arg RCC_AHB1Periph_ETH_MAC_Tx:  Ethernet Transmission clock
2188:Libraries/STM32F4xx_StdPeriph_Driver/src/stm32f4xx_rcc.c ****   *            @arg RCC_AHB1Periph_ETH_MAC_Rx:  Ethernet Reception clock
2189:Libraries/STM32F4xx_StdPeriph_Driver/src/stm32f4xx_rcc.c ****   *            @arg RCC_AHB1Periph_ETH_MAC_PTP: Ethernet PTP clock
2190:Libraries/STM32F4xx_StdPeriph_Driver/src/stm32f4xx_rcc.c ****   *            @arg RCC_AHB1Periph_OTG_HS:      USB OTG HS clock
2191:Libraries/STM32F4xx_StdPeriph_Driver/src/stm32f4xx_rcc.c ****   *            @arg RCC_AHB1Periph_OTG_HS_ULPI: USB OTG HS ULPI clock
2192:Libraries/STM32F4xx_StdPeriph_Driver/src/stm32f4xx_rcc.c ****   * @param  NewState: new state of the specified peripheral clock.
2193:Libraries/STM32F4xx_StdPeriph_Driver/src/stm32f4xx_rcc.c ****   *          This parameter can be: ENABLE or DISABLE.
2194:Libraries/STM32F4xx_StdPeriph_Driver/src/stm32f4xx_rcc.c ****   * @retval None
2195:Libraries/STM32F4xx_StdPeriph_Driver/src/stm32f4xx_rcc.c ****   */
2196:Libraries/STM32F4xx_StdPeriph_Driver/src/stm32f4xx_rcc.c **** void RCC_AHB1PeriphClockLPModeCmd(uint32_t RCC_AHB1Periph, FunctionalState NewState)
2197:Libraries/STM32F4xx_StdPeriph_Driver/src/stm32f4xx_rcc.c **** {
2198:Libraries/STM32F4xx_StdPeriph_Driver/src/stm32f4xx_rcc.c ****   /* Check the parameters */
2199:Libraries/STM32F4xx_StdPeriph_Driver/src/stm32f4xx_rcc.c ****   assert_param(IS_RCC_AHB1_LPMODE_PERIPH(RCC_AHB1Periph));
2200:Libraries/STM32F4xx_StdPeriph_Driver/src/stm32f4xx_rcc.c ****   assert_param(IS_FUNCTIONAL_STATE(NewState));
2201:Libraries/STM32F4xx_StdPeriph_Driver/src/stm32f4xx_rcc.c ****   if (NewState != DISABLE)
2202:Libraries/STM32F4xx_StdPeriph_Driver/src/stm32f4xx_rcc.c ****   {
2203:Libraries/STM32F4xx_StdPeriph_Driver/src/stm32f4xx_rcc.c ****     RCC->AHB1LPENR |= RCC_AHB1Periph;
2204:Libraries/STM32F4xx_StdPeriph_Driver/src/stm32f4xx_rcc.c ****   }
2205:Libraries/STM32F4xx_StdPeriph_Driver/src/stm32f4xx_rcc.c ****   else
